---
triple:          'arm64-apple-darwin'
binary-path:     fib
relocations:
  - { offset: 0x1E, size: 0x8, addend: 0x0, symName: _gcrust_entry, symObjAddr: 0x0, symBinAddr: 0x1000007C8, symSize: 0x8 }
  - { offset: 0x2B, size: 0x8, addend: 0x0, symName: _gcrust_entry, symObjAddr: 0x0, symBinAddr: 0x1000007C8, symSize: 0x8 }
  - { offset: 0x3C, size: 0x8, addend: 0x0, symName: _fib, symObjAddr: 0x8, symBinAddr: 0x1000007D0, symSize: 0x6C }
  - { offset: 0x6B, size: 0x8, addend: 0x0, symName: __ZN9gcrust_rt2gc4scan11scan_object17h0ffd94f1b3243288E, symObjAddr: 0x0, symBinAddr: 0x10000086C, symSize: 0x394 }
  - { offset: 0x65D, size: 0x8, addend: 0x0, symName: __ZN9gcrust_rt2gc4scan11scan_object17h0ffd94f1b3243288E, symObjAddr: 0x0, symBinAddr: 0x10000086C, symSize: 0x394 }
  - { offset: 0x87B, size: 0x8, addend: 0x0, symName: __ZN9gcrust_rt2gc4scan11scan_object17h4e5b102c6596a247E, symObjAddr: 0x394, symBinAddr: 0x100000C00, symSize: 0x398 }
  - { offset: 0xA99, size: 0x8, addend: 0x0, symName: __ZN9gcrust_rt2gc4scan11scan_object17h649e3aa4fcada91bE, symObjAddr: 0x72C, symBinAddr: 0x100000F98, symSize: 0x394 }
  - { offset: 0xCB7, size: 0x8, addend: 0x0, symName: __ZN9gcrust_rt2gc4scan11scan_object17h9af87f047cb3ace7E, symObjAddr: 0xAC0, symBinAddr: 0x10000132C, symSize: 0x394 }
  - { offset: 0xED5, size: 0x8, addend: 0x0, symName: __ZN9gcrust_rt2gc4scan11scan_object17hb5e2f91b47d4c61aE, symObjAddr: 0xE54, symBinAddr: 0x1000016C0, symSize: 0x394 }
  - { offset: 0x10F3, size: 0x8, addend: 0x0, symName: __ZN9gcrust_rt2gc4scan11scan_object17hc82d4dedac9de8eaE, symObjAddr: 0x11E8, symBinAddr: 0x100001A54, symSize: 0x394 }
  - { offset: 0x1311, size: 0x8, addend: 0x0, symName: __ZN9gcrust_rt2gc4scan11scan_object17hefd879adde7e8af8E, symObjAddr: 0x157C, symBinAddr: 0x100001DE8, symSize: 0x394 }
  - { offset: 0x3341, size: 0x8, addend: 0x0, symName: __ZN4core4hint16assert_unchecked18precondition_check17hc7c03643d084359cE, symObjAddr: 0x0, symBinAddr: 0x10000217C, symSize: 0x58 }
  - { offset: 0x335D, size: 0x8, addend: 0x0, symName: __ZN4core4hint16assert_unchecked18precondition_check17hc7c03643d084359cE, symObjAddr: 0x0, symBinAddr: 0x10000217C, symSize: 0x58 }
  - { offset: 0x33A8, size: 0x8, addend: 0x0, symName: __ZN4core4hint21unreachable_unchecked18precondition_check17h7e3c3a3e17018865E, symObjAddr: 0x58, symBinAddr: 0x1000021D4, symSize: 0x3C }
  - { offset: 0x343C, size: 0x8, addend: 0x0, symName: '__ZN4core3str21_$LT$impl$u20$str$GT$3len17h0ab9f28134771678E', symObjAddr: 0x0, symBinAddr: 0x100002210, symSize: 0x1C }
  - { offset: 0x3458, size: 0x8, addend: 0x0, symName: '__ZN4core3str21_$LT$impl$u20$str$GT$3len17h0ab9f28134771678E', symObjAddr: 0x0, symBinAddr: 0x100002210, symSize: 0x1C }
  - { offset: 0x3484, size: 0x8, addend: 0x0, symName: '__ZN4core3str21_$LT$impl$u20$str$GT$4trim17h4d3d44c10b41934bE', symObjAddr: 0x1C, symBinAddr: 0x10000222C, symSize: 0x28 }
  - { offset: 0x34B2, size: 0x8, addend: 0x0, symName: '__ZN4core3str21_$LT$impl$u20$str$GT$5chars17h2ea8834b1be6c13bE', symObjAddr: 0x44, symBinAddr: 0x100002254, symSize: 0x20 }
  - { offset: 0x3526, size: 0x8, addend: 0x0, symName: '__ZN4core3str74_$LT$impl$u20$core..convert..AsRef$LT$$u5b$u8$u5d$$GT$$u20$for$u20$str$GT$6as_ref17hf61b48096d3cdab2E', symObjAddr: 0x64, symBinAddr: 0x100002274, symSize: 0x18 }
  - { offset: 0x3704, size: 0x8, addend: 0x0, symName: '__ZN102_$LT$core..slice..sort..unstable..quicksort..GapGuardRaw$LT$T$GT$$u20$as$u20$core..ops..drop..Drop$GT$4drop17h156bb0fa902173abE', symObjAddr: 0x0, symBinAddr: 0x10000228C, symSize: 0x80 }
  - { offset: 0x6351, size: 0x8, addend: 0x0, symName: '__ZN4core3ptr100drop_in_place$LT$core..cell..UnsafeCell$LT$alloc..vec..Vec$LT$alloc..vec..Vec$LT$u64$GT$$GT$$GT$$GT$17hb73e75c371bd7bedE', symObjAddr: 0x19D0, symBinAddr: 0x100003C5C, symSize: 0x24 }
  - { offset: 0x6380, size: 0x8, addend: 0x0, symName: '__ZN4core3ptr101drop_in_place$LT$std..io..error..ErrorData$LT$alloc..boxed..Box$LT$std..io..error..Custom$GT$$GT$$GT$17hcb390126e9f0cff2E', symObjAddr: 0x19F4, symBinAddr: 0x100003C80, symSize: 0x48 }
  - { offset: 0x63AF, size: 0x8, addend: 0x0, symName: '__ZN4core3ptr101drop_in_place$LT$std..sys..sync..once_box..OnceBox$LT$std..sys..pal..unix..sync..mutex..Mutex$GT$$GT$17h5fa13005cf9dec87E', symObjAddr: 0x1A3C, symBinAddr: 0x100003CC8, symSize: 0x24 }
  - { offset: 0x63DE, size: 0x8, addend: 0x0, symName: '__ZN4core3ptr102drop_in_place$LT$alloc..vec..Vec$LT$alloc..sync..Arc$LT$gcrust_rt..gc..thread..ThreadState$GT$$GT$$GT$17h01083075fe148fb2E', symObjAddr: 0x1A60, symBinAddr: 0x100003CEC, symSize: 0x5C }
  - { offset: 0x640D, size: 0x8, addend: 0x0, symName: '__ZN4core3ptr102drop_in_place$LT$core..cell..UnsafeCell$LT$alloc..vec..Vec$LT$gcrust_rt..gc..heap..GcEvent$GT$$GT$$GT$17h55b6670498c9663bE', symObjAddr: 0x1ABC, symBinAddr: 0x100003D48, symSize: 0x24 }
  - { offset: 0x643C, size: 0x8, addend: 0x0, symName: '__ZN4core3ptr103drop_in_place$LT$alloc..sync..Weak$LT$std..thread..scoped..ScopeData$C$$RF$alloc..alloc..Global$GT$$GT$17h6e8c2bd4889cbfe1E', symObjAddr: 0x1AE0, symBinAddr: 0x100003D6C, symSize: 0x24 }
  - { offset: 0x646B, size: 0x8, addend: 0x0, symName: '__ZN4core3ptr103drop_in_place$LT$core..option..Option$LT$alloc..sync..Arc$LT$std..thread..scoped..ScopeData$GT$$GT$$GT$17h6b3edc9ff5a720c9E', symObjAddr: 0x1B04, symBinAddr: 0x100003D90, symSize: 0x44 }
  - { offset: 0x649A, size: 0x8, addend: 0x0, symName: '__ZN4core3ptr104drop_in_place$LT$core..option..Option$LT$alloc..vec..Vec$LT$gcrust_rt..gc..reflect..TypeMeta$GT$$GT$$GT$17h3d5ed60dd91e87abE', symObjAddr: 0x1B48, symBinAddr: 0x100003DD4, symSize: 0x48 }
  - { offset: 0x64C9, size: 0x8, addend: 0x0, symName: '__ZN4core3ptr105drop_in_place$LT$alloc..raw_vec..RawVec$LT$$BP$const$u20$dyn$u20$gcrust_rt..gc..roots..RootSource$GT$$GT$17hf7162f7875209ef0E', symObjAddr: 0x1B90, symBinAddr: 0x100003E1C, symSize: 0x24 }
  - { offset: 0x64F8, size: 0x8, addend: 0x0, symName: '__ZN4core3ptr105drop_in_place$LT$core..option..Option$LT$alloc..vec..Vec$LT$gcrust_rt..gc..reflect..AllocSite$GT$$GT$$GT$17he3d65b85e762f061E', symObjAddr: 0x1BB4, symBinAddr: 0x100003E40, symSize: 0x48 }
  - { offset: 0x6527, size: 0x8, addend: 0x0, symName: '__ZN4core3ptr105drop_in_place$LT$core..option..Option$LT$alloc..vec..Vec$LT$gcrust_rt..gc..reflect..ValueMeta$GT$$GT$$GT$17hae6e6b382fde4fe1E', symObjAddr: 0x1BFC, symBinAddr: 0x100003E88, symSize: 0x48 }
  - { offset: 0x6556, size: 0x8, addend: 0x0, symName: '__ZN4core3ptr105drop_in_place$LT$std..sys..sync..once_box..OnceBox$LT$std..sys..pal..unix..sync..condvar..Condvar$GT$$GT$17h1bb82e50d0781bb1E', symObjAddr: 0x1C44, symBinAddr: 0x100003ED0, symSize: 0x24 }
  - { offset: 0x6585, size: 0x8, addend: 0x0, symName: '__ZN4core3ptr106drop_in_place$LT$core..option..Option$LT$alloc..sync..Arc$LT$std..thread..spawnhook..SpawnHook$GT$$GT$$GT$17h346a8d0af014d148E', symObjAddr: 0x1C68, symBinAddr: 0x100003EF4, symSize: 0x44 }
  - { offset: 0x65B4, size: 0x8, addend: 0x0, symName: '__ZN4core3ptr106drop_in_place$LT$hashbrown..raw..RawTable$LT$$LP$alloc..string..String$C$$LP$usize$C$usize$RP$$RP$$GT$$GT$17hb82adb97e35eccbbE', symObjAddr: 0x1CAC, symBinAddr: 0x100003F38, symSize: 0x24 }
  - { offset: 0x65E3, size: 0x8, addend: 0x0, symName: '__ZN4core3ptr107drop_in_place$LT$alloc..sync..Weak$LT$gcrust_rt..gc..thread..ThreadState$C$$RF$alloc..alloc..Global$GT$$GT$17ha9a0a512e4634edeE', symObjAddr: 0x1CD0, symBinAddr: 0x100003F5C, symSize: 0x24 }
  - { offset: 0x6612, size: 0x8, addend: 0x0, symName: '__ZN4core3ptr107drop_in_place$LT$core..pin..Pin$LT$alloc..boxed..Box$LT$std..sys..pal..unix..sync..mutex..Mutex$GT$$GT$$GT$17h9513abaac123b660E', symObjAddr: 0x1CF4, symBinAddr: 0x100003F80, symSize: 0x24 }
  - { offset: 0x6641, size: 0x8, addend: 0x0, symName: '__ZN4core3ptr107drop_in_place$LT$core..slice..sort..stable..merge..MergeState$LT$gcrust_rt..gc..heap..AllocSiteStat$GT$$GT$17h42f1330af9465ed7E', symObjAddr: 0x1D18, symBinAddr: 0x100003FA4, symSize: 0x24 }
  - { offset: 0x6670, size: 0x8, addend: 0x0, symName: '__ZN4core3ptr107drop_in_place$LT$std..sync..poison..PoisonError$LT$std..sync..poison..mutex..MutexGuard$LT$bool$GT$$GT$$GT$17hef83c2fdfcb79204E', symObjAddr: 0x1D3C, symBinAddr: 0x100003FC8, symSize: 0x24 }
  - { offset: 0x669F, size: 0x8, addend: 0x0, symName: '__ZN4core3ptr108drop_in_place$LT$core..cell..UnsafeCell$LT$alloc..vec..Vec$LT$gcrust_rt..gc..thread..SiteCounter$GT$$GT$$GT$17h8527baaec9deff9dE', symObjAddr: 0x1D60, symBinAddr: 0x100003FEC, symSize: 0x24 }
  - { offset: 0x66CE, size: 0x8, addend: 0x0, symName: '__ZN4core3ptr108drop_in_place$LT$core..slice..sort..stable..merge..MergeState$LT$gcrust_rt..gc..statemap..TraceEvent$GT$$GT$17hf3e2ad5f6735c174E', symObjAddr: 0x1D84, symBinAddr: 0x100004010, symSize: 0x24 }
  - { offset: 0x66FD, size: 0x8, addend: 0x0, symName: '__ZN4core3ptr109drop_in_place$LT$alloc..raw_vec..RawVec$LT$alloc..sync..Arc$LT$gcrust_rt..gc..thread..ThreadState$GT$$GT$$GT$17hcd937992005e0f1cE', symObjAddr: 0x1DA8, symBinAddr: 0x100004034, symSize: 0x24 }
  - { offset: 0x672C, size: 0x8, addend: 0x0, symName: '__ZN4core3ptr109drop_in_place$LT$core..cell..UnsafeCell$LT$alloc..vec..Vec$LT$gcrust_rt..gc..statemap..TraceEvent$GT$$GT$$GT$17hd0a83f99a782bf87E', symObjAddr: 0x1DCC, symBinAddr: 0x100004058, symSize: 0x24 }
  - { offset: 0x675B, size: 0x8, addend: 0x0, symName: '__ZN4core3ptr109drop_in_place$LT$core..hint..select_unpredictable..DropOnPanic$LT$$BP$const$u20$$LP$usize$C$usize$RP$$GT$$GT$17h780ec2ef4ae5439eE', symObjAddr: 0x1DF0, symBinAddr: 0x10000407C, symSize: 0x24 }
  - { offset: 0x678A, size: 0x8, addend: 0x0, symName: '__ZN4core3ptr109drop_in_place$LT$hashbrown..raw..RawIntoIter$LT$$LP$alloc..string..String$C$$LP$usize$C$usize$RP$$RP$$GT$$GT$17h357389cd8fa8e1d7E', symObjAddr: 0x1E14, symBinAddr: 0x1000040A0, symSize: 0x24 }
  - { offset: 0x67B9, size: 0x8, addend: 0x0, symName: '__ZN4core3ptr109drop_in_place$LT$std..sync..poison..mutex..Mutex$LT$alloc..vec..Vec$LT$alloc..vec..Vec$LT$u64$GT$$GT$$GT$$GT$17h03faa0d87f0556c9E', symObjAddr: 0x1E38, symBinAddr: 0x1000040C4, symSize: 0x60 }
  - { offset: 0x67E8, size: 0x8, addend: 0x0, symName: '__ZN4core3ptr110drop_in_place$LT$alloc..vec..Vec$LT$T$C$A$GT$..dedup_by..FillGapOnDrop$LT$usize$C$alloc..alloc..Global$GT$$GT$17h0f6b6c64f26c7504E', symObjAddr: 0x1E98, symBinAddr: 0x100004124, symSize: 0x24 }
  - { offset: 0x6817, size: 0x8, addend: 0x0, symName: '__ZN4core3ptr110drop_in_place$LT$std..collections..hash..map..HashMap$LT$alloc..string..String$C$$LP$usize$C$usize$RP$$GT$$GT$17h5174f94f9829d4ffE', symObjAddr: 0x1EBC, symBinAddr: 0x100004148, symSize: 0x24 }
  - { offset: 0x6846, size: 0x8, addend: 0x0, symName: '__ZN4core3ptr111drop_in_place$LT$core..cell..UnsafeCell$LT$alloc..vec..Vec$LT$core..sync..atomic..Atomic$LT$u64$GT$$GT$$GT$$GT$17h4fb4bb4018c2b068E', symObjAddr: 0x1EE0, symBinAddr: 0x10000416C, symSize: 0x24 }
  - { offset: 0x6875, size: 0x8, addend: 0x0, symName: '__ZN4core3ptr111drop_in_place$LT$core..pin..Pin$LT$alloc..boxed..Box$LT$std..sys..pal..unix..sync..condvar..Condvar$GT$$GT$$GT$17hf4abd50227ef13d7E', symObjAddr: 0x1F04, symBinAddr: 0x100004190, symSize: 0x24 }
  - { offset: 0x68A4, size: 0x8, addend: 0x0, symName: '__ZN4core3ptr111drop_in_place$LT$core..slice..sort..shared..smallsort..CopyOnDrop$LT$gcrust_rt..gc..heap..AllocSiteStat$GT$$GT$17h9b0bef6c31139cc0E', symObjAddr: 0x1F28, symBinAddr: 0x1000041B4, symSize: 0x24 }
  - { offset: 0x68D3, size: 0x8, addend: 0x0, symName: '__ZN4core3ptr111drop_in_place$LT$std..collections..hash..map..IntoIter$LT$alloc..string..String$C$$LP$usize$C$usize$RP$$GT$$GT$17h029111d8cb380e09E', symObjAddr: 0x1F4C, symBinAddr: 0x1000041D8, symSize: 0x24 }
  - { offset: 0x6902, size: 0x8, addend: 0x0, symName: '__ZN4core3ptr111drop_in_place$LT$std..sync..poison..PoisonError$LT$std..sync..poison..mutex..MutexGuard$LT$$LP$$RP$$GT$$GT$$GT$17h7dc3c9ad944a63efE', symObjAddr: 0x1F70, symBinAddr: 0x1000041FC, symSize: 0x24 }
  - { offset: 0x6931, size: 0x8, addend: 0x0, symName: '__ZN4core3ptr111drop_in_place$LT$std..sync..poison..mutex..Mutex$LT$alloc..vec..Vec$LT$gcrust_rt..gc..heap..GcEvent$GT$$GT$$GT$17h6bf02d1a4141a27bE', symObjAddr: 0x1F94, symBinAddr: 0x100004220, symSize: 0x60 }
  - { offset: 0x6960, size: 0x8, addend: 0x0, symName: '__ZN4core3ptr112drop_in_place$LT$alloc..sync..Weak$LT$gcrust_rt..gc..statemap..StatemapTracer$C$$RF$alloc..alloc..Global$GT$$GT$17h83de166af1b7f207E', symObjAddr: 0x1FF4, symBinAddr: 0x100004280, symSize: 0x24 }
  - { offset: 0x698F, size: 0x8, addend: 0x0, symName: '__ZN4core3ptr112drop_in_place$LT$core..option..Option$LT$alloc..sync..Arc$LT$gcrust_rt..gc..statemap..StatemapTracer$GT$$GT$$GT$17h0954581ee247777fE', symObjAddr: 0x2018, symBinAddr: 0x1000042A4, symSize: 0x44 }
  - { offset: 0x69BE, size: 0x8, addend: 0x0, symName: '__ZN4core3ptr112drop_in_place$LT$core..slice..sort..shared..smallsort..CopyOnDrop$LT$gcrust_rt..gc..statemap..TraceEvent$GT$$GT$17h03a650d4822de0caE', symObjAddr: 0x205C, symBinAddr: 0x1000042E8, symSize: 0x24 }
  - { offset: 0x69ED, size: 0x8, addend: 0x0, symName: '__ZN4core3ptr112drop_in_place$LT$std..sync..poison..TryLockError$LT$std..sync..poison..mutex..MutexGuard$LT$$LP$$RP$$GT$$GT$$GT$17hec576a14c7b6a498E', symObjAddr: 0x2080, symBinAddr: 0x10000430C, symSize: 0x48 }
  - { offset: 0x6A1C, size: 0x8, addend: 0x0, symName: '__ZN4core3ptr114drop_in_place$LT$alloc..sync..Weak$LT$std..thread..lifecycle..Packet$LT$u64$GT$$C$$RF$alloc..alloc..Global$GT$$GT$17hb43ec5ce66a07ea5E', symObjAddr: 0x20C8, symBinAddr: 0x100004354, symSize: 0x24 }
  - { offset: 0x6A4B, size: 0x8, addend: 0x0, symName: '__ZN4core3ptr114drop_in_place$LT$core..option..Option$LT$alloc..vec..into_iter..IntoIter$LT$alloc..vec..Vec$LT$u64$GT$$GT$$GT$$GT$17hee04c8548dc3a4f9E', symObjAddr: 0x20EC, symBinAddr: 0x100004378, symSize: 0x44 }
  - { offset: 0x6A7A, size: 0x8, addend: 0x0, symName: '__ZN4core3ptr114drop_in_place$LT$core..pin..Pin$LT$alloc..sync..Arc$LT$std..thread..thread..Inner$C$std..alloc..System$GT$$GT$$GT$17hb78a05de872a6d0eE', symObjAddr: 0x2130, symBinAddr: 0x1000043BC, symSize: 0x24 }
  - { offset: 0x6AA9, size: 0x8, addend: 0x0, symName: '__ZN4core3ptr114drop_in_place$LT$hashbrown..map..HashMap$LT$alloc..string..String$C$usize$C$std..hash..random..RandomState$GT$$GT$17hd1c84dd9062e7a12E', symObjAddr: 0x2154, symBinAddr: 0x1000043E0, symSize: 0x24 }
  - { offset: 0x6AD8, size: 0x8, addend: 0x0, symName: '__ZN4core3ptr114drop_in_place$LT$std..sync..once_lock..OnceLock$LT$alloc..vec..Vec$LT$gcrust_rt..gc..reflect..TypeMeta$GT$$GT$$GT$17hd224f43f942eb983E', symObjAddr: 0x2178, symBinAddr: 0x100004404, symSize: 0x24 }
  - { offset: 0x6B07, size: 0x8, addend: 0x0, symName: '__ZN4core3ptr114drop_in_place$LT$std..sync..poison..mutex..MutexGuard$LT$alloc..vec..Vec$LT$alloc..vec..Vec$LT$u64$GT$$GT$$GT$$GT$17h29ed0ca62d5423c1E', symObjAddr: 0x219C, symBinAddr: 0x100004428, symSize: 0x24 }
  - { offset: 0x6B36, size: 0x8, addend: 0x0, symName: '__ZN4core3ptr115drop_in_place$LT$core..result..Result$LT$$LP$$RP$$C$alloc..vec..Vec$LT$gcrust_rt..gc..reflect..TypeMeta$GT$$GT$$GT$17h33d8f122a7af55d3E', symObjAddr: 0x21C0, symBinAddr: 0x10000444C, symSize: 0x48 }
  - { offset: 0x6B65, size: 0x8, addend: 0x0, symName: '__ZN4core3ptr115drop_in_place$LT$std..sync..once_lock..OnceLock$LT$alloc..vec..Vec$LT$gcrust_rt..gc..reflect..AllocSite$GT$$GT$$GT$17h5d98d60eb8790c7bE', symObjAddr: 0x2208, symBinAddr: 0x100004494, symSize: 0x24 }
  - { offset: 0x6B94, size: 0x8, addend: 0x0, symName: '__ZN4core3ptr115drop_in_place$LT$std..sync..once_lock..OnceLock$LT$alloc..vec..Vec$LT$gcrust_rt..gc..reflect..ValueMeta$GT$$GT$$GT$17had515d0d4a392012E', symObjAddr: 0x222C, symBinAddr: 0x1000044B8, symSize: 0x24 }
  - { offset: 0x6BC3, size: 0x8, addend: 0x0, symName: '__ZN4core3ptr116drop_in_place$LT$core..result..Result$LT$$LP$$RP$$C$alloc..vec..Vec$LT$gcrust_rt..gc..reflect..AllocSite$GT$$GT$$GT$17h7d44a4a84705c570E', symObjAddr: 0x2250, symBinAddr: 0x1000044DC, symSize: 0x48 }
  - { offset: 0x6BF2, size: 0x8, addend: 0x0, symName: '__ZN4core3ptr116drop_in_place$LT$core..result..Result$LT$$LP$$RP$$C$alloc..vec..Vec$LT$gcrust_rt..gc..reflect..ValueMeta$GT$$GT$$GT$17h3b0680385e69bdbbE', symObjAddr: 0x2298, symBinAddr: 0x100004524, symSize: 0x48 }
  - { offset: 0x6C21, size: 0x8, addend: 0x0, symName: '__ZN4core3ptr116drop_in_place$LT$std..sync..poison..mutex..MutexGuard$LT$alloc..vec..Vec$LT$gcrust_rt..gc..heap..GcEvent$GT$$GT$$GT$17h4d9a0ca4e867298fE', symObjAddr: 0x22E0, symBinAddr: 0x10000456C, symSize: 0x24 }
  - { offset: 0x6C50, size: 0x8, addend: 0x0, symName: '__ZN4core3ptr117drop_in_place$LT$hashbrown..map..HashMap$LT$$u5b$u8$u3b$$u20$32$u5d$$C$usize$C$std..hash..random..RandomState$GT$$GT$17h792d82b26fc0271aE', symObjAddr: 0x2304, symBinAddr: 0x100004590, symSize: 0x24 }
  - { offset: 0x6C7F, size: 0x8, addend: 0x0, symName: '__ZN4core3ptr117drop_in_place$LT$std..sync..poison..mutex..Mutex$LT$alloc..vec..Vec$LT$gcrust_rt..gc..thread..SiteCounter$GT$$GT$$GT$17h01227fc95370019bE', symObjAddr: 0x2328, symBinAddr: 0x1000045B4, symSize: 0x60 }
  - { offset: 0x6CAE, size: 0x8, addend: 0x0, symName: '__ZN4core3ptr118drop_in_place$LT$alloc..boxed..Box$LT$dyn$u20$core..error..Error$u2b$core..marker..Sync$u2b$core..marker..Send$GT$$GT$17h77daab36f12bcf62E', symObjAddr: 0x2388, symBinAddr: 0x100004614, symSize: 0x80 }
  - { offset: 0x6CDD, size: 0x8, addend: 0x0, symName: '__ZN4core3ptr118drop_in_place$LT$alloc..vec..into_iter..IntoIter$LT$alloc..sync..Arc$LT$gcrust_rt..gc..thread..ThreadState$GT$$GT$$GT$17hd4e8243983832139E', symObjAddr: 0x2408, symBinAddr: 0x100004694, symSize: 0x24 }
  - { offset: 0x6D0C, size: 0x8, addend: 0x0, symName: '__ZN4core3ptr118drop_in_place$LT$core..slice..sort..stable..merge..MergeState$LT$$LP$$RF$alloc..string..String$C$$RF$usize$RP$$GT$$GT$17h38c682c3a6a81524E', symObjAddr: 0x242C, symBinAddr: 0x1000046B8, symSize: 0x24 }
  - { offset: 0x6D3B, size: 0x8, addend: 0x0, symName: '__ZN4core3ptr118drop_in_place$LT$core..slice..sort..stable..merge..MergeState$LT$$LP$alloc..string..String$C$usize$C$usize$RP$$GT$$GT$17h923561eab808c1f1E', symObjAddr: 0x2450, symBinAddr: 0x1000046DC, symSize: 0x24 }
  - { offset: 0x6D6A, size: 0x8, addend: 0x0, symName: '__ZN4core3ptr118drop_in_place$LT$std..sync..poison..mutex..Mutex$LT$alloc..vec..Vec$LT$gcrust_rt..gc..statemap..TraceEvent$GT$$GT$$GT$17h63531ddd79590f3aE', symObjAddr: 0x2474, symBinAddr: 0x100004700, symSize: 0x60 }
  - { offset: 0x6D99, size: 0x8, addend: 0x0, symName: '__ZN4core3ptr120drop_in_place$LT$std..sync..poison..mutex..Mutex$LT$alloc..vec..Vec$LT$core..sync..atomic..Atomic$LT$u64$GT$$GT$$GT$$GT$17h28c7b4b8b2981717E', symObjAddr: 0x24D4, symBinAddr: 0x100004760, symSize: 0x60 }
  - { offset: 0x6DC8, size: 0x8, addend: 0x0, symName: '__ZN4core3ptr122drop_in_place$LT$core..hint..select_unpredictable..DropOnPanic$LT$$BP$const$u20$gcrust_rt..gc..heap..AllocSiteStat$GT$$GT$17hd1de9398044cdcfbE', symObjAddr: 0x2534, symBinAddr: 0x1000047C0, symSize: 0x24 }
  - { offset: 0x6DF7, size: 0x8, addend: 0x0, symName: '__ZN4core3ptr122drop_in_place$LT$core..slice..sort..shared..smallsort..CopyOnDrop$LT$$LP$$RF$alloc..string..String$C$$RF$usize$RP$$GT$$GT$17h388120cab448b512E', symObjAddr: 0x2558, symBinAddr: 0x1000047E4, symSize: 0x24 }
  - { offset: 0x6E26, size: 0x8, addend: 0x0, symName: '__ZN4core3ptr122drop_in_place$LT$core..slice..sort..shared..smallsort..CopyOnDrop$LT$$LP$alloc..string..String$C$usize$C$usize$RP$$GT$$GT$17hcb7aee55c5d90ba0E', symObjAddr: 0x257C, symBinAddr: 0x100004808, symSize: 0x24 }
  - { offset: 0x6E55, size: 0x8, addend: 0x0, symName: '__ZN4core3ptr122drop_in_place$LT$std..sync..poison..mutex..MutexGuard$LT$alloc..vec..Vec$LT$gcrust_rt..gc..thread..SiteCounter$GT$$GT$$GT$17h33758bf5c0ceadd1E', symObjAddr: 0x25A0, symBinAddr: 0x10000482C, symSize: 0x24 }
  - { offset: 0x6E84, size: 0x8, addend: 0x0, symName: '__ZN4core3ptr123drop_in_place$LT$core..hint..select_unpredictable..DropOnPanic$LT$$BP$const$u20$gcrust_rt..gc..statemap..TraceEvent$GT$$GT$17h2a48601ccd1afb74E', symObjAddr: 0x25C4, symBinAddr: 0x100004850, symSize: 0x24 }
  - { offset: 0x6EB3, size: 0x8, addend: 0x0, symName: '__ZN4core3ptr123drop_in_place$LT$std..sync..poison..mutex..MutexGuard$LT$alloc..vec..Vec$LT$gcrust_rt..gc..statemap..TraceEvent$GT$$GT$$GT$17hf3df684ee2f0aadfE', symObjAddr: 0x25E8, symBinAddr: 0x100004874, symSize: 0x24 }
  - { offset: 0x6EE2, size: 0x8, addend: 0x0, symName: '__ZN4core3ptr125drop_in_place$LT$alloc..vec..in_place_drop..InPlaceDrop$LT$alloc..sync..Arc$LT$gcrust_rt..gc..thread..ThreadState$GT$$GT$$GT$17hf83d59a4e83ad6abE', symObjAddr: 0x260C, symBinAddr: 0x100004898, symSize: 0x24 }
  - { offset: 0x6F11, size: 0x8, addend: 0x0, symName: '__ZN4core3ptr125drop_in_place$LT$core..result..Result$LT$u64$C$alloc..boxed..Box$LT$dyn$u20$core..any..Any$u2b$core..marker..Send$GT$$GT$$GT$17h4f63ec05dbf1c4e1E', symObjAddr: 0x2630, symBinAddr: 0x1000048BC, symSize: 0x44 }
  - { offset: 0x6F40, size: 0x8, addend: 0x0, symName: '__ZN4core3ptr125drop_in_place$LT$std..sync..poison..mutex..MutexGuard$LT$alloc..vec..Vec$LT$core..sync..atomic..Atomic$LT$u64$GT$$GT$$GT$$GT$17h3b752778cf37fd15E', symObjAddr: 0x2674, symBinAddr: 0x100004900, symSize: 0x24 }
  - { offset: 0x6F6F, size: 0x8, addend: 0x0, symName: '__ZN4core3ptr126drop_in_place$LT$core..iter..adapters..fuse..Fuse$LT$alloc..vec..into_iter..IntoIter$LT$alloc..vec..Vec$LT$u64$GT$$GT$$GT$$GT$17he9597ef11e30982aE', symObjAddr: 0x2698, symBinAddr: 0x100004924, symSize: 0x24 }
  - { offset: 0x6F9E, size: 0x8, addend: 0x0, symName: '__ZN4core3ptr127drop_in_place$LT$core..cell..UnsafeCell$LT$std..collections..hash..map..HashMap$LT$$u5b$u8$u3b$$u20$32$u5d$$C$usize$GT$$GT$$GT$17h42ab7bbf61e2ef07E', symObjAddr: 0x26BC, symBinAddr: 0x100004948, symSize: 0x24 }
  - { offset: 0x6FCD, size: 0x8, addend: 0x0, symName: '__ZN4core3ptr128drop_in_place$LT$core..cell..UnsafeCell$LT$alloc..vec..Vec$LT$$BP$const$u20$dyn$u20$gcrust_rt..gc..roots..RootSource$GT$$GT$$GT$17h4eba63ecc14a8f63E', symObjAddr: 0x26E0, symBinAddr: 0x10000496C, symSize: 0x24 }
  - { offset: 0x6FFC, size: 0x8, addend: 0x0, symName: '__ZN4core3ptr129drop_in_place$LT$dyn$u20$core..ops..function..FnOnce$LT$$LP$$RP$$GT$$u2b$Output$u20$$u3d$$u20$$LP$$RP$$u2b$core..marker..Send$GT$17hc8f429ac1f576564E', symObjAddr: 0x2704, symBinAddr: 0x100004990, symSize: 0x48 }
  - { offset: 0x702B, size: 0x8, addend: 0x0, symName: '__ZN4core3ptr130drop_in_place$LT$core..result..Result$LT$$LP$$RP$$C$alloc..boxed..Box$LT$dyn$u20$core..any..Any$u2b$core..marker..Send$GT$$GT$$GT$17h0355c4771050e037E', symObjAddr: 0x274C, symBinAddr: 0x1000049D8, symSize: 0x44 }
  - { offset: 0x705A, size: 0x8, addend: 0x0, symName: '__ZN4core3ptr130drop_in_place$LT$hashbrown..map..HashMap$LT$alloc..string..String$C$$LP$usize$C$usize$RP$$C$std..hash..random..RandomState$GT$$GT$17h964b9ba762ada3aaE', symObjAddr: 0x2790, symBinAddr: 0x100004A1C, symSize: 0x24 }
  - { offset: 0x7089, size: 0x8, addend: 0x0, symName: '__ZN4core3ptr132drop_in_place$LT$core..cell..UnsafeCell$LT$alloc..vec..Vec$LT$alloc..sync..Arc$LT$gcrust_rt..gc..thread..ThreadState$GT$$GT$$GT$$GT$17h20d5b6b81caa83a7E', symObjAddr: 0x27B4, symBinAddr: 0x100004A40, symSize: 0x24 }
  - { offset: 0x70B8, size: 0x8, addend: 0x0, symName: '__ZN4core3ptr132drop_in_place$LT$core..iter..adapters..flatten..Flatten$LT$alloc..vec..into_iter..IntoIter$LT$alloc..vec..Vec$LT$u64$GT$$GT$$GT$$GT$17hf782141626776f7bE', symObjAddr: 0x27D8, symBinAddr: 0x100004A64, symSize: 0x24 }
  - { offset: 0x70E7, size: 0x8, addend: 0x0, symName: '__ZN4core3ptr132drop_in_place$LT$std..sync..poison..PoisonError$LT$std..sync..poison..mutex..MutexGuard$LT$gcrust_rt..runtime..ChanState$GT$$GT$$GT$17h2d826a1c27d42805E', symObjAddr: 0x27FC, symBinAddr: 0x100004A88, symSize: 0x24 }
  - { offset: 0x7116, size: 0x8, addend: 0x0, symName: '__ZN4core3ptr133drop_in_place$LT$core..hint..select_unpredictable..DropOnPanic$LT$$BP$const$u20$$LP$$RF$alloc..string..String$C$$RF$usize$RP$$GT$$GT$17h9dd11fb7a508fa54E', symObjAddr: 0x2820, symBinAddr: 0x100004AAC, symSize: 0x24 }
  - { offset: 0x7145, size: 0x8, addend: 0x0, symName: '__ZN4core3ptr133drop_in_place$LT$core..hint..select_unpredictable..DropOnPanic$LT$$BP$const$u20$$LP$alloc..string..String$C$usize$C$usize$RP$$GT$$GT$17hc10bfa0af3c2c743E', symObjAddr: 0x2844, symBinAddr: 0x100004AD0, symSize: 0x24 }
  - { offset: 0x7174, size: 0x8, addend: 0x0, symName: '__ZN4core3ptr135drop_in_place$LT$core..option..Option$LT$core..pin..Pin$LT$alloc..boxed..Box$LT$std..sys..pal..unix..sync..mutex..Mutex$GT$$GT$$GT$$GT$17hd038e993d45a19b7E', symObjAddr: 0x2868, symBinAddr: 0x100004AF4, symSize: 0x44 }
  - { offset: 0x71A3, size: 0x8, addend: 0x0, symName: '__ZN4core3ptr136drop_in_place$LT$std..sync..poison..mutex..Mutex$LT$std..collections..hash..map..HashMap$LT$$u5b$u8$u3b$$u20$32$u5d$$C$usize$GT$$GT$$GT$17h329cee97158b6f82E', symObjAddr: 0x28AC, symBinAddr: 0x100004B38, symSize: 0x60 }
  - { offset: 0x71D2, size: 0x8, addend: 0x0, symName: '__ZN4core3ptr137drop_in_place$LT$std..sync..poison..mutex..Mutex$LT$alloc..vec..Vec$LT$$BP$const$u20$dyn$u20$gcrust_rt..gc..roots..RootSource$GT$$GT$$GT$17hcb7f7e40885baca8E', symObjAddr: 0x290C, symBinAddr: 0x100004B98, symSize: 0x60 }
  - { offset: 0x7201, size: 0x8, addend: 0x0, symName: '__ZN4core3ptr139drop_in_place$LT$core..option..Option$LT$core..pin..Pin$LT$alloc..boxed..Box$LT$std..sys..pal..unix..sync..condvar..Condvar$GT$$GT$$GT$$GT$17h57f7e5c0e818413dE', symObjAddr: 0x296C, symBinAddr: 0x100004BF8, symSize: 0x44 }
  - { offset: 0x7230, size: 0x8, addend: 0x0, symName: '__ZN4core3ptr141drop_in_place$LT$std..sync..poison..mutex..Mutex$LT$alloc..vec..Vec$LT$alloc..sync..Arc$LT$gcrust_rt..gc..thread..ThreadState$GT$$GT$$GT$$GT$17hba50f7df4b6e6535E', symObjAddr: 0x29B0, symBinAddr: 0x100004C3C, symSize: 0x60 }
  - { offset: 0x725F, size: 0x8, addend: 0x0, symName: '__ZN4core3ptr142drop_in_place$LT$std..sync..poison..mutex..MutexGuard$LT$alloc..vec..Vec$LT$$BP$const$u20$dyn$u20$gcrust_rt..gc..roots..RootSource$GT$$GT$$GT$17hc9eec8d040d645b8E', symObjAddr: 0x2A10, symBinAddr: 0x100004C9C, symSize: 0x24 }
  - { offset: 0x728E, size: 0x8, addend: 0x0, symName: '__ZN4core3ptr146drop_in_place$LT$std..sync..poison..mutex..MutexGuard$LT$alloc..vec..Vec$LT$alloc..sync..Arc$LT$gcrust_rt..gc..thread..ThreadState$GT$$GT$$GT$$GT$17h0a76744f9812b0baE', symObjAddr: 0x2A34, symBinAddr: 0x100004CC0, symSize: 0x24 }
  - { offset: 0x72BD, size: 0x8, addend: 0x0, symName: '__ZN4core3ptr147drop_in_place$LT$std..thread..lifecycle..spawn_unchecked..MaybeDangling$LT$gcrust_rt..runtime..ai_thread_spawn..$u7b$$u7b$closure$u7d$$u7d$$GT$$GT$17h45e2e8ba17dcb78bE', symObjAddr: 0x2A58, symBinAddr: 0x100004CE4, symSize: 0x24 }
  - { offset: 0x72EC, size: 0x8, addend: 0x0, symName: '__ZN4core3ptr152drop_in_place$LT$std..sync..poison..PoisonError$LT$std..sync..poison..mutex..MutexGuard$LT$alloc..vec..Vec$LT$alloc..vec..Vec$LT$u64$GT$$GT$$GT$$GT$$GT$17h9f707d0571c5dc78E', symObjAddr: 0x2A7C, symBinAddr: 0x100004D08, symSize: 0x24 }
  - { offset: 0x731B, size: 0x8, addend: 0x0, symName: '__ZN4core3ptr153drop_in_place$LT$core..option..Option$LT$core..result..Result$LT$u64$C$alloc..boxed..Box$LT$dyn$u20$core..any..Any$u2b$core..marker..Send$GT$$GT$$GT$$GT$17h7c20948788de5108E', symObjAddr: 0x2AA0, symBinAddr: 0x100004D2C, symSize: 0x40 }
  - { offset: 0x734A, size: 0x8, addend: 0x0, symName: '__ZN4core3ptr154drop_in_place$LT$alloc..boxed..Box$LT$dyn$u20$core..ops..function..FnOnce$LT$$LP$$RP$$GT$$u2b$Output$u20$$u3d$$u20$$LP$$RP$$u2b$core..marker..Send$GT$$GT$17h372dfe743d984af6E', symObjAddr: 0x2AE0, symBinAddr: 0x100004D6C, symSize: 0x80 }
  - { offset: 0x7379, size: 0x8, addend: 0x0, symName: '__ZN4core3ptr154drop_in_place$LT$std..sync..poison..PoisonError$LT$std..sync..poison..mutex..MutexGuard$LT$alloc..vec..Vec$LT$gcrust_rt..gc..heap..GcEvent$GT$$GT$$GT$$GT$17h95458a0c45a63292E', symObjAddr: 0x2B60, symBinAddr: 0x100004DEC, symSize: 0x24 }
  - { offset: 0x73A8, size: 0x8, addend: 0x0, symName: '__ZN4core3ptr157drop_in_place$LT$$LT$alloc..vec..into_iter..IntoIter$LT$T$C$A$GT$$u20$as$u20$core..ops..drop..Drop$GT$..drop..DropGuard$LT$u64$C$alloc..alloc..Global$GT$$GT$17hacb302bdfc5780d9E', symObjAddr: 0x2B84, symBinAddr: 0x100004E10, symSize: 0x24 }
  - { offset: 0x73D7, size: 0x8, addend: 0x0, symName: '__ZN4core3ptr160drop_in_place$LT$std..sync..poison..PoisonError$LT$std..sync..poison..mutex..MutexGuard$LT$alloc..vec..Vec$LT$gcrust_rt..gc..thread..SiteCounter$GT$$GT$$GT$$GT$17h16dd81334d06577aE', symObjAddr: 0x2BA8, symBinAddr: 0x100004E34, symSize: 0x24 }
  - { offset: 0x7406, size: 0x8, addend: 0x0, symName: '__ZN4core3ptr161drop_in_place$LT$std..sync..poison..PoisonError$LT$std..sync..poison..mutex..MutexGuard$LT$alloc..vec..Vec$LT$gcrust_rt..gc..statemap..TraceEvent$GT$$GT$$GT$$GT$17h23a9fb710a642495E', symObjAddr: 0x2BCC, symBinAddr: 0x100004E58, symSize: 0x24 }
  - { offset: 0x7435, size: 0x8, addend: 0x0, symName: '__ZN4core3ptr163drop_in_place$LT$std..sync..poison..PoisonError$LT$std..sync..poison..mutex..MutexGuard$LT$alloc..vec..Vec$LT$core..sync..atomic..Atomic$LT$u64$GT$$GT$$GT$$GT$$GT$17h869b3ca13482aeaeE', symObjAddr: 0x2BF0, symBinAddr: 0x100004E7C, symSize: 0x24 }
  - { offset: 0x7464, size: 0x8, addend: 0x0, symName: '__ZN4core3ptr164drop_in_place$LT$$u5b$alloc..boxed..Box$LT$dyn$u20$core..ops..function..FnOnce$LT$$LP$$RP$$GT$$u2b$Output$u20$$u3d$$u20$$LP$$RP$$u2b$core..marker..Send$GT$$u5d$$GT$17h899caf4f56bd18faE', symObjAddr: 0x2C14, symBinAddr: 0x100004EA0, symSize: 0xB4 }
  - { offset: 0x7493, size: 0x8, addend: 0x0, symName: '__ZN4core3ptr167drop_in_place$LT$std..thread..lifecycle..spawn_unchecked$LT$gcrust_rt..runtime..ai_thread_spawn..$u7b$$u7b$closure$u7d$$u7d$$C$u64$GT$..$u7b$$u7b$closure$u7d$$u7d$$GT$17hce60f5fbe2e2e53bE', symObjAddr: 0x2CC8, symBinAddr: 0x100004F54, symSize: 0x8C }
  - { offset: 0x74C2, size: 0x8, addend: 0x0, symName: '__ZN4core3ptr177drop_in_place$LT$alloc..vec..Vec$LT$alloc..boxed..Box$LT$dyn$u20$core..ops..function..FnOnce$LT$$LP$$RP$$GT$$u2b$Output$u20$$u3d$$u20$$LP$$RP$$u2b$core..marker..Send$GT$$GT$$GT$17h693a97cfb5f3e4a8E', symObjAddr: 0x2D54, symBinAddr: 0x100004FE0, symSize: 0x5C }
  - { offset: 0x74F1, size: 0x8, addend: 0x0, symName: '__ZN4core3ptr180drop_in_place$LT$$LT$alloc..vec..into_iter..IntoIter$LT$T$C$A$GT$$u20$as$u20$core..ops..drop..Drop$GT$..drop..DropGuard$LT$alloc..vec..Vec$LT$u64$GT$$C$alloc..alloc..Global$GT$$GT$17hd802f6531791ec74E', symObjAddr: 0x2DB0, symBinAddr: 0x10000503C, symSize: 0x24 }
  - { offset: 0x7520, size: 0x8, addend: 0x0, symName: '__ZN4core3ptr180drop_in_place$LT$std..sync..poison..PoisonError$LT$std..sync..poison..mutex..MutexGuard$LT$alloc..vec..Vec$LT$$BP$const$u20$dyn$u20$gcrust_rt..gc..roots..RootSource$GT$$GT$$GT$$GT$17h01e1096d4fcfd794E', symObjAddr: 0x2DD4, symBinAddr: 0x100005060, symSize: 0x24 }
  - { offset: 0x754F, size: 0x8, addend: 0x0, symName: '__ZN4core3ptr181drop_in_place$LT$hashbrown..scopeguard..ScopeGuard$LT$$RF$mut$u20$hashbrown..raw..RawTableInner$C$hashbrown..raw..RawTableInner..rehash_in_place..$u7b$$u7b$closure$u7d$$u7d$$GT$$GT$17h496610477136a1bdE', symObjAddr: 0x2DF8, symBinAddr: 0x100005084, symSize: 0x24 }
  - { offset: 0x757E, size: 0x8, addend: 0x0, symName: '__ZN4core3ptr182drop_in_place$LT$$LT$alloc..vec..into_iter..IntoIter$LT$T$C$A$GT$$u20$as$u20$core..ops..drop..Drop$GT$..drop..DropGuard$LT$gcrust_rt..gc..heap..GcEvent$C$alloc..alloc..Global$GT$$GT$17h324992cb2bf16bf1E', symObjAddr: 0x2E1C, symBinAddr: 0x1000050A8, symSize: 0x24 }
  - { offset: 0x75AD, size: 0x8, addend: 0x0, symName: '__ZN4core3ptr182drop_in_place$LT$alloc..vec..Vec$LT$usize$GT$..extend_trusted$LT$core..iter..adapters..copied..Copied$LT$core..slice..iter..Iter$LT$usize$GT$$GT$$GT$..$u7b$$u7b$closure$u7d$$u7d$$GT$17hc222e19334f3ba56E', symObjAddr: 0x2E40, symBinAddr: 0x1000050CC, symSize: 0x24 }
  - { offset: 0x75DC, size: 0x8, addend: 0x0, symName: '__ZN4core3ptr183drop_in_place$LT$core..cell..UnsafeCell$LT$core..option..Option$LT$core..result..Result$LT$u64$C$alloc..boxed..Box$LT$dyn$u20$core..any..Any$u2b$core..marker..Send$GT$$GT$$GT$$GT$$GT$17h8e274c44f1a803a4E', symObjAddr: 0x2E64, symBinAddr: 0x1000050F0, symSize: 0x24 }
  - { offset: 0x760B, size: 0x8, addend: 0x0, symName: '__ZN4core3ptr183drop_in_place$LT$core..iter..adapters..flatten..FlattenCompat$LT$alloc..vec..into_iter..IntoIter$LT$alloc..vec..Vec$LT$u64$GT$$GT$$C$alloc..vec..into_iter..IntoIter$LT$u64$GT$$GT$$GT$17hdf35b9ee34c05bb2E', symObjAddr: 0x2E88, symBinAddr: 0x100005114, symSize: 0x90 }
  - { offset: 0x763A, size: 0x8, addend: 0x0, symName: '__ZN4core3ptr184drop_in_place$LT$alloc..raw_vec..RawVec$LT$alloc..boxed..Box$LT$dyn$u20$core..ops..function..FnOnce$LT$$LP$$RP$$GT$$u2b$Output$u20$$u3d$$u20$$LP$$RP$$u2b$core..marker..Send$GT$$GT$$GT$17h0d413271d83d89e6E', symObjAddr: 0x2F18, symBinAddr: 0x1000051A4, symSize: 0x24 }
  - { offset: 0x7669, size: 0x8, addend: 0x0, symName: '__ZN4core3ptr184drop_in_place$LT$std..sync..poison..PoisonError$LT$std..sync..poison..mutex..MutexGuard$LT$alloc..vec..Vec$LT$alloc..sync..Arc$LT$gcrust_rt..gc..thread..ThreadState$GT$$GT$$GT$$GT$$GT$17hd7223870eebbc603E', symObjAddr: 0x2F3C, symBinAddr: 0x1000051C8, symSize: 0x24 }
  - { offset: 0x7698, size: 0x8, addend: 0x0, symName: '__ZN4core3ptr192drop_in_place$LT$$LT$T$u20$as$u20$alloc..slice..$LT$impl$u20$$u5b$T$u5d$$GT$..to_vec_in..ConvertVec$GT$..to_vec..DropGuard$LT$gcrust_rt..gc..statemap..TraceEvent$C$alloc..alloc..Global$GT$$GT$17h968a5f6fb5003f18E', symObjAddr: 0x2F60, symBinAddr: 0x1000051EC, symSize: 0x24 }
  - { offset: 0x76C7, size: 0x8, addend: 0x0, symName: '__ZN4core3ptr196drop_in_place$LT$hashbrown..scopeguard..ScopeGuard$LT$hashbrown..raw..RawTableInner$C$hashbrown..raw..RawTableInner..prepare_resize$LT$alloc..alloc..Global$GT$..$u7b$$u7b$closure$u7d$$u7d$$GT$$GT$17hf7a8710468f4063aE', symObjAddr: 0x2F84, symBinAddr: 0x100005210, symSize: 0x24 }
  - { offset: 0x76F6, size: 0x8, addend: 0x0, symName: '__ZN4core3ptr199drop_in_place$LT$alloc..vec..in_place_drop..InPlaceDstDataSrcBufDrop$LT$alloc..sync..Arc$LT$gcrust_rt..gc..thread..ThreadState$GT$$C$alloc..sync..Arc$LT$gcrust_rt..gc..thread..ThreadState$GT$$GT$$GT$17h14b218116fa624e5E', symObjAddr: 0x2FA8, symBinAddr: 0x100005234, symSize: 0x24 }
  - { offset: 0x7725, size: 0x8, addend: 0x0, symName: '__ZN4core3ptr212drop_in_place$LT$$LT$alloc..vec..into_iter..IntoIter$LT$T$C$A$GT$$u20$as$u20$core..ops..drop..Drop$GT$..drop..DropGuard$LT$alloc..sync..Arc$LT$gcrust_rt..gc..thread..ThreadState$GT$$C$alloc..alloc..Global$GT$$GT$17hee43b0aa793ef387E', symObjAddr: 0x2FCC, symBinAddr: 0x100005258, symSize: 0x24 }
  - { offset: 0x7754, size: 0x8, addend: 0x0, symName: '__ZN4core3ptr215drop_in_place$LT$$LT$T$u20$as$u20$alloc..slice..$LT$impl$u20$$u5b$T$u5d$$GT$..to_vec_in..ConvertVec$GT$..to_vec..DropGuard$LT$alloc..sync..Arc$LT$gcrust_rt..gc..thread..ThreadState$GT$$C$alloc..alloc..Global$GT$$GT$17he6ac2c7bfd61ed4eE', symObjAddr: 0x2FF0, symBinAddr: 0x10000527C, symSize: 0x24 }
  - { offset: 0x7783, size: 0x8, addend: 0x0, symName: '__ZN4core3ptr216drop_in_place$LT$core..iter..adapters..map..Map$LT$std..collections..hash..map..IntoIter$LT$alloc..string..String$C$$LP$usize$C$usize$RP$$GT$$C$gcrust_rt..gc..dump..dump_heap_json..$u7b$$u7b$closure$u7d$$u7d$$GT$$GT$17h645393a89001b240E', symObjAddr: 0x3014, symBinAddr: 0x1000052A0, symSize: 0x24 }
  - { offset: 0x77B2, size: 0x8, addend: 0x0, symName: '__ZN4core3ptr220drop_in_place$LT$alloc..vec..Vec$LT$usize$GT$..extend_trusted$LT$core..iter..adapters..copied..Copied$LT$core..iter..adapters..rev..Rev$LT$core..slice..iter..Iter$LT$usize$GT$$GT$$GT$$GT$..$u7b$$u7b$closure$u7d$$u7d$$GT$17he62c128db10ff6edE', symObjAddr: 0x3038, symBinAddr: 0x1000052C4, symSize: 0x24 }
  - { offset: 0x77E1, size: 0x8, addend: 0x0, symName: '__ZN4core3ptr232drop_in_place$LT$core..iter..adapters..filter..Filter$LT$alloc..vec..into_iter..IntoIter$LT$alloc..sync..Arc$LT$gcrust_rt..gc..thread..ThreadState$GT$$GT$$C$gcrust_rt..gc..heap..Heap..pause_world..$u7b$$u7b$closure$u7d$$u7d$$GT$$GT$17hd1dc2d2ed5cd467bE', symObjAddr: 0x305C, symBinAddr: 0x1000052E8, symSize: 0x24 }
  - { offset: 0x7810, size: 0x8, addend: 0x0, symName: '__ZN4core3ptr236drop_in_place$LT$alloc..vec..Vec$LT$u16$GT$..extend_trusted$LT$core..iter..adapters..map..Map$LT$core..ops..range..Range$LT$usize$GT$$C$gcrust_rt..gc..reflect..decode..$u7b$$u7b$closure$u7d$$u7d$$GT$$GT$..$u7b$$u7b$closure$u7d$$u7d$$GT$17hc885e59079fa1999E', symObjAddr: 0x3080, symBinAddr: 0x10000530C, symSize: 0x24 }
  - { offset: 0x783F, size: 0x8, addend: 0x0, symName: '__ZN4core3ptr236drop_in_place$LT$core..result..Result$LT$alloc..vec..Vec$LT$gcrust_rt..gc..heap..GcEvent$GT$$C$std..sync..poison..PoisonError$LT$std..sync..poison..mutex..MutexGuard$LT$alloc..vec..Vec$LT$gcrust_rt..gc..heap..GcEvent$GT$$GT$$GT$$GT$$GT$17h18368cc3fa71fb86E', symObjAddr: 0x30A4, symBinAddr: 0x100005330, symSize: 0x5C }
  - { offset: 0x786E, size: 0x8, addend: 0x0, symName: '__ZN4core3ptr248drop_in_place$LT$alloc..vec..Vec$LT$$LP$usize$C$usize$RP$$GT$..extend_trusted$LT$core..iter..adapters..enumerate..Enumerate$LT$core..iter..adapters..copied..Copied$LT$core..slice..iter..Iter$LT$usize$GT$$GT$$GT$$GT$..$u7b$$u7b$closure$u7d$$u7d$$GT$17h13b5696453d1655dE', symObjAddr: 0x3100, symBinAddr: 0x10000538C, symSize: 0x24 }
  - { offset: 0x789D, size: 0x8, addend: 0x0, symName: '__ZN4core3ptr259drop_in_place$LT$alloc..vec..Vec$LT$$LP$usize$C$usize$RP$$GT$..extend_trusted$LT$core..iter..adapters..map..Map$LT$core..slice..iter..Iter$LT$usize$GT$$C$gcrust_rt..gc..dump..dump_heap_json..$u7b$$u7b$closure$u7d$$u7d$$GT$$GT$..$u7b$$u7b$closure$u7d$$u7d$$GT$17ha42a6bd44a51bdb1E', symObjAddr: 0x3124, symBinAddr: 0x1000053B0, symSize: 0x24 }
  - { offset: 0x78CC, size: 0x8, addend: 0x0, symName: '__ZN4core3ptr259drop_in_place$LT$alloc..vec..Vec$LT$alloc..string..String$GT$..extend_trusted$LT$core..iter..adapters..map..Map$LT$core..slice..iter..Iter$LT$usize$GT$$C$gcrust_rt..gc..dump..dump_heap_json..$u7b$$u7b$closure$u7d$$u7d$$GT$$GT$..$u7b$$u7b$closure$u7d$$u7d$$GT$17h1ed01b4abe9b4361E', symObjAddr: 0x3148, symBinAddr: 0x1000053D4, symSize: 0x24 }
  - { offset: 0x78FB, size: 0x8, addend: 0x0, symName: '__ZN4core3ptr274drop_in_place$LT$alloc..vec..Vec$LT$gcrust_rt..gc..reflect..VariantMeta$GT$..extend_trusted$LT$core..iter..adapters..map..Map$LT$core..ops..range..Range$LT$usize$GT$$C$gcrust_rt..gc..reflect..Reader..kind..$u7b$$u7b$closure$u7d$$u7d$$GT$$GT$..$u7b$$u7b$closure$u7d$$u7d$$GT$17h307e63451c0c7393E', symObjAddr: 0x316C, symBinAddr: 0x1000053F8, symSize: 0x24 }
  - { offset: 0x792A, size: 0x8, addend: 0x0, symName: '__ZN4core3ptr278drop_in_place$LT$alloc..vec..Vec$LT$gcrust_rt..gc..reflect..FieldMeta$GT$..extend_trusted$LT$core..iter..adapters..map..Map$LT$core..ops..range..Range$LT$usize$GT$$C$gcrust_rt..gc..reflect..Reader..field_list..$u7b$$u7b$closure$u7d$$u7d$$GT$$GT$..$u7b$$u7b$closure$u7d$$u7d$$GT$17h245c4de41ce33cb3E', symObjAddr: 0x3190, symBinAddr: 0x10000541C, symSize: 0x24 }
  - { offset: 0x7959, size: 0x8, addend: 0x0, symName: '__ZN4core3ptr280drop_in_place$LT$core..result..Result$LT$std..sync..poison..mutex..MutexGuard$LT$alloc..vec..Vec$LT$gcrust_rt..gc..heap..GcEvent$GT$$GT$$C$std..sync..poison..PoisonError$LT$std..sync..poison..mutex..MutexGuard$LT$alloc..vec..Vec$LT$gcrust_rt..gc..heap..GcEvent$GT$$GT$$GT$$GT$$GT$17h6adf90b8bdc66a05E', symObjAddr: 0x31B4, symBinAddr: 0x100005440, symSize: 0x50 }
  - { offset: 0x7988, size: 0x8, addend: 0x0, symName: '__ZN4core3ptr281drop_in_place$LT$core..iter..traits..iterator..Iterator..for_each..call$LT$usize$C$alloc..vec..Vec$LT$usize$GT$..extend_trusted$LT$core..iter..adapters..copied..Copied$LT$core..slice..iter..Iter$LT$usize$GT$$GT$$GT$..$u7b$$u7b$closure$u7d$$u7d$$GT$..$u7b$$u7b$closure$u7d$$u7d$$GT$17h16965dcffd13a5a4E', symObjAddr: 0x3204, symBinAddr: 0x100005490, symSize: 0x24 }
  - { offset: 0x79B7, size: 0x8, addend: 0x0, symName: '__ZN4core3ptr288drop_in_place$LT$alloc..vec..Vec$LT$alloc..sync..Arc$LT$gcrust_rt..gc..thread..ThreadState$GT$$GT$..extend_trusted$LT$core..iter..adapters..cloned..Cloned$LT$core..slice..iter..Iter$LT$alloc..sync..Arc$LT$gcrust_rt..gc..thread..ThreadState$GT$$GT$$GT$$GT$..$u7b$$u7b$closure$u7d$$u7d$$GT$17h25e1d0c89aeb6a9bE', symObjAddr: 0x3228, symBinAddr: 0x1000054B4, symSize: 0x24 }
  - { offset: 0x79E6, size: 0x8, addend: 0x0, symName: '__ZN4core3ptr299drop_in_place$LT$alloc..vec..Vec$LT$alloc..string..String$GT$..extend_trusted$LT$core..iter..adapters..map..Map$LT$core..slice..iter..Iter$LT$$LP$$RF$alloc..string..String$C$$RF$usize$RP$$GT$$C$gcrust_rt..gc..dump..dump_heap_text..$u7b$$u7b$closure$u7d$$u7d$$GT$$GT$..$u7b$$u7b$closure$u7d$$u7d$$GT$17h169085dd96f4e462E', symObjAddr: 0x324C, symBinAddr: 0x1000054D8, symSize: 0x24 }
  - { offset: 0x7A15, size: 0x8, addend: 0x0, symName: '__ZN4core3ptr319drop_in_place$LT$core..iter..traits..iterator..Iterator..for_each..call$LT$usize$C$alloc..vec..Vec$LT$usize$GT$..extend_trusted$LT$core..iter..adapters..copied..Copied$LT$core..iter..adapters..rev..Rev$LT$core..slice..iter..Iter$LT$usize$GT$$GT$$GT$$GT$..$u7b$$u7b$closure$u7d$$u7d$$GT$..$u7b$$u7b$closure$u7d$$u7d$$GT$17h0fc99ea9e5eb839cE', symObjAddr: 0x3270, symBinAddr: 0x1000054FC, symSize: 0x24 }
  - { offset: 0x7A44, size: 0x8, addend: 0x0, symName: '__ZN4core3ptr333drop_in_place$LT$core..iter..traits..iterator..Iterator..for_each..call$LT$u16$C$alloc..vec..Vec$LT$u16$GT$..extend_trusted$LT$core..iter..adapters..map..Map$LT$core..ops..range..Range$LT$usize$GT$$C$gcrust_rt..gc..reflect..decode..$u7b$$u7b$closure$u7d$$u7d$$GT$$GT$..$u7b$$u7b$closure$u7d$$u7d$$GT$..$u7b$$u7b$closure$u7d$$u7d$$GT$17hf6965d278c9e7f34E', symObjAddr: 0x3294, symBinAddr: 0x100005520, symSize: 0x24 }
  - { offset: 0x7A73, size: 0x8, addend: 0x0, symName: '__ZN4core3ptr347drop_in_place$LT$alloc..vec..Vec$LT$gcrust_rt..gc..type_info..TypeInfo$GT$..extend_trusted$LT$core..iter..adapters..map..Map$LT$core..iter..adapters..enumerate..Enumerate$LT$core..slice..iter..Iter$LT$gcrust_rt..runtime..AotLayout$GT$$GT$$C$gcrust_rt..runtime..gcr_runtime_main..$u7b$$u7b$closure$u7d$$u7d$$GT$$GT$..$u7b$$u7b$closure$u7d$$u7d$$GT$17h37ca94a4638324afE', symObjAddr: 0x32B8, symBinAddr: 0x100005544, symSize: 0x24 }
  - { offset: 0x7AA2, size: 0x8, addend: 0x0, symName: '__ZN4core3ptr34drop_in_place$LT$std..fs..File$GT$17h06fea654b78061e4E', symObjAddr: 0x32DC, symBinAddr: 0x100005568, symSize: 0x24 }
  - { offset: 0x7AD1, size: 0x8, addend: 0x0, symName: '__ZN4core3ptr363drop_in_place$LT$core..iter..traits..iterator..Iterator..for_each..call$LT$$LP$usize$C$usize$RP$$C$alloc..vec..Vec$LT$$LP$usize$C$usize$RP$$GT$..extend_trusted$LT$core..iter..adapters..enumerate..Enumerate$LT$core..iter..adapters..copied..Copied$LT$core..slice..iter..Iter$LT$usize$GT$$GT$$GT$$GT$..$u7b$$u7b$closure$u7d$$u7d$$GT$..$u7b$$u7b$closure$u7d$$u7d$$GT$17h453b2c891bcaf07fE', symObjAddr: 0x3300, symBinAddr: 0x10000558C, symSize: 0x24 }
  - { offset: 0x7B00, size: 0x8, addend: 0x0, symName: '__ZN4core3ptr374drop_in_place$LT$core..iter..traits..iterator..Iterator..for_each..call$LT$$LP$usize$C$usize$RP$$C$alloc..vec..Vec$LT$$LP$usize$C$usize$RP$$GT$..extend_trusted$LT$core..iter..adapters..map..Map$LT$core..slice..iter..Iter$LT$usize$GT$$C$gcrust_rt..gc..dump..dump_heap_json..$u7b$$u7b$closure$u7d$$u7d$$GT$$GT$..$u7b$$u7b$closure$u7d$$u7d$$GT$..$u7b$$u7b$closure$u7d$$u7d$$GT$17h2e526a8b196d9ff6E', symObjAddr: 0x3324, symBinAddr: 0x1000055B0, symSize: 0x24 }
  - { offset: 0x7B2F, size: 0x8, addend: 0x0, symName: '__ZN4core3ptr374drop_in_place$LT$core..iter..traits..iterator..Iterator..for_each..call$LT$alloc..string..String$C$alloc..vec..Vec$LT$alloc..string..String$GT$..extend_trusted$LT$core..iter..adapters..map..Map$LT$core..slice..iter..Iter$LT$usize$GT$$C$gcrust_rt..gc..dump..dump_heap_json..$u7b$$u7b$closure$u7d$$u7d$$GT$$GT$..$u7b$$u7b$closure$u7d$$u7d$$GT$..$u7b$$u7b$closure$u7d$$u7d$$GT$17h7ef642e6a7ab8edbE', symObjAddr: 0x3348, symBinAddr: 0x1000055D4, symSize: 0x24 }
  - { offset: 0x7B5E, size: 0x8, addend: 0x0, symName: '__ZN4core3ptr376drop_in_place$LT$core..iter..adapters..copied..copy_fold$LT$usize$C$$LP$$RP$$C$core..iter..traits..iterator..Iterator..for_each..call$LT$usize$C$alloc..vec..Vec$LT$usize$GT$..extend_trusted$LT$core..iter..adapters..copied..Copied$LT$core..slice..iter..Iter$LT$usize$GT$$GT$$GT$..$u7b$$u7b$closure$u7d$$u7d$$GT$..$u7b$$u7b$closure$u7d$$u7d$$GT$..$u7b$$u7b$closure$u7d$$u7d$$GT$17h9e53242cb5ae9f53E', symObjAddr: 0x336C, symBinAddr: 0x1000055F8, symSize: 0x24 }
  - { offset: 0x7B8D, size: 0x8, addend: 0x0, symName: '__ZN4core3ptr39drop_in_place$LT$std..env..VarError$GT$17hc95e73c863b5ce41E', symObjAddr: 0x3390, symBinAddr: 0x10000561C, symSize: 0x48 }
  - { offset: 0x7BBC, size: 0x8, addend: 0x0, symName: '__ZN4core3ptr39drop_in_place$LT$std..path..PathBuf$GT$17h8d6a83b95b0e5a05E', symObjAddr: 0x33D8, symBinAddr: 0x100005664, symSize: 0x24 }
  - { offset: 0x7BEB, size: 0x8, addend: 0x0, symName: '__ZN4core3ptr403drop_in_place$LT$core..iter..traits..iterator..Iterator..for_each..call$LT$gcrust_rt..gc..reflect..VariantMeta$C$alloc..vec..Vec$LT$gcrust_rt..gc..reflect..VariantMeta$GT$..extend_trusted$LT$core..iter..adapters..map..Map$LT$core..ops..range..Range$LT$usize$GT$$C$gcrust_rt..gc..reflect..Reader..kind..$u7b$$u7b$closure$u7d$$u7d$$GT$$GT$..$u7b$$u7b$closure$u7d$$u7d$$GT$..$u7b$$u7b$closure$u7d$$u7d$$GT$17h11e4e3b4afb29a1dE', symObjAddr: 0x33FC, symBinAddr: 0x100005688, symSize: 0x24 }
  - { offset: 0x7C1A, size: 0x8, addend: 0x0, symName: '__ZN4core3ptr405drop_in_place$LT$core..iter..traits..iterator..Iterator..for_each..call$LT$gcrust_rt..gc..reflect..FieldMeta$C$alloc..vec..Vec$LT$gcrust_rt..gc..reflect..FieldMeta$GT$..extend_trusted$LT$core..iter..adapters..map..Map$LT$core..ops..range..Range$LT$usize$GT$$C$gcrust_rt..gc..reflect..Reader..field_list..$u7b$$u7b$closure$u7d$$u7d$$GT$$GT$..$u7b$$u7b$closure$u7d$$u7d$$GT$..$u7b$$u7b$closure$u7d$$u7d$$GT$17h576049cddce9a4c7E', symObjAddr: 0x3420, symBinAddr: 0x1000056AC, symSize: 0x24 }
  - { offset: 0x7C49, size: 0x8, addend: 0x0, symName: '__ZN4core3ptr414drop_in_place$LT$core..iter..adapters..copied..copy_fold$LT$usize$C$$LP$$RP$$C$core..iter..traits..iterator..Iterator..for_each..call$LT$usize$C$alloc..vec..Vec$LT$usize$GT$..extend_trusted$LT$core..iter..adapters..copied..Copied$LT$core..iter..adapters..rev..Rev$LT$core..slice..iter..Iter$LT$usize$GT$$GT$$GT$$GT$..$u7b$$u7b$closure$u7d$$u7d$$GT$..$u7b$$u7b$closure$u7d$$u7d$$GT$..$u7b$$u7b$closure$u7d$$u7d$$GT$17haa1ff99ce6f18786E', symObjAddr: 0x3444, symBinAddr: 0x1000056D0, symSize: 0x24 }
  - { offset: 0x7C78, size: 0x8, addend: 0x0, symName: '__ZN4core3ptr414drop_in_place$LT$core..iter..traits..iterator..Iterator..for_each..call$LT$alloc..string..String$C$alloc..vec..Vec$LT$alloc..string..String$GT$..extend_trusted$LT$core..iter..adapters..map..Map$LT$core..slice..iter..Iter$LT$$LP$$RF$alloc..string..String$C$$RF$usize$RP$$GT$$C$gcrust_rt..gc..dump..dump_heap_text..$u7b$$u7b$closure$u7d$$u7d$$GT$$GT$..$u7b$$u7b$closure$u7d$$u7d$$GT$..$u7b$$u7b$closure$u7d$$u7d$$GT$17hfb27de0692655b22E', symObjAddr: 0x3468, symBinAddr: 0x1000056F4, symSize: 0x24 }
  - { offset: 0x7CA7, size: 0x8, addend: 0x0, symName: '__ZN4core3ptr42drop_in_place$LT$alloc..string..String$GT$17ha535c23c67bef2a3E', symObjAddr: 0x348C, symBinAddr: 0x100005718, symSize: 0x24 }
  - { offset: 0x7CD6, size: 0x8, addend: 0x0, symName: '__ZN4core3ptr42drop_in_place$LT$std..io..error..Error$GT$17hf01becae0f1bb889E', symObjAddr: 0x34B0, symBinAddr: 0x10000573C, symSize: 0x24 }
  - { offset: 0x7D05, size: 0x8, addend: 0x0, symName: '__ZN4core3ptr43drop_in_place$LT$std..io..error..Custom$GT$17ha091f9972a66301dE', symObjAddr: 0x34D4, symBinAddr: 0x100005760, symSize: 0x24 }
  - { offset: 0x7D34, size: 0x8, addend: 0x0, symName: '__ZN4core3ptr440drop_in_place$LT$core..iter..traits..iterator..Iterator..for_each..call$LT$alloc..sync..Arc$LT$gcrust_rt..gc..thread..ThreadState$GT$$C$alloc..vec..Vec$LT$alloc..sync..Arc$LT$gcrust_rt..gc..thread..ThreadState$GT$$GT$..extend_trusted$LT$core..iter..adapters..cloned..Cloned$LT$core..slice..iter..Iter$LT$alloc..sync..Arc$LT$gcrust_rt..gc..thread..ThreadState$GT$$GT$$GT$$GT$..$u7b$$u7b$closure$u7d$$u7d$$GT$..$u7b$$u7b$closure$u7d$$u7d$$GT$17hb11f51f317c6b9caE', symObjAddr: 0x34F8, symBinAddr: 0x100005784, symSize: 0x24 }
  - { offset: 0x7D63, size: 0x8, addend: 0x0, symName: '__ZN4core3ptr45drop_in_place$LT$std..sys..fs..unix..File$GT$17ha3227d4e6c7785dfE', symObjAddr: 0x351C, symBinAddr: 0x1000057A8, symSize: 0x24 }
  - { offset: 0x7D92, size: 0x8, addend: 0x0, symName: '__ZN4core3ptr46drop_in_place$LT$alloc..vec..Vec$LT$u8$GT$$GT$17h122b20e8427bd310E', symObjAddr: 0x3540, symBinAddr: 0x1000057CC, symSize: 0x5C }
  - { offset: 0x7DC1, size: 0x8, addend: 0x0, symName: '__ZN4core3ptr46drop_in_place$LT$gcrust_rt..gc..dump..Node$GT$17h17fe25423dc94674E', symObjAddr: 0x359C, symBinAddr: 0x100005828, symSize: 0x24 }
  - { offset: 0x7DF0, size: 0x8, addend: 0x0, symName: '__ZN4core3ptr46drop_in_place$LT$gcrust_rt..gc..heap..Heap$GT$17h49bca69a3bd63fb2E', symObjAddr: 0x35C0, symBinAddr: 0x10000584C, symSize: 0x2FC }
  - { offset: 0x7E1F, size: 0x8, addend: 0x0, symName: '__ZN4core3ptr475drop_in_place$LT$core..iter..traits..iterator..Iterator..for_each..call$LT$gcrust_rt..gc..type_info..TypeInfo$C$alloc..vec..Vec$LT$gcrust_rt..gc..type_info..TypeInfo$GT$..extend_trusted$LT$core..iter..adapters..map..Map$LT$core..iter..adapters..enumerate..Enumerate$LT$core..slice..iter..Iter$LT$gcrust_rt..runtime..AotLayout$GT$$GT$$C$gcrust_rt..runtime..gcr_runtime_main..$u7b$$u7b$closure$u7d$$u7d$$GT$$GT$..$u7b$$u7b$closure$u7d$$u7d$$GT$..$u7b$$u7b$closure$u7d$$u7d$$GT$17h3e123da1ada38820E', symObjAddr: 0x38BC, symBinAddr: 0x100005B48, symSize: 0x24 }
  - { offset: 0x7E4E, size: 0x8, addend: 0x0, symName: '__ZN4core3ptr47drop_in_place$LT$alloc..vec..Vec$LT$u16$GT$$GT$17h463c324570051b74E', symObjAddr: 0x38E0, symBinAddr: 0x100005B6C, symSize: 0x5C }
  - { offset: 0x7E7D, size: 0x8, addend: 0x0, symName: '__ZN4core3ptr47drop_in_place$LT$alloc..vec..Vec$LT$u64$GT$$GT$17h76779bbe6e2b41f8E', symObjAddr: 0x393C, symBinAddr: 0x100005BC8, symSize: 0x5C }
  - { offset: 0x7EAC, size: 0x8, addend: 0x0, symName: '__ZN4core3ptr47drop_in_place$LT$std..ffi..os_str..OsString$GT$17h158452f2ea4f524fE', symObjAddr: 0x3998, symBinAddr: 0x100005C24, symSize: 0x24 }
  - { offset: 0x7EDB, size: 0x8, addend: 0x0, symName: '__ZN4core3ptr48drop_in_place$LT$alloc..vec..Vec$LT$bool$GT$$GT$17h6adef65704bfe22eE', symObjAddr: 0x39BC, symBinAddr: 0x100005C48, symSize: 0x5C }
  - { offset: 0x7F0A, size: 0x8, addend: 0x0, symName: '__ZN4core3ptr48drop_in_place$LT$std..os..fd..owned..OwnedFd$GT$17h5de5f44133e6eefcE', symObjAddr: 0x3A18, symBinAddr: 0x100005CA4, symSize: 0x24 }
  - { offset: 0x7F39, size: 0x8, addend: 0x0, symName: '__ZN4core3ptr48drop_in_place$LT$std..thread..thread..Thread$GT$17h219d81b27be29149E', symObjAddr: 0x3A3C, symBinAddr: 0x100005CC8, symSize: 0x24 }
  - { offset: 0x7F68, size: 0x8, addend: 0x0, symName: '__ZN4core3ptr492drop_in_place$LT$core..iter..adapters..map..map_fold$LT$usize$C$u16$C$$LP$$RP$$C$gcrust_rt..gc..reflect..decode..$u7b$$u7b$closure$u7d$$u7d$$C$core..iter..traits..iterator..Iterator..for_each..call$LT$u16$C$alloc..vec..Vec$LT$u16$GT$..extend_trusted$LT$core..iter..adapters..map..Map$LT$core..ops..range..Range$LT$usize$GT$$C$gcrust_rt..gc..reflect..decode..$u7b$$u7b$closure$u7d$$u7d$$GT$$GT$..$u7b$$u7b$closure$u7d$$u7d$$GT$..$u7b$$u7b$closure$u7d$$u7d$$GT$..$u7b$$u7b$closure$u7d$$u7d$$GT$17h6da3f521d78f55e0E', symObjAddr: 0x3A60, symBinAddr: 0x100005CEC, symSize: 0x24 }
  - { offset: 0x7F97, size: 0x8, addend: 0x0, symName: '__ZN4core3ptr49drop_in_place$LT$alloc..vec..Vec$LT$usize$GT$$GT$17hf8dfb9e3787e0a3dE', symObjAddr: 0x3A84, symBinAddr: 0x100005D10, symSize: 0x5C }
  - { offset: 0x7FC6, size: 0x8, addend: 0x0, symName: '__ZN4core3ptr49drop_in_place$LT$gcrust_rt..runtime..ChanCtrl$GT$17he005104361d0974aE', symObjAddr: 0x3AE0, symBinAddr: 0x100005D6C, symSize: 0x90 }
  - { offset: 0x7FF5, size: 0x8, addend: 0x0, symName: '__ZN4core3ptr49drop_in_place$LT$std..sys..fd..unix..FileDesc$GT$17hd94e81a1493f8d63E', symObjAddr: 0x3B70, symBinAddr: 0x100005DFC, symSize: 0x24 }
  - { offset: 0x8024, size: 0x8, addend: 0x0, symName: '__ZN4core3ptr49drop_in_place$LT$std..sys..os_str..bytes..Buf$GT$17h3647cfe88a903205E', symObjAddr: 0x3B94, symBinAddr: 0x100005E20, symSize: 0x24 }
  - { offset: 0x8053, size: 0x8, addend: 0x0, symName: '__ZN4core3ptr50drop_in_place$LT$alloc..borrow..Cow$LT$str$GT$$GT$17hd23b3251fc705fb7E', symObjAddr: 0x3BB8, symBinAddr: 0x100005E44, symSize: 0x48 }
  - { offset: 0x8082, size: 0x8, addend: 0x0, symName: '__ZN4core3ptr51drop_in_place$LT$gcrust_rt..runtime..JoinHandle$GT$17haec84c29a23e12d8E', symObjAddr: 0x3C00, symBinAddr: 0x100005E8C, symSize: 0x24 }
  - { offset: 0x80B1, size: 0x8, addend: 0x0, symName: '__ZN4core3ptr51drop_in_place$LT$std..sys..thread..unix..Thread$GT$17h33afcd9504e814daE', symObjAddr: 0x3C24, symBinAddr: 0x100005EB0, symSize: 0x24 }
  - { offset: 0x80E0, size: 0x8, addend: 0x0, symName: '__ZN4core3ptr51drop_in_place$LT$std..thread..scoped..ScopeData$GT$17h7349f0b47d268f8cE', symObjAddr: 0x3C48, symBinAddr: 0x100005ED4, symSize: 0x24 }
  - { offset: 0x810F, size: 0x8, addend: 0x0, symName: '__ZN4core3ptr52drop_in_place$LT$$u5b$alloc..string..String$u5d$$GT$17hdfde8c4024e239cdE', symObjAddr: 0x3C6C, symBinAddr: 0x100005EF8, symSize: 0xC4 }
  - { offset: 0x813E, size: 0x8, addend: 0x0, symName: '__ZN4core3ptr52drop_in_place$LT$gcrust_rt..gc..heap..WorldPause$GT$17h27eb03be5f070992E', symObjAddr: 0x3D30, symBinAddr: 0x100005FBC, symSize: 0x88 }
  - { offset: 0x816D, size: 0x8, addend: 0x0, symName: '__ZN4core3ptr53drop_in_place$LT$alloc..raw_vec..RawVec$LT$u8$GT$$GT$17h09413e811621bcd9E', symObjAddr: 0x3DB8, symBinAddr: 0x100006044, symSize: 0x24 }
  - { offset: 0x819C, size: 0x8, addend: 0x0, symName: '__ZN4core3ptr53drop_in_place$LT$gcrust_rt..gc..reflect..TypeKind$GT$17hf7948d6b6f9a4b76E', symObjAddr: 0x3DDC, symBinAddr: 0x100006068, symSize: 0x74 }
  - { offset: 0x81CB, size: 0x8, addend: 0x0, symName: '__ZN4core3ptr53drop_in_place$LT$gcrust_rt..gc..reflect..TypeMeta$GT$17h74a63691de28305aE', symObjAddr: 0x3E50, symBinAddr: 0x1000060DC, symSize: 0x60 }
  - { offset: 0x81FA, size: 0x8, addend: 0x0, symName: '__ZN4core3ptr53drop_in_place$LT$gcrust_rt..gc..roots..FrameGuard$GT$17hae0176bc0151f9d6E', symObjAddr: 0x3EB0, symBinAddr: 0x10000613C, symSize: 0x24 }
  - { offset: 0x8229, size: 0x8, addend: 0x0, symName: '__ZN4core3ptr545drop_in_place$LT$$LT$core..iter..adapters..enumerate..Enumerate$LT$I$GT$$u20$as$u20$core..iter..traits..iterator..Iterator$GT$..fold..enumerate$LT$usize$C$$LP$$RP$$C$core..iter..traits..iterator..Iterator..for_each..call$LT$$LP$usize$C$usize$RP$$C$alloc..vec..Vec$LT$$LP$usize$C$usize$RP$$GT$..extend_trusted$LT$core..iter..adapters..enumerate..Enumerate$LT$core..iter..adapters..copied..Copied$LT$core..slice..iter..Iter$LT$usize$GT$$GT$$GT$$GT$..$u7b$$u7b$closure$u7d$$u7d$$GT$..$u7b$$u7b$closure$u7d$$u7d$$GT$..$u7b$$u7b$closure$u7d$$u7d$$GT$17h9101db5f05e2a6aaE', symObjAddr: 0x3ED4, symBinAddr: 0x100006160, symSize: 0x24 }
  - { offset: 0x8258, size: 0x8, addend: 0x0, symName: '__ZN4core3ptr54drop_in_place$LT$alloc..raw_vec..RawVec$LT$u16$GT$$GT$17hd9e6b65161ff5b24E', symObjAddr: 0x3EF8, symBinAddr: 0x100006184, symSize: 0x24 }
  - { offset: 0x8287, size: 0x8, addend: 0x0, symName: '__ZN4core3ptr54drop_in_place$LT$alloc..raw_vec..RawVec$LT$u64$GT$$GT$17ha1aa42d572305741E', symObjAddr: 0x3F1C, symBinAddr: 0x1000061A8, symSize: 0x24 }
  - { offset: 0x82B6, size: 0x8, addend: 0x0, symName: '__ZN4core3ptr54drop_in_place$LT$gcrust_rt..gc..barrier..SATBQueue$GT$17ha2aabedfad99b971E', symObjAddr: 0x3F40, symBinAddr: 0x1000061CC, symSize: 0x24 }
  - { offset: 0x82E5, size: 0x8, addend: 0x0, symName: '__ZN4core3ptr54drop_in_place$LT$gcrust_rt..gc..heap..NurseryState$GT$17h28000e1100453871E', symObjAddr: 0x3F64, symBinAddr: 0x1000061F0, symSize: 0x5C }
  - { offset: 0x8314, size: 0x8, addend: 0x0, symName: '__ZN4core3ptr54drop_in_place$LT$gcrust_rt..gc..reflect..AllocSite$GT$17h4cb98d3bf2e4ed1cE', symObjAddr: 0x3FC0, symBinAddr: 0x10000624C, symSize: 0x60 }
  - { offset: 0x8343, size: 0x8, addend: 0x0, symName: '__ZN4core3ptr54drop_in_place$LT$gcrust_rt..gc..reflect..FieldMeta$GT$17hc74caebf6978a08fE', symObjAddr: 0x4020, symBinAddr: 0x1000062AC, symSize: 0x24 }
  - { offset: 0x8372, size: 0x8, addend: 0x0, symName: '__ZN4core3ptr54drop_in_place$LT$gcrust_rt..gc..reflect..ValueMeta$GT$17h2c8b74b42b8cb8e5E', symObjAddr: 0x4044, symBinAddr: 0x1000062D0, symSize: 0x60 }
  - { offset: 0x83A1, size: 0x8, addend: 0x0, symName: '__ZN4core3ptr55drop_in_place$LT$alloc..raw_vec..RawVec$LT$bool$GT$$GT$17hc0f7aebec10410e8E', symObjAddr: 0x40A4, symBinAddr: 0x100006330, symSize: 0x24 }
  - { offset: 0x83D0, size: 0x8, addend: 0x0, symName: '__ZN4core3ptr55drop_in_place$LT$gcrust_rt..gc..barrier..SATBBuffer$GT$17h9bbcf65aaae2d57cE', symObjAddr: 0x40C8, symBinAddr: 0x100006354, symSize: 0x24 }
  - { offset: 0x83FF, size: 0x8, addend: 0x0, symName: '__ZN4core3ptr55drop_in_place$LT$gcrust_rt..gc..heap..AllocSiteStat$GT$17h134440a7259d459cE', symObjAddr: 0x40EC, symBinAddr: 0x100006378, symSize: 0x90 }
  - { offset: 0x842E, size: 0x8, addend: 0x0, symName: '__ZN4core3ptr55drop_in_place$LT$gcrust_rt..gc..roots..DynRootFrame$GT$17hdf35bdb34cec0c94E', symObjAddr: 0x417C, symBinAddr: 0x100006408, symSize: 0x24 }
  - { offset: 0x845D, size: 0x8, addend: 0x0, symName: '__ZN4core3ptr55drop_in_place$LT$gcrust_rt..gc..thread..ThreadState$GT$17hba42b8f38fc4ec46E', symObjAddr: 0x41A0, symBinAddr: 0x10000642C, symSize: 0xC4 }
  - { offset: 0x848C, size: 0x8, addend: 0x0, symName: '__ZN4core3ptr55drop_in_place$LT$gcrust_rt..runtime..RuntimeContext$GT$17hb774e5d4819ca02aE', symObjAddr: 0x4264, symBinAddr: 0x1000064F0, symSize: 0xB8 }
  - { offset: 0x84BB, size: 0x8, addend: 0x0, symName: '__ZN4core3ptr55drop_in_place$LT$std..thread..lifecycle..ThreadInit$GT$17hea7e46479dc6b3a3E', symObjAddr: 0x431C, symBinAddr: 0x1000065A8, symSize: 0x60 }
  - { offset: 0x84EA, size: 0x8, addend: 0x0, symName: '__ZN4core3ptr55drop_in_place$LT$std..thread..spawnhook..SpawnHooks$GT$17h847feeeec3a68bfcE', symObjAddr: 0x437C, symBinAddr: 0x100006608, symSize: 0x5C }
  - { offset: 0x8519, size: 0x8, addend: 0x0, symName: '__ZN4core3ptr560drop_in_place$LT$core..iter..adapters..map..map_fold$LT$$RF$usize$C$$LP$usize$C$usize$RP$$C$$LP$$RP$$C$gcrust_rt..gc..dump..dump_heap_json..$u7b$$u7b$closure$u7d$$u7d$$C$core..iter..traits..iterator..Iterator..for_each..call$LT$$LP$usize$C$usize$RP$$C$alloc..vec..Vec$LT$$LP$usize$C$usize$RP$$GT$..extend_trusted$LT$core..iter..adapters..map..Map$LT$core..slice..iter..Iter$LT$usize$GT$$C$gcrust_rt..gc..dump..dump_heap_json..$u7b$$u7b$closure$u7d$$u7d$$GT$$GT$..$u7b$$u7b$closure$u7d$$u7d$$GT$..$u7b$$u7b$closure$u7d$$u7d$$GT$..$u7b$$u7b$closure$u7d$$u7d$$GT$17h654b3e4d4feddba3E', symObjAddr: 0x43D8, symBinAddr: 0x100006664, symSize: 0x24 }
  - { offset: 0x8548, size: 0x8, addend: 0x0, symName: '__ZN4core3ptr560drop_in_place$LT$core..iter..adapters..map..map_fold$LT$$RF$usize$C$alloc..string..String$C$$LP$$RP$$C$gcrust_rt..gc..dump..dump_heap_json..$u7b$$u7b$closure$u7d$$u7d$$C$core..iter..traits..iterator..Iterator..for_each..call$LT$alloc..string..String$C$alloc..vec..Vec$LT$alloc..string..String$GT$..extend_trusted$LT$core..iter..adapters..map..Map$LT$core..slice..iter..Iter$LT$usize$GT$$C$gcrust_rt..gc..dump..dump_heap_json..$u7b$$u7b$closure$u7d$$u7d$$GT$$GT$..$u7b$$u7b$closure$u7d$$u7d$$GT$..$u7b$$u7b$closure$u7d$$u7d$$GT$..$u7b$$u7b$closure$u7d$$u7d$$GT$17haeebc5fc1a2c6e46E', symObjAddr: 0x43FC, symBinAddr: 0x100006688, symSize: 0x24 }
  - { offset: 0x8577, size: 0x8, addend: 0x0, symName: '__ZN4core3ptr56drop_in_place$LT$$u5b$gcrust_rt..gc..dump..Node$u5d$$GT$17h983b917aca31f423E', symObjAddr: 0x4420, symBinAddr: 0x1000066AC, symSize: 0xC4 }
  - { offset: 0x85A6, size: 0x8, addend: 0x0, symName: '__ZN4core3ptr56drop_in_place$LT$alloc..raw_vec..RawVec$LT$usize$GT$$GT$17hec6438b0b72f866fE', symObjAddr: 0x44E4, symBinAddr: 0x100006770, symSize: 0x24 }
  - { offset: 0x85D5, size: 0x8, addend: 0x0, symName: '__ZN4core3ptr56drop_in_place$LT$gcrust_rt..gc..alloc..BumpAllocator$GT$17h8a46fa4d5aaaedc6E', symObjAddr: 0x4508, symBinAddr: 0x100006794, symSize: 0x24 }
  - { offset: 0x8604, size: 0x8, addend: 0x0, symName: '__ZN4core3ptr56drop_in_place$LT$gcrust_rt..gc..reflect..VariantMeta$GT$17h86fdf35b74cc43e5E', symObjAddr: 0x452C, symBinAddr: 0x1000067B8, symSize: 0x60 }
  - { offset: 0x8633, size: 0x8, addend: 0x0, symName: '__ZN4core3ptr56drop_in_place$LT$gcrust_rt..gc..roots..AtomicRootSet$GT$17h1ac0385e41e4d8a4E', symObjAddr: 0x458C, symBinAddr: 0x100006818, symSize: 0x24 }
  - { offset: 0x8662, size: 0x8, addend: 0x0, symName: '__ZN4core3ptr56drop_in_place$LT$gcrust_rt..gc..statemap..TraceEvent$GT$17h1afbfd5be764813bE', symObjAddr: 0x45B0, symBinAddr: 0x10000683C, symSize: 0x24 }
  - { offset: 0x8691, size: 0x8, addend: 0x0, symName: '__ZN4core3ptr56drop_in_place$LT$std..sync..poison..condvar..Condvar$GT$17h269ebc0d0b76a251E', symObjAddr: 0x45D4, symBinAddr: 0x100006860, symSize: 0x24 }
  - { offset: 0x86C0, size: 0x8, addend: 0x0, symName: '__ZN4core3ptr57drop_in_place$LT$$u5b$alloc..vec..Vec$LT$u16$GT$$u5d$$GT$17h476d78dcea20c39fE', symObjAddr: 0x45F8, symBinAddr: 0x100006884, symSize: 0xC4 }
  - { offset: 0x86EF, size: 0x8, addend: 0x0, symName: '__ZN4core3ptr57drop_in_place$LT$$u5b$alloc..vec..Vec$LT$u64$GT$$u5d$$GT$17hc4c2fad03f44f1f4E', symObjAddr: 0x46BC, symBinAddr: 0x100006948, symSize: 0xC4 }
  - { offset: 0x871E, size: 0x8, addend: 0x0, symName: '__ZN4core3ptr57drop_in_place$LT$gcrust_rt..gc..card_table..CardTable$GT$17h69b171a63f6842a9E', symObjAddr: 0x4780, symBinAddr: 0x100006A0C, symSize: 0x24 }
  - { offset: 0x874D, size: 0x8, addend: 0x0, symName: '__ZN4core3ptr57drop_in_place$LT$std..io..error..repr_bitpacked..Repr$GT$17h36c44f039999bc4eE', symObjAddr: 0x47A4, symBinAddr: 0x100006A30, symSize: 0x24 }
  - { offset: 0x877C, size: 0x8, addend: 0x0, symName: '__ZN4core3ptr58drop_in_place$LT$$LP$alloc..string..String$C$usize$RP$$GT$17h316aa84752500b5cE', symObjAddr: 0x47C8, symBinAddr: 0x100006A54, symSize: 0x24 }
  - { offset: 0x87AB, size: 0x8, addend: 0x0, symName: '__ZN4core3ptr58drop_in_place$LT$std..sys..sync..mutex..pthread..Mutex$GT$17h735b79dbf7b2a133E', symObjAddr: 0x47EC, symBinAddr: 0x100006A78, symSize: 0x5C }
  - { offset: 0x87DA, size: 0x8, addend: 0x0, symName: '__ZN4core3ptr59drop_in_place$LT$$u5b$alloc..vec..Vec$LT$usize$GT$$u5d$$GT$17h0770af85c8ce45ebE', symObjAddr: 0x4848, symBinAddr: 0x100006AD4, symSize: 0xC4 }
  - { offset: 0x8809, size: 0x8, addend: 0x0, symName: '__ZN4core3ptr600drop_in_place$LT$core..iter..adapters..map..map_fold$LT$usize$C$gcrust_rt..gc..reflect..VariantMeta$C$$LP$$RP$$C$gcrust_rt..gc..reflect..Reader..kind..$u7b$$u7b$closure$u7d$$u7d$$C$core..iter..traits..iterator..Iterator..for_each..call$LT$gcrust_rt..gc..reflect..VariantMeta$C$alloc..vec..Vec$LT$gcrust_rt..gc..reflect..VariantMeta$GT$..extend_trusted$LT$core..iter..adapters..map..Map$LT$core..ops..range..Range$LT$usize$GT$$C$gcrust_rt..gc..reflect..Reader..kind..$u7b$$u7b$closure$u7d$$u7d$$GT$$GT$..$u7b$$u7b$closure$u7d$$u7d$$GT$..$u7b$$u7b$closure$u7d$$u7d$$GT$..$u7b$$u7b$closure$u7d$$u7d$$GT$17h2f9853b6a388ed32E', symObjAddr: 0x490C, symBinAddr: 0x100006B98, symSize: 0x24 }
  - { offset: 0x8838, size: 0x8, addend: 0x0, symName: '__ZN4core3ptr606drop_in_place$LT$core..iter..adapters..map..map_fold$LT$usize$C$gcrust_rt..gc..reflect..FieldMeta$C$$LP$$RP$$C$gcrust_rt..gc..reflect..Reader..field_list..$u7b$$u7b$closure$u7d$$u7d$$C$core..iter..traits..iterator..Iterator..for_each..call$LT$gcrust_rt..gc..reflect..FieldMeta$C$alloc..vec..Vec$LT$gcrust_rt..gc..reflect..FieldMeta$GT$..extend_trusted$LT$core..iter..adapters..map..Map$LT$core..ops..range..Range$LT$usize$GT$$C$gcrust_rt..gc..reflect..Reader..field_list..$u7b$$u7b$closure$u7d$$u7d$$GT$$GT$..$u7b$$u7b$closure$u7d$$u7d$$GT$..$u7b$$u7b$closure$u7d$$u7d$$GT$..$u7b$$u7b$closure$u7d$$u7d$$GT$17h14f6c4eb047901c1E', symObjAddr: 0x4930, symBinAddr: 0x100006BBC, symSize: 0x24 }
  - { offset: 0x8867, size: 0x8, addend: 0x0, symName: '__ZN4core3ptr60drop_in_place$LT$alloc..vec..Vec$LT$$BP$const$u20$u8$GT$$GT$17he2d3ef4e4ae32e28E', symObjAddr: 0x4954, symBinAddr: 0x100006BE0, symSize: 0x5C }
  - { offset: 0x8896, size: 0x8, addend: 0x0, symName: '__ZN4core3ptr60drop_in_place$LT$gcrust_rt..gc..statemap..StatemapTracer$GT$17h9923dbb6bbac1705E', symObjAddr: 0x49B0, symBinAddr: 0x100006C3C, symSize: 0x24 }
  - { offset: 0x88C5, size: 0x8, addend: 0x0, symName: '__ZN4core3ptr60drop_in_place$LT$std..sys..pal..unix..sync..mutex..Mutex$GT$17ha1f1237437ff5e47E', symObjAddr: 0x49D4, symBinAddr: 0x100006C60, symSize: 0x24 }
  - { offset: 0x88F4, size: 0x8, addend: 0x0, symName: '__ZN4core3ptr60drop_in_place$LT$std..thread..spawnhook..ChildSpawnHooks$GT$17hc8a0418edae182f2E', symObjAddr: 0x49F8, symBinAddr: 0x100006C84, symSize: 0x5C }
  - { offset: 0x8923, size: 0x8, addend: 0x0, symName: '__ZN4core3ptr62drop_in_place$LT$alloc..vec..set_len_on_drop..SetLenOnDrop$GT$17h8ec11dd06bb8abafE', symObjAddr: 0x4A54, symBinAddr: 0x100006CE0, symSize: 0x24 }
  - { offset: 0x8952, size: 0x8, addend: 0x0, symName: '__ZN4core3ptr62drop_in_place$LT$gcrust_rt..gc..alloc..AtomicBumpAllocator$GT$17h8eab29d3ea72d3b0E', symObjAddr: 0x4A78, symBinAddr: 0x100006D04, symSize: 0x24 }
  - { offset: 0x8981, size: 0x8, addend: 0x0, symName: '__ZN4core3ptr62drop_in_place$LT$std..sys..sync..condvar..pthread..Condvar$GT$17h2f40e9e5862911c6E', symObjAddr: 0x4A9C, symBinAddr: 0x100006D28, symSize: 0x24 }
  - { offset: 0x89B0, size: 0x8, addend: 0x0, symName: '__ZN4core3ptr62drop_in_place$LT$std..thread..lifecycle..Packet$LT$u64$GT$$GT$17h76237226a6ac0051E', symObjAddr: 0x4AC0, symBinAddr: 0x100006D4C, symSize: 0x88 }
  - { offset: 0x89DF, size: 0x8, addend: 0x0, symName: '__ZN4core3ptr63drop_in_place$LT$$u5b$gcrust_rt..gc..reflect..TypeMeta$u5d$$GT$17he6ec796be62a63deE', symObjAddr: 0x4B48, symBinAddr: 0x100006DD4, symSize: 0xB4 }
  - { offset: 0x8A0E, size: 0x8, addend: 0x0, symName: '__ZN4core3ptr63drop_in_place$LT$alloc..vec..into_iter..IntoIter$LT$u64$GT$$GT$17h3941c205753c1ca0E', symObjAddr: 0x4BFC, symBinAddr: 0x100006E88, symSize: 0x24 }
  - { offset: 0x8A3D, size: 0x8, addend: 0x0, symName: '__ZN4core3ptr640drop_in_place$LT$core..iter..adapters..copied..copy_fold$LT$usize$C$$LP$$RP$$C$$LT$core..iter..adapters..enumerate..Enumerate$LT$I$GT$$u20$as$u20$core..iter..traits..iterator..Iterator$GT$..fold..enumerate$LT$usize$C$$LP$$RP$$C$core..iter..traits..iterator..Iterator..for_each..call$LT$$LP$usize$C$usize$RP$$C$alloc..vec..Vec$LT$$LP$usize$C$usize$RP$$GT$..extend_trusted$LT$core..iter..adapters..enumerate..Enumerate$LT$core..iter..adapters..copied..Copied$LT$core..slice..iter..Iter$LT$usize$GT$$GT$$GT$$GT$..$u7b$$u7b$closure$u7d$$u7d$$GT$..$u7b$$u7b$closure$u7d$$u7d$$GT$..$u7b$$u7b$closure$u7d$$u7d$$GT$..$u7b$$u7b$closure$u7d$$u7d$$GT$17h467c8eaae42dba03E', symObjAddr: 0x4C20, symBinAddr: 0x100006EAC, symSize: 0x24 }
  - { offset: 0x8A6C, size: 0x8, addend: 0x0, symName: '__ZN4core3ptr640drop_in_place$LT$core..iter..adapters..map..map_fold$LT$$RF$$LP$$RF$alloc..string..String$C$$RF$usize$RP$$C$alloc..string..String$C$$LP$$RP$$C$gcrust_rt..gc..dump..dump_heap_text..$u7b$$u7b$closure$u7d$$u7d$$C$core..iter..traits..iterator..Iterator..for_each..call$LT$alloc..string..String$C$alloc..vec..Vec$LT$alloc..string..String$GT$..extend_trusted$LT$core..iter..adapters..map..Map$LT$core..slice..iter..Iter$LT$$LP$$RF$alloc..string..String$C$$RF$usize$RP$$GT$$C$gcrust_rt..gc..dump..dump_heap_text..$u7b$$u7b$closure$u7d$$u7d$$GT$$GT$..$u7b$$u7b$closure$u7d$$u7d$$GT$..$u7b$$u7b$closure$u7d$$u7d$$GT$..$u7b$$u7b$closure$u7d$$u7d$$GT$17hf267ba507a11db9bE', symObjAddr: 0x4C44, symBinAddr: 0x100006ED0, symSize: 0x24 }
  - { offset: 0x8A9B, size: 0x8, addend: 0x0, symName: '__ZN4core3ptr64drop_in_place$LT$$u5b$gcrust_rt..gc..reflect..AllocSite$u5d$$GT$17h64e33b99278b58d1E', symObjAddr: 0x4C68, symBinAddr: 0x100006EF4, symSize: 0xC4 }
  - { offset: 0x8ACA, size: 0x8, addend: 0x0, symName: '__ZN4core3ptr64drop_in_place$LT$$u5b$gcrust_rt..gc..reflect..FieldMeta$u5d$$GT$17hb2093bcc7f40ef27E', symObjAddr: 0x4D2C, symBinAddr: 0x100006FB8, symSize: 0xB4 }
  - { offset: 0x8AF9, size: 0x8, addend: 0x0, symName: '__ZN4core3ptr64drop_in_place$LT$$u5b$gcrust_rt..gc..reflect..ValueMeta$u5d$$GT$17h859871f11c1c7fc2E', symObjAddr: 0x4DE0, symBinAddr: 0x10000706C, symSize: 0xB4 }
  - { offset: 0x8B28, size: 0x8, addend: 0x0, symName: '__ZN4core3ptr64drop_in_place$LT$std..sync..poison..mutex..Mutex$LT$bool$GT$$GT$17hf3b54236cb712c07E', symObjAddr: 0x4E94, symBinAddr: 0x100007120, symSize: 0x24 }
  - { offset: 0x8B57, size: 0x8, addend: 0x0, symName: '__ZN4core3ptr64drop_in_place$LT$std..sys..pal..unix..sync..condvar..Condvar$GT$17hef33e057e639f289E', symObjAddr: 0x4EB8, symBinAddr: 0x100007144, symSize: 0x24 }
  - { offset: 0x8B86, size: 0x8, addend: 0x0, symName: '__ZN4core3ptr65drop_in_place$LT$$u5b$gcrust_rt..gc..heap..AllocSiteStat$u5d$$GT$17h7c5b5071d5ae9e47E', symObjAddr: 0x4EDC, symBinAddr: 0x100007168, symSize: 0xC4 }
  - { offset: 0x8BB5, size: 0x8, addend: 0x0, symName: '__ZN4core3ptr65drop_in_place$LT$alloc..vec..Vec$LT$$LP$usize$C$usize$RP$$GT$$GT$17he7d91a4477833f82E', symObjAddr: 0x4FA0, symBinAddr: 0x10000722C, symSize: 0x5C }
  - { offset: 0x8BE4, size: 0x8, addend: 0x0, symName: '__ZN4core3ptr65drop_in_place$LT$alloc..vec..Vec$LT$alloc..string..String$GT$$GT$17hcb707c9766cf2a15E', symObjAddr: 0x4FFC, symBinAddr: 0x100007288, symSize: 0x5C }
  - { offset: 0x8C13, size: 0x8, addend: 0x0, symName: '__ZN4core3ptr65drop_in_place$LT$gcrust_rt..runtime..blocking_region..Unblock$GT$17h28804ab2690d7cdeE', symObjAddr: 0x5058, symBinAddr: 0x1000072E4, symSize: 0x24 }
  - { offset: 0x8C42, size: 0x8, addend: 0x0, symName: '__ZN4core3ptr65drop_in_place$LT$std..thread..lifecycle..JoinInner$LT$u64$GT$$GT$17h75ace9b69461d9a2E', symObjAddr: 0x507C, symBinAddr: 0x100007308, symSize: 0x8C }
  - { offset: 0x8C71, size: 0x8, addend: 0x0, symName: '__ZN4core3ptr66drop_in_place$LT$$LP$alloc..string..String$C$usize$C$usize$RP$$GT$17h6ba769b12d506ba3E', symObjAddr: 0x5108, symBinAddr: 0x100007394, symSize: 0x24 }
  - { offset: 0x8CA0, size: 0x8, addend: 0x0, symName: '__ZN4core3ptr66drop_in_place$LT$$u5b$gcrust_rt..gc..reflect..VariantMeta$u5d$$GT$17hf9a88ae711db2c66E', symObjAddr: 0x512C, symBinAddr: 0x1000073B8, symSize: 0xC4 }
  - { offset: 0x8CCF, size: 0x8, addend: 0x0, symName: '__ZN4core3ptr66drop_in_place$LT$$u5b$gcrust_rt..gc..statemap..TraceEvent$u5d$$GT$17h00f480d734476a41E', symObjAddr: 0x51F0, symBinAddr: 0x10000747C, symSize: 0xC4 }
  - { offset: 0x8CFE, size: 0x8, addend: 0x0, symName: '__ZN4core3ptr66drop_in_place$LT$dyn$u20$core..any..Any$u2b$core..marker..Send$GT$17hbbb0a6000dc7c2d6E', symObjAddr: 0x52B4, symBinAddr: 0x100007540, symSize: 0x48 }
  - { offset: 0x8D2D, size: 0x8, addend: 0x0, symName: '__ZN4core3ptr67drop_in_place$LT$alloc..raw_vec..RawVec$LT$$BP$const$u20$u8$GT$$GT$17hb39482b28b356afcE', symObjAddr: 0x52FC, symBinAddr: 0x100007588, symSize: 0x24 }
  - { offset: 0x8D5C, size: 0x8, addend: 0x0, symName: '__ZN4core3ptr68drop_in_place$LT$alloc..boxed..Box$LT$std..io..error..Custom$GT$$GT$17h855d34dd739dd4feE', symObjAddr: 0x5320, symBinAddr: 0x1000075AC, symSize: 0x60 }
  - { offset: 0x8D8B, size: 0x8, addend: 0x0, symName: '__ZN4core3ptr68drop_in_place$LT$std..sync..poison..mutex..Mutex$LT$$LP$$RP$$GT$$GT$17h21e1a7f92e94e08aE', symObjAddr: 0x5380, symBinAddr: 0x10000760C, symSize: 0x24 }
  - { offset: 0x8DBA, size: 0x8, addend: 0x0, symName: '__ZN4core3ptr68drop_in_place$LT$std..thread..join_handle..JoinHandle$LT$u64$GT$$GT$17h2d016a07008743deE', symObjAddr: 0x53A4, symBinAddr: 0x100007630, symSize: 0x24 }
  - { offset: 0x8DE9, size: 0x8, addend: 0x0, symName: '__ZN4core3ptr69drop_in_place$LT$alloc..vec..Vec$LT$gcrust_rt..gc..dump..Node$GT$$GT$17hf6b732f95dca3b92E', symObjAddr: 0x53C8, symBinAddr: 0x100007654, symSize: 0x5C }
  - { offset: 0x8E18, size: 0x8, addend: 0x0, symName: '__ZN4core3ptr69drop_in_place$LT$std..sync..poison..mutex..MutexGuard$LT$bool$GT$$GT$17hac0edb3cad5908d7E', symObjAddr: 0x5424, symBinAddr: 0x1000076B0, symSize: 0x24 }
  - { offset: 0x8E47, size: 0x8, addend: 0x0, symName: '__ZN4core3ptr70drop_in_place$LT$alloc..sync..Arc$LT$gcrust_rt..gc..heap..Heap$GT$$GT$17hd94ab4f8e2f27584E', symObjAddr: 0x5448, symBinAddr: 0x1000076D4, symSize: 0x24 }
  - { offset: 0x8E76, size: 0x8, addend: 0x0, symName: '__ZN4core3ptr70drop_in_place$LT$alloc..vec..Vec$LT$alloc..vec..Vec$LT$u16$GT$$GT$$GT$17h0ede7bdf790126c3E', symObjAddr: 0x546C, symBinAddr: 0x1000076F8, symSize: 0x5C }
  - { offset: 0x8EA5, size: 0x8, addend: 0x0, symName: '__ZN4core3ptr70drop_in_place$LT$alloc..vec..Vec$LT$alloc..vec..Vec$LT$u64$GT$$GT$$GT$17hdf1c3b9bd9aea379E', symObjAddr: 0x54C8, symBinAddr: 0x100007754, symSize: 0x5C }
  - { offset: 0x8ED4, size: 0x8, addend: 0x0, symName: '__ZN4core3ptr70drop_in_place$LT$core..option..Option$LT$alloc..string..String$GT$$GT$17he803e7345ab9c95aE', symObjAddr: 0x5524, symBinAddr: 0x1000077B0, symSize: 0x48 }
  - { offset: 0x8F03, size: 0x8, addend: 0x0, symName: '__ZN4core3ptr715drop_in_place$LT$core..iter..adapters..map..map_fold$LT$$LP$usize$C$$RF$gcrust_rt..runtime..AotLayout$RP$$C$gcrust_rt..gc..type_info..TypeInfo$C$$LP$$RP$$C$gcrust_rt..runtime..gcr_runtime_main..$u7b$$u7b$closure$u7d$$u7d$$C$core..iter..traits..iterator..Iterator..for_each..call$LT$gcrust_rt..gc..type_info..TypeInfo$C$alloc..vec..Vec$LT$gcrust_rt..gc..type_info..TypeInfo$GT$..extend_trusted$LT$core..iter..adapters..map..Map$LT$core..iter..adapters..enumerate..Enumerate$LT$core..slice..iter..Iter$LT$gcrust_rt..runtime..AotLayout$GT$$GT$$C$gcrust_rt..runtime..gcr_runtime_main..$u7b$$u7b$closure$u7d$$u7d$$GT$$GT$..$u7b$$u7b$closure$u7d$$u7d$$GT$..$u7b$$u7b$closure$u7d$$u7d$$GT$..$u7b$$u7b$closure$u7d$$u7d$$GT$17hce5c676fb3019705E', symObjAddr: 0x556C, symBinAddr: 0x1000077F8, symSize: 0x24 }
  - { offset: 0x8F32, size: 0x8, addend: 0x0, symName: '__ZN4core3ptr71drop_in_place$LT$core..array..iter..IntoIter$LT$usize$C$2_usize$GT$$GT$17hf49c78956e903216E', symObjAddr: 0x5590, symBinAddr: 0x10000781C, symSize: 0x24 }
  - { offset: 0x8F61, size: 0x8, addend: 0x0, symName: '__ZN4core3ptr72drop_in_place$LT$alloc..boxed..Box$LT$gcrust_rt..runtime..Thread$GT$$GT$17h074563f3cf6335edE', symObjAddr: 0x55B4, symBinAddr: 0x100007840, symSize: 0x2C }
  - { offset: 0x8F90, size: 0x8, addend: 0x0, symName: '__ZN4core3ptr72drop_in_place$LT$alloc..raw_vec..RawVec$LT$$LP$usize$C$usize$RP$$GT$$GT$17h40f7da9c1fef9799E', symObjAddr: 0x55E0, symBinAddr: 0x10000786C, symSize: 0x24 }
  - { offset: 0x8FBF, size: 0x8, addend: 0x0, symName: '__ZN4core3ptr72drop_in_place$LT$alloc..raw_vec..RawVec$LT$alloc..string..String$GT$$GT$17h1815464fbb562646E', symObjAddr: 0x5604, symBinAddr: 0x100007890, symSize: 0x24 }
  - { offset: 0x8FEE, size: 0x8, addend: 0x0, symName: '__ZN4core3ptr72drop_in_place$LT$alloc..vec..Vec$LT$$LP$$BP$mut$u20$u8$C$u16$RP$$GT$$GT$17h0a40723429c28f70E', symObjAddr: 0x5628, symBinAddr: 0x1000078B4, symSize: 0x5C }
  - { offset: 0x901D, size: 0x8, addend: 0x0, symName: '__ZN4core3ptr72drop_in_place$LT$alloc..vec..Vec$LT$alloc..vec..Vec$LT$usize$GT$$GT$$GT$17h63d38ee37f27672fE', symObjAddr: 0x5684, symBinAddr: 0x100007910, symSize: 0x5C }
  - { offset: 0x904C, size: 0x8, addend: 0x0, symName: '__ZN4core3ptr72drop_in_place$LT$alloc..vec..Vec$LT$gcrust_rt..gc..heap..GcEvent$GT$$GT$17h6ccffc6e5ef8e817E', symObjAddr: 0x56E0, symBinAddr: 0x10000796C, symSize: 0x5C }
  - { offset: 0x907B, size: 0x8, addend: 0x0, symName: '__ZN4core3ptr73drop_in_place$LT$std..sync..poison..mutex..MutexGuard$LT$$LP$$RP$$GT$$GT$17hb3f5cfba70423f77E', symObjAddr: 0x573C, symBinAddr: 0x1000079C8, symSize: 0x24 }
  - { offset: 0x90AA, size: 0x8, addend: 0x0, symName: '__ZN4core3ptr74drop_in_place$LT$$LP$alloc..string..String$C$$LP$usize$C$usize$RP$$RP$$GT$17h5bbd45d4ac5542f2E', symObjAddr: 0x5760, symBinAddr: 0x1000079EC, symSize: 0x24 }
  - { offset: 0x90D9, size: 0x8, addend: 0x0, symName: '__ZN4core3ptr74drop_in_place$LT$hashbrown..raw..RawTable$LT$$LP$usize$C$usize$RP$$GT$$GT$17h32bf7417bff5c2d2E', symObjAddr: 0x5784, symBinAddr: 0x100007A10, symSize: 0x24 }
  - { offset: 0x9108, size: 0x8, addend: 0x0, symName: '__ZN4core3ptr755drop_in_place$LT$core..iter..adapters..map..map_fold$LT$$RF$alloc..sync..Arc$LT$gcrust_rt..gc..thread..ThreadState$GT$$C$alloc..sync..Arc$LT$gcrust_rt..gc..thread..ThreadState$GT$$C$$LP$$RP$$C$$LT$alloc..sync..Arc$LT$gcrust_rt..gc..thread..ThreadState$GT$$u20$as$u20$core..clone..Clone$GT$..clone$C$core..iter..traits..iterator..Iterator..for_each..call$LT$alloc..sync..Arc$LT$gcrust_rt..gc..thread..ThreadState$GT$$C$alloc..vec..Vec$LT$alloc..sync..Arc$LT$gcrust_rt..gc..thread..ThreadState$GT$$GT$..extend_trusted$LT$core..iter..adapters..cloned..Cloned$LT$core..slice..iter..Iter$LT$alloc..sync..Arc$LT$gcrust_rt..gc..thread..ThreadState$GT$$GT$$GT$$GT$..$u7b$$u7b$closure$u7d$$u7d$$GT$..$u7b$$u7b$closure$u7d$$u7d$$GT$..$u7b$$u7b$closure$u7d$$u7d$$GT$17ha7ac70b79cc7e761E', symObjAddr: 0x57A8, symBinAddr: 0x100007A34, symSize: 0x24 }
  - { offset: 0x9137, size: 0x8, addend: 0x0, symName: '__ZN4core3ptr75drop_in_place$LT$alloc..sync..Arc$LT$std..thread..scoped..ScopeData$GT$$GT$17h0b34a1bda4183377E', symObjAddr: 0x57CC, symBinAddr: 0x100007A58, symSize: 0x24 }
  - { offset: 0x9166, size: 0x8, addend: 0x0, symName: '__ZN4core3ptr75drop_in_place$LT$alloc..sync..ArcInner$LT$gcrust_rt..gc..heap..Heap$GT$$GT$17hd362e07d1f1fcac1E', symObjAddr: 0x57F0, symBinAddr: 0x100007A7C, symSize: 0x24 }
  - { offset: 0x9195, size: 0x8, addend: 0x0, symName: '__ZN4core3ptr75drop_in_place$LT$core..option..Option$LT$std..ffi..os_str..OsString$GT$$GT$17hcd728e4724b3de0fE', symObjAddr: 0x5814, symBinAddr: 0x100007AA0, symSize: 0x48 }
  - { offset: 0x91C4, size: 0x8, addend: 0x0, symName: '__ZN4core3ptr76drop_in_place$LT$$u5b$$LP$alloc..string..String$C$usize$C$usize$RP$$u5d$$GT$17h22416e3adad2f119E', symObjAddr: 0x585C, symBinAddr: 0x100007AE8, symSize: 0xC4 }
  - { offset: 0x91F3, size: 0x8, addend: 0x0, symName: '__ZN4core3ptr76drop_in_place$LT$alloc..boxed..Box$LT$gcrust_rt..runtime..JoinHandle$GT$$GT$17hcca25420078b4c9fE', symObjAddr: 0x5920, symBinAddr: 0x100007BAC, symSize: 0x60 }
  - { offset: 0x9222, size: 0x8, addend: 0x0, symName: '__ZN4core3ptr76drop_in_place$LT$alloc..raw_vec..RawVec$LT$gcrust_rt..gc..dump..Node$GT$$GT$17hc47474382d2c50bbE', symObjAddr: 0x5980, symBinAddr: 0x100007C0C, symSize: 0x24 }
  - { offset: 0x9251, size: 0x8, addend: 0x0, symName: '__ZN4core3ptr76drop_in_place$LT$alloc..vec..Vec$LT$gcrust_rt..gc..reflect..TypeMeta$GT$$GT$17h7df24714f5388551E', symObjAddr: 0x59A4, symBinAddr: 0x100007C30, symSize: 0x5C }
  - { offset: 0x9280, size: 0x8, addend: 0x0, symName: '__ZN4core3ptr77drop_in_place$LT$alloc..raw_vec..RawVec$LT$alloc..vec..Vec$LT$u16$GT$$GT$$GT$17hfda632b05e7dde2aE', symObjAddr: 0x5A00, symBinAddr: 0x100007C8C, symSize: 0x24 }
  - { offset: 0x92AF, size: 0x8, addend: 0x0, symName: '__ZN4core3ptr77drop_in_place$LT$alloc..raw_vec..RawVec$LT$alloc..vec..Vec$LT$u64$GT$$GT$$GT$17hdf340c3755e1579aE', symObjAddr: 0x5A24, symBinAddr: 0x100007CB0, symSize: 0x24 }
  - { offset: 0x92DE, size: 0x8, addend: 0x0, symName: '__ZN4core3ptr77drop_in_place$LT$alloc..vec..Vec$LT$gcrust_rt..gc..reflect..AllocSite$GT$$GT$17h68ce2c14b8e33ac9E', symObjAddr: 0x5A48, symBinAddr: 0x100007CD4, symSize: 0x5C }
  - { offset: 0x930D, size: 0x8, addend: 0x0, symName: '__ZN4core3ptr77drop_in_place$LT$alloc..vec..Vec$LT$gcrust_rt..gc..reflect..FieldMeta$GT$$GT$17h9228e20a05482c6cE', symObjAddr: 0x5AA4, symBinAddr: 0x100007D30, symSize: 0x5C }
  - { offset: 0x933C, size: 0x8, addend: 0x0, symName: '__ZN4core3ptr77drop_in_place$LT$alloc..vec..Vec$LT$gcrust_rt..gc..reflect..ValueMeta$GT$$GT$17h850ab91a868a8146E', symObjAddr: 0x5B00, symBinAddr: 0x100007D8C, symSize: 0x5C }
  - { offset: 0x936B, size: 0x8, addend: 0x0, symName: '__ZN4core3ptr77drop_in_place$LT$std..io..default_write_fmt..Adapter$LT$std..fs..File$GT$$GT$17hcfe53225b4923e38E', symObjAddr: 0x5B5C, symBinAddr: 0x100007DE8, symSize: 0x24 }
  - { offset: 0x939A, size: 0x8, addend: 0x0, symName: '__ZN4core3ptr78drop_in_place$LT$$u5b$gcrust_rt..gc..card_table..CardTable$u3b$$u20$2$u5d$$GT$17h4fdea25a09dfb872E', symObjAddr: 0x5B80, symBinAddr: 0x100007E0C, symSize: 0xA4 }
  - { offset: 0x93C9, size: 0x8, addend: 0x0, symName: '__ZN4core3ptr78drop_in_place$LT$alloc..sync..Arc$LT$std..thread..spawnhook..SpawnHook$GT$$GT$17h978f022eb6fee96fE', symObjAddr: 0x5C24, symBinAddr: 0x100007EB0, symSize: 0x24 }
  - { offset: 0x93F8, size: 0x8, addend: 0x0, symName: '__ZN4core3ptr78drop_in_place$LT$alloc..vec..Vec$LT$gcrust_rt..gc..heap..AllocSiteStat$GT$$GT$17hc1ebcd7635aac568E', symObjAddr: 0x5C48, symBinAddr: 0x100007ED4, symSize: 0x5C }
  - { offset: 0x9427, size: 0x8, addend: 0x0, symName: '__ZN4core3ptr78drop_in_place$LT$alloc..vec..Vec$LT$gcrust_rt..gc..thread..SiteCounter$GT$$GT$17h9429a86e9ce35350E', symObjAddr: 0x5CA4, symBinAddr: 0x100007F30, symSize: 0x5C }
  - { offset: 0x9456, size: 0x8, addend: 0x0, symName: '__ZN4core3ptr78drop_in_place$LT$alloc..vec..Vec$LT$gcrust_rt..gc..type_info..TypeInfo$GT$$GT$17h93ad4e8f85ed1dc0E', symObjAddr: 0x5D00, symBinAddr: 0x100007F8C, symSize: 0x5C }
  - { offset: 0x9485, size: 0x8, addend: 0x0, symName: '__ZN4core3ptr78drop_in_place$LT$std..collections..hash..map..HashMap$LT$usize$C$usize$GT$$GT$17h2183438460ea14a8E', symObjAddr: 0x5D5C, symBinAddr: 0x100007FE8, symSize: 0x24 }
  - { offset: 0x94B4, size: 0x8, addend: 0x0, symName: '__ZN4core3ptr79drop_in_place$LT$alloc..boxed..Box$LT$gcrust_rt..gc..alloc..AllocWindow$GT$$GT$17h438754a3d6e90fd1E', symObjAddr: 0x5D80, symBinAddr: 0x10000800C, symSize: 0x2C }
  - { offset: 0x94E3, size: 0x8, addend: 0x0, symName: '__ZN4core3ptr79drop_in_place$LT$alloc..raw_vec..RawVec$LT$$LP$$BP$mut$u20$u8$C$u16$RP$$GT$$GT$17h5b5d8664186b1e1fE', symObjAddr: 0x5DAC, symBinAddr: 0x100008038, symSize: 0x24 }
  - { offset: 0x9512, size: 0x8, addend: 0x0, symName: '__ZN4core3ptr79drop_in_place$LT$alloc..raw_vec..RawVec$LT$alloc..vec..Vec$LT$usize$GT$$GT$$GT$17h78abf4e4c4ec2f55E', symObjAddr: 0x5DD0, symBinAddr: 0x10000805C, symSize: 0x24 }
  - { offset: 0x9541, size: 0x8, addend: 0x0, symName: '__ZN4core3ptr79drop_in_place$LT$alloc..raw_vec..RawVec$LT$gcrust_rt..gc..heap..GcEvent$GT$$GT$17ha7f6d19c0ba8ddf5E', symObjAddr: 0x5DF4, symBinAddr: 0x100008080, symSize: 0x24 }
  - { offset: 0x9570, size: 0x8, addend: 0x0, symName: '__ZN4core3ptr79drop_in_place$LT$alloc..sync..Arc$LT$gcrust_rt..gc..thread..ThreadState$GT$$GT$17hdb1b1b2658169040E', symObjAddr: 0x5E18, symBinAddr: 0x1000080A4, symSize: 0x24 }
  - { offset: 0x959F, size: 0x8, addend: 0x0, symName: '__ZN4core3ptr79drop_in_place$LT$alloc..vec..Vec$LT$gcrust_rt..gc..reflect..VariantMeta$GT$$GT$17hb10cd7ae62e639d7E', symObjAddr: 0x5E3C, symBinAddr: 0x1000080C8, symSize: 0x5C }
  - { offset: 0x95CE, size: 0x8, addend: 0x0, symName: '__ZN4core3ptr79drop_in_place$LT$alloc..vec..Vec$LT$gcrust_rt..gc..statemap..TraceEvent$GT$$GT$17h8697710298e5c54aE', symObjAddr: 0x5E98, symBinAddr: 0x100008124, symSize: 0x5C }
  - { offset: 0x95FD, size: 0x8, addend: 0x0, symName: '__ZN4core3ptr80drop_in_place$LT$alloc..boxed..Box$LT$gcrust_rt..gc..roots..DynRootFrame$GT$$GT$17hb5516b9362712cd7E', symObjAddr: 0x5EF4, symBinAddr: 0x100008180, symSize: 0x60 }
  - { offset: 0x962C, size: 0x8, addend: 0x0, symName: '__ZN4core3ptr80drop_in_place$LT$alloc..vec..Vec$LT$$LP$$BP$mut$u20$u8$C$u16$C$usize$RP$$GT$$GT$17hfc22c068ba14fbebE', symObjAddr: 0x5F54, symBinAddr: 0x1000081E0, symSize: 0x5C }
  - { offset: 0x965B, size: 0x8, addend: 0x0, symName: '__ZN4core3ptr80drop_in_place$LT$core..slice..sort..shared..smallsort..CopyOnDrop$LT$u64$GT$$GT$17h54cd21e9cc14c4d3E', symObjAddr: 0x5FB0, symBinAddr: 0x10000823C, symSize: 0x24 }
  - { offset: 0x968A, size: 0x8, addend: 0x0, symName: '__ZN4core3ptr81drop_in_place$LT$alloc..vec..Vec$LT$core..sync..atomic..Atomic$LT$u64$GT$$GT$$GT$17h67efcff2fa9b5aa6E', symObjAddr: 0x5FD4, symBinAddr: 0x100008260, symSize: 0x5C }
  - { offset: 0x96B9, size: 0x8, addend: 0x0, symName: '__ZN4core3ptr81drop_in_place$LT$core..result..Result$LT$$LP$$RP$$C$std..io..error..Error$GT$$GT$17hf4b70730b78279c6E', symObjAddr: 0x6030, symBinAddr: 0x1000082BC, symSize: 0x44 }
  - { offset: 0x96E8, size: 0x8, addend: 0x0, symName: '__ZN4core3ptr82drop_in_place$LT$core..option..Option$LT$gcrust_rt..gc..heap..NurseryState$GT$$GT$17h0e3eea9357bf7377E', symObjAddr: 0x6074, symBinAddr: 0x100008300, symSize: 0x48 }
  - { offset: 0x9717, size: 0x8, addend: 0x0, symName: '__ZN4core3ptr82drop_in_place$LT$core..slice..sort..shared..smallsort..CopyOnDrop$LT$usize$GT$$GT$17hdfa45ae8ccfd1a3aE', symObjAddr: 0x60BC, symBinAddr: 0x100008348, symSize: 0x24 }
  - { offset: 0x9746, size: 0x8, addend: 0x0, symName: '__ZN4core3ptr83drop_in_place$LT$$u5b$gcrust_rt..gc..alloc..AtomicBumpAllocator$u3b$$u20$2$u5d$$GT$17h86796c25229bc33dE', symObjAddr: 0x60E0, symBinAddr: 0x10000836C, symSize: 0xB4 }
  - { offset: 0x9775, size: 0x8, addend: 0x0, symName: '__ZN4core3ptr83drop_in_place$LT$alloc..raw_vec..RawVec$LT$gcrust_rt..gc..reflect..TypeMeta$GT$$GT$17hefdc53f5ebea215bE', symObjAddr: 0x6194, symBinAddr: 0x100008420, symSize: 0x24 }
  - { offset: 0x97A4, size: 0x8, addend: 0x0, symName: '__ZN4core3ptr83drop_in_place$LT$core..slice..sort..unstable..quicksort..GapGuardRaw$LT$u64$GT$$GT$17h357faa5a16685f7dE', symObjAddr: 0x61B8, symBinAddr: 0x100008444, symSize: 0x24 }
  - { offset: 0x97D3, size: 0x8, addend: 0x0, symName: '__ZN4core3ptr84drop_in_place$LT$alloc..raw_vec..RawVec$LT$gcrust_rt..gc..reflect..AllocSite$GT$$GT$17hbb1b19d81c854abfE', symObjAddr: 0x61DC, symBinAddr: 0x100008468, symSize: 0x24 }
  - { offset: 0x9802, size: 0x8, addend: 0x0, symName: '__ZN4core3ptr84drop_in_place$LT$alloc..raw_vec..RawVec$LT$gcrust_rt..gc..reflect..FieldMeta$GT$$GT$17h4e82d0d8ee5b8e3aE', symObjAddr: 0x6200, symBinAddr: 0x10000848C, symSize: 0x24 }
  - { offset: 0x9831, size: 0x8, addend: 0x0, symName: '__ZN4core3ptr84drop_in_place$LT$alloc..raw_vec..RawVec$LT$gcrust_rt..gc..reflect..ValueMeta$GT$$GT$17hd9334d916dceb1b9E', symObjAddr: 0x6224, symBinAddr: 0x1000084B0, symSize: 0x24 }
  - { offset: 0x9860, size: 0x8, addend: 0x0, symName: '__ZN4core3ptr84drop_in_place$LT$alloc..sync..Arc$LT$gcrust_rt..gc..statemap..StatemapTracer$GT$$GT$17h47195ee2298a6ca5E', symObjAddr: 0x6248, symBinAddr: 0x1000084D4, symSize: 0x24 }
  - { offset: 0x988F, size: 0x8, addend: 0x0, symName: '__ZN4core3ptr84drop_in_place$LT$alloc..sync..ArcInner$LT$gcrust_rt..gc..thread..ThreadState$GT$$GT$17heed09d2ee022ef40E', symObjAddr: 0x626C, symBinAddr: 0x1000084F8, symSize: 0x24 }
  - { offset: 0x98BE, size: 0x8, addend: 0x0, symName: '__ZN4core3ptr84drop_in_place$LT$gcrust_rt..runtime..ai_thread_join..$u7b$$u7b$closure$u7d$$u7d$$GT$17h0e76e13c9663c3f5E', symObjAddr: 0x6290, symBinAddr: 0x10000851C, symSize: 0x24 }
  - { offset: 0x98ED, size: 0x8, addend: 0x0, symName: '__ZN4core3ptr85drop_in_place$LT$alloc..boxed..Box$LT$std..sys..pal..unix..sync..mutex..Mutex$GT$$GT$17hea3def161506befbE', symObjAddr: 0x62B4, symBinAddr: 0x100008540, symSize: 0x60 }
  - { offset: 0x991C, size: 0x8, addend: 0x0, symName: '__ZN4core3ptr85drop_in_place$LT$alloc..raw_vec..RawVec$LT$gcrust_rt..gc..heap..AllocSiteStat$GT$$GT$17h3901ac06ec3ff817E', symObjAddr: 0x6314, symBinAddr: 0x1000085A0, symSize: 0x24 }
  - { offset: 0x994B, size: 0x8, addend: 0x0, symName: '__ZN4core3ptr85drop_in_place$LT$alloc..raw_vec..RawVec$LT$gcrust_rt..gc..thread..SiteCounter$GT$$GT$17hd37326f92058ae35E', symObjAddr: 0x6338, symBinAddr: 0x1000085C4, symSize: 0x24 }
  - { offset: 0x997A, size: 0x8, addend: 0x0, symName: '__ZN4core3ptr85drop_in_place$LT$alloc..raw_vec..RawVec$LT$gcrust_rt..gc..type_info..TypeInfo$GT$$GT$17ha93a32aedf2fcd73E', symObjAddr: 0x635C, symBinAddr: 0x1000085E8, symSize: 0x24 }
  - { offset: 0x99A9, size: 0x8, addend: 0x0, symName: '__ZN4core3ptr85drop_in_place$LT$core..cell..UnsafeCell$LT$gcrust_rt..gc..barrier..SATBBuffer$GT$$GT$17hbe3027666427f1abE', symObjAddr: 0x6380, symBinAddr: 0x10000860C, symSize: 0x24 }
  - { offset: 0x99D8, size: 0x8, addend: 0x0, symName: '__ZN4core3ptr85drop_in_place$LT$core..slice..sort..unstable..quicksort..GapGuardRaw$LT$usize$GT$$GT$17h65d9a917db35fb5bE', symObjAddr: 0x63A4, symBinAddr: 0x100008630, symSize: 0x24 }
  - { offset: 0x9A07, size: 0x8, addend: 0x0, symName: '__ZN4core3ptr85drop_in_place$LT$gcrust_rt..runtime..ai_thread_spawn..$u7b$$u7b$closure$u7d$$u7d$$GT$17h4b4211b50349ce1dE', symObjAddr: 0x63C8, symBinAddr: 0x100008654, symSize: 0x24 }
  - { offset: 0x9A36, size: 0x8, addend: 0x0, symName: '__ZN4core3ptr86drop_in_place$LT$alloc..raw_vec..RawVec$LT$gcrust_rt..gc..reflect..VariantMeta$GT$$GT$17had8919d3141cd9c4E', symObjAddr: 0x63EC, symBinAddr: 0x100008678, symSize: 0x24 }
  - { offset: 0x9A65, size: 0x8, addend: 0x0, symName: '__ZN4core3ptr86drop_in_place$LT$alloc..raw_vec..RawVec$LT$gcrust_rt..gc..statemap..TraceEvent$GT$$GT$17hf795f963edadb03aE', symObjAddr: 0x6410, symBinAddr: 0x10000869C, symSize: 0x24 }
  - { offset: 0x9A94, size: 0x8, addend: 0x0, symName: '__ZN4core3ptr86drop_in_place$LT$alloc..sync..Arc$LT$std..thread..lifecycle..Packet$LT$u64$GT$$GT$$GT$17h0afb4bfe8c689542E', symObjAddr: 0x6434, symBinAddr: 0x1000086C0, symSize: 0x24 }
  - { offset: 0x9AC3, size: 0x8, addend: 0x0, symName: '__ZN4core3ptr86drop_in_place$LT$alloc..vec..into_iter..IntoIter$LT$alloc..vec..Vec$LT$u64$GT$$GT$$GT$17h6ca9c6ca70ca9ad4E', symObjAddr: 0x6458, symBinAddr: 0x1000086E4, symSize: 0x24 }
  - { offset: 0x9AF2, size: 0x8, addend: 0x0, symName: '__ZN4core3ptr87drop_in_place$LT$alloc..raw_vec..RawVec$LT$$LP$$BP$mut$u20$u8$C$u16$C$usize$RP$$GT$$GT$17h9767e8b24e40bed1E', symObjAddr: 0x647C, symBinAddr: 0x100008708, symSize: 0x24 }
  - { offset: 0x9B21, size: 0x8, addend: 0x0, symName: '__ZN4core3ptr88drop_in_place$LT$alloc..raw_vec..RawVec$LT$core..sync..atomic..Atomic$LT$u64$GT$$GT$$GT$17hf4638e668d24cc6aE', symObjAddr: 0x64A0, symBinAddr: 0x10000872C, symSize: 0x24 }
  - { offset: 0x9B50, size: 0x8, addend: 0x0, symName: '__ZN4core3ptr88drop_in_place$LT$alloc..vec..into_iter..IntoIter$LT$gcrust_rt..gc..heap..GcEvent$GT$$GT$17h9d2c577884c6a02cE', symObjAddr: 0x64C4, symBinAddr: 0x100008750, symSize: 0x24 }
  - { offset: 0x9B7F, size: 0x8, addend: 0x0, symName: '__ZN4core3ptr89drop_in_place$LT$$u5b$alloc..sync..Arc$LT$gcrust_rt..gc..thread..ThreadState$GT$$u5d$$GT$17h9c860d9fe9aec092E', symObjAddr: 0x64E8, symBinAddr: 0x100008774, symSize: 0xB4 }
  - { offset: 0x9BAE, size: 0x8, addend: 0x0, symName: '__ZN4core3ptr89drop_in_place$LT$alloc..boxed..Box$LT$std..sys..pal..unix..sync..condvar..Condvar$GT$$GT$17h88f03a18923a65a6E', symObjAddr: 0x659C, symBinAddr: 0x100008828, symSize: 0x60 }
  - { offset: 0x9BDD, size: 0x8, addend: 0x0, symName: '__ZN4core3ptr89drop_in_place$LT$alloc..vec..Vec$LT$$LP$$RF$alloc..string..String$C$$RF$usize$RP$$GT$$GT$17hfa83b158f31313d8E', symObjAddr: 0x65FC, symBinAddr: 0x100008888, symSize: 0x5C }
  - { offset: 0x9C0C, size: 0x8, addend: 0x0, symName: '__ZN4core3ptr89drop_in_place$LT$alloc..vec..Vec$LT$$LP$alloc..string..String$C$usize$C$usize$RP$$GT$$GT$17he696791b566c9771E', symObjAddr: 0x6658, symBinAddr: 0x1000088E4, symSize: 0x5C }
  - { offset: 0x9C3B, size: 0x8, addend: 0x0, symName: '__ZN4core3ptr89drop_in_place$LT$core..hint..select_unpredictable..DropOnPanic$LT$$BP$mut$u20$u64$GT$$GT$17hb4345270a32d5658E', symObjAddr: 0x66B4, symBinAddr: 0x100008940, symSize: 0x24 }
  - { offset: 0x9C6A, size: 0x8, addend: 0x0, symName: '__ZN4core3ptr89drop_in_place$LT$std..sync..poison..mutex..Mutex$LT$gcrust_rt..runtime..ChanState$GT$$GT$17h53612a4543716718E', symObjAddr: 0x66D8, symBinAddr: 0x100008964, symSize: 0x24 }
  - { offset: 0x9C99, size: 0x8, addend: 0x0, symName: '__ZN4core3ptr90drop_in_place$LT$hashbrown..raw..RawTable$LT$$LP$alloc..string..String$C$usize$RP$$GT$$GT$17h1f0bdeb27cb93268E', symObjAddr: 0x66FC, symBinAddr: 0x100008988, symSize: 0x24 }
  - { offset: 0x9CC8, size: 0x8, addend: 0x0, symName: '__ZN4core3ptr91drop_in_place$LT$alloc..boxed..Box$LT$dyn$u20$core..any..Any$u2b$core..marker..Send$GT$$GT$17h9c732c332e043b10E', symObjAddr: 0x6720, symBinAddr: 0x1000089AC, symSize: 0x80 }
  - { offset: 0x9CF7, size: 0x8, addend: 0x0, symName: '__ZN4core3ptr91drop_in_place$LT$alloc..sync..ArcInner$LT$std..thread..lifecycle..Packet$LT$u64$GT$$GT$$GT$17hb88e557382d856aeE', symObjAddr: 0x67A0, symBinAddr: 0x100008A2C, symSize: 0x24 }
  - { offset: 0x9D26, size: 0x8, addend: 0x0, symName: '__ZN4core3ptr91drop_in_place$LT$core..hint..select_unpredictable..DropOnPanic$LT$$BP$const$u20$u64$GT$$GT$17h0f2337afeae14a85E', symObjAddr: 0x67C4, symBinAddr: 0x100008A50, symSize: 0x24 }
  - { offset: 0x9D55, size: 0x8, addend: 0x0, symName: '__ZN4core3ptr91drop_in_place$LT$core..hint..select_unpredictable..DropOnPanic$LT$$BP$mut$u20$usize$GT$$GT$17h4aed5be1f06d8b5aE', symObjAddr: 0x67E8, symBinAddr: 0x100008A74, symSize: 0x24 }
  - { offset: 0x9D84, size: 0x8, addend: 0x0, symName: '__ZN4core3ptr91drop_in_place$LT$core..option..Option$LT$alloc..vec..into_iter..IntoIter$LT$u64$GT$$GT$$GT$17h29017e05fa803cf3E', symObjAddr: 0x680C, symBinAddr: 0x100008A98, symSize: 0x44 }
  - { offset: 0x9DB3, size: 0x8, addend: 0x0, symName: '__ZN4core3ptr91drop_in_place$LT$core..result..Result$LT$alloc..string..String$C$std..env..VarError$GT$$GT$17h7fca55d325e88a48E', symObjAddr: 0x6850, symBinAddr: 0x100008ADC, symSize: 0x50 }
  - { offset: 0x9DE2, size: 0x8, addend: 0x0, symName: '__ZN4core3ptr925drop_in_place$LT$$LT$core..iter..adapters..enumerate..Enumerate$LT$I$GT$$u20$as$u20$core..iter..traits..iterator..Iterator$GT$..fold..enumerate$LT$$RF$gcrust_rt..runtime..AotLayout$C$$LP$$RP$$C$core..iter..adapters..map..map_fold$LT$$LP$usize$C$$RF$gcrust_rt..runtime..AotLayout$RP$$C$gcrust_rt..gc..type_info..TypeInfo$C$$LP$$RP$$C$gcrust_rt..runtime..gcr_runtime_main..$u7b$$u7b$closure$u7d$$u7d$$C$core..iter..traits..iterator..Iterator..for_each..call$LT$gcrust_rt..gc..type_info..TypeInfo$C$alloc..vec..Vec$LT$gcrust_rt..gc..type_info..TypeInfo$GT$..extend_trusted$LT$core..iter..adapters..map..Map$LT$core..iter..adapters..enumerate..Enumerate$LT$core..slice..iter..Iter$LT$gcrust_rt..runtime..AotLayout$GT$$GT$$C$gcrust_rt..runtime..gcr_runtime_main..$u7b$$u7b$closure$u7d$$u7d$$GT$$GT$..$u7b$$u7b$closure$u7d$$u7d$$GT$..$u7b$$u7b$closure$u7d$$u7d$$GT$..$u7b$$u7b$closure$u7d$$u7d$$GT$..$u7b$$u7b$closure$u7d$$u7d$$GT$17h1bd7a7f2a52485e1E', symObjAddr: 0x68A0, symBinAddr: 0x100008B2C, symSize: 0x24 }
  - { offset: 0x9E11, size: 0x8, addend: 0x0, symName: '__ZN4core3ptr92drop_in_place$LT$alloc..sync..Arc$LT$std..thread..thread..Inner$C$std..alloc..System$GT$$GT$17h04d63ea41e4537a2E', symObjAddr: 0x68C4, symBinAddr: 0x100008B50, symSize: 0x24 }
  - { offset: 0x9E40, size: 0x8, addend: 0x0, symName: '__ZN4core3ptr93drop_in_place$LT$core..array..iter..IntoIter$LT$gcrust_rt..gc..heap..GcKind$C$3_usize$GT$$GT$17h114c6778dc93ea01E', symObjAddr: 0x68E8, symBinAddr: 0x100008B74, symSize: 0x24 }
  - { offset: 0x9E6F, size: 0x8, addend: 0x0, symName: '__ZN4core3ptr93drop_in_place$LT$core..hint..select_unpredictable..DropOnPanic$LT$$BP$const$u20$usize$GT$$GT$17h41f912a54c12ca5aE', symObjAddr: 0x690C, symBinAddr: 0x100008B98, symSize: 0x24 }
  - { offset: 0x9E9E, size: 0x8, addend: 0x0, symName: '__ZN4core3ptr93drop_in_place$LT$dyn$u20$core..error..Error$u2b$core..marker..Sync$u2b$core..marker..Send$GT$17h79a4ce739446b0caE', symObjAddr: 0x6930, symBinAddr: 0x100008BBC, symSize: 0x48 }
  - { offset: 0x9ECD, size: 0x8, addend: 0x0, symName: '__ZN4core3ptr93drop_in_place$LT$hashbrown..raw..RawTable$LT$$LP$$u5b$u8$u3b$$u20$32$u5d$$C$usize$RP$$GT$$GT$17h3e6ea78353701693E', symObjAddr: 0x6978, symBinAddr: 0x100008C04, symSize: 0x24 }
  - { offset: 0x9EFC, size: 0x8, addend: 0x0, symName: '__ZN4core3ptr93drop_in_place$LT$std..io..default_write_fmt..Adapter$LT$std..sys..stdio..unix..Stderr$GT$$GT$17hda890cc7b3c27eaeE', symObjAddr: 0x699C, symBinAddr: 0x100008C28, symSize: 0x24 }
  - { offset: 0x9F2B, size: 0x8, addend: 0x0, symName: '__ZN4core3ptr94drop_in_place$LT$core..slice..sort..stable..merge..MergeState$LT$$LP$usize$C$usize$RP$$GT$$GT$17h8f395366db651287E', symObjAddr: 0x69C0, symBinAddr: 0x100008C4C, symSize: 0x24 }
  - { offset: 0x9F5A, size: 0x8, addend: 0x0, symName: '__ZN4core3ptr94drop_in_place$LT$std..collections..hash..map..HashMap$LT$alloc..string..String$C$usize$GT$$GT$17h07dc08b755cf5544E', symObjAddr: 0x69E4, symBinAddr: 0x100008C70, symSize: 0x24 }
  - { offset: 0x9F89, size: 0x8, addend: 0x0, symName: '__ZN4core3ptr94drop_in_place$LT$std..sync..poison..mutex..MutexGuard$LT$gcrust_rt..runtime..ChanState$GT$$GT$17hdfd1e02e5ad0e7feE', symObjAddr: 0x6A08, symBinAddr: 0x100008C94, symSize: 0x24 }
  - { offset: 0x9FB8, size: 0x8, addend: 0x0, symName: '__ZN4core3ptr96drop_in_place$LT$alloc..raw_vec..RawVec$LT$$LP$$RF$alloc..string..String$C$$RF$usize$RP$$GT$$GT$17h6c5306ac6957d7cbE', symObjAddr: 0x6A2C, symBinAddr: 0x100008CB8, symSize: 0x24 }
  - { offset: 0x9FE7, size: 0x8, addend: 0x0, symName: '__ZN4core3ptr96drop_in_place$LT$alloc..raw_vec..RawVec$LT$$LP$alloc..string..String$C$usize$C$usize$RP$$GT$$GT$17ha785b4180dcaab11E', symObjAddr: 0x6A50, symBinAddr: 0x100008CDC, symSize: 0x24 }
  - { offset: 0xA016, size: 0x8, addend: 0x0, symName: '__ZN4core3ptr96drop_in_place$LT$core..option..Option$LT$std..thread..join_handle..JoinHandle$LT$u64$GT$$GT$$GT$17h416be8b630e659e2E', symObjAddr: 0x6A74, symBinAddr: 0x100008D00, symSize: 0x44 }
  - { offset: 0xA045, size: 0x8, addend: 0x0, symName: '__ZN4core3ptr97drop_in_place$LT$std..collections..hash..map..HashMap$LT$$u5b$u8$u3b$$u20$32$u5d$$C$usize$GT$$GT$17hd183469a43baf7feE', symObjAddr: 0x6AB8, symBinAddr: 0x100008D44, symSize: 0x24 }
  - { offset: 0xA074, size: 0x8, addend: 0x0, symName: '__ZN4core3ptr98drop_in_place$LT$alloc..sync..Weak$LT$gcrust_rt..gc..heap..Heap$C$$RF$alloc..alloc..Global$GT$$GT$17haf15eda05714cc3eE', symObjAddr: 0x6ADC, symBinAddr: 0x100008D68, symSize: 0x24 }
  - { offset: 0xA0A3, size: 0x8, addend: 0x0, symName: '__ZN4core3ptr98drop_in_place$LT$alloc..vec..Vec$LT$$BP$const$u20$dyn$u20$gcrust_rt..gc..roots..RootSource$GT$$GT$17h9916991e6c3480a8E', symObjAddr: 0x6B00, symBinAddr: 0x100008D8C, symSize: 0x5C }
  - { offset: 0xA0D2, size: 0x8, addend: 0x0, symName: '__ZN4core3ptr98drop_in_place$LT$core..result..Result$LT$alloc..vec..Vec$LT$u8$GT$$C$std..io..error..Error$GT$$GT$17hb70975264ec83842E', symObjAddr: 0x6B5C, symBinAddr: 0x100008DE8, symSize: 0x5C }
  - { offset: 0xA101, size: 0x8, addend: 0x0, symName: '__ZN4core3ptr98drop_in_place$LT$core..slice..sort..shared..smallsort..CopyOnDrop$LT$$LP$usize$C$usize$RP$$GT$$GT$17h7daf1b5267b29a57E', symObjAddr: 0x6BB8, symBinAddr: 0x100008E44, symSize: 0x24 }
  - { offset: 0xA130, size: 0x8, addend: 0x0, symName: '__ZN4core3ptr98drop_in_place$LT$hashbrown..map..HashMap$LT$usize$C$usize$C$std..hash..random..RandomState$GT$$GT$17h55ac308e6964b3c2E', symObjAddr: 0x6BDC, symBinAddr: 0x100008E68, symSize: 0x24 }
  - { offset: 0xA15F, size: 0x8, addend: 0x0, symName: '__ZN4core3ptr98drop_in_place$LT$hashbrown..map..IntoIter$LT$alloc..string..String$C$$LP$usize$C$usize$RP$$GT$$GT$17h8222eeeac7fa9c73E', symObjAddr: 0x6C00, symBinAddr: 0x100008E8C, symSize: 0x24 }
  - { offset: 0xA5F8, size: 0x8, addend: 0x0, symName: '__ZN102_$LT$core..slice..sort..unstable..quicksort..GapGuardRaw$LT$T$GT$$u20$as$u20$core..ops..drop..Drop$GT$4drop17h156bb0fa902173abE', symObjAddr: 0x0, symBinAddr: 0x10000228C, symSize: 0x80 }
  - { offset: 0xA651, size: 0x8, addend: 0x0, symName: '__ZN102_$LT$core..slice..sort..unstable..quicksort..GapGuardRaw$LT$T$GT$$u20$as$u20$core..ops..drop..Drop$GT$4drop17h88ad71a1ba5ef42fE', symObjAddr: 0x80, symBinAddr: 0x10000230C, symSize: 0x80 }
  - { offset: 0xA710, size: 0x8, addend: 0x0, symName: '__ZN95_$LT$core..slice..sort..stable..merge..MergeState$LT$T$GT$$u20$as$u20$core..ops..drop..Drop$GT$4drop17h56603d962fa7d316E', symObjAddr: 0x994C, symBinAddr: 0x10000BBD8, symSize: 0xF4 }
  - { offset: 0xA7D9, size: 0x8, addend: 0x0, symName: '__ZN95_$LT$core..slice..sort..stable..merge..MergeState$LT$T$GT$$u20$as$u20$core..ops..drop..Drop$GT$4drop17h9a930d3162fa0030E', symObjAddr: 0x9A40, symBinAddr: 0x10000BCCC, symSize: 0xF4 }
  - { offset: 0xA8A2, size: 0x8, addend: 0x0, symName: '__ZN95_$LT$core..slice..sort..stable..merge..MergeState$LT$T$GT$$u20$as$u20$core..ops..drop..Drop$GT$4drop17hb683f81c036846c5E', symObjAddr: 0x9B34, symBinAddr: 0x10000BDC0, symSize: 0xF4 }
  - { offset: 0xA96B, size: 0x8, addend: 0x0, symName: '__ZN95_$LT$core..slice..sort..stable..merge..MergeState$LT$T$GT$$u20$as$u20$core..ops..drop..Drop$GT$4drop17he5f8e8d82c822c76E', symObjAddr: 0x9C28, symBinAddr: 0x10000BEB4, symSize: 0xF0 }
  - { offset: 0xAA34, size: 0x8, addend: 0x0, symName: '__ZN95_$LT$core..slice..sort..stable..merge..MergeState$LT$T$GT$$u20$as$u20$core..ops..drop..Drop$GT$4drop17hef743fe194a8ccd0E', symObjAddr: 0x9D18, symBinAddr: 0x10000BFA4, symSize: 0xF0 }
  - { offset: 0xAC1D, size: 0x8, addend: 0x0, symName: '__ZN99_$LT$core..slice..sort..shared..smallsort..CopyOnDrop$LT$T$GT$$u20$as$u20$core..ops..drop..Drop$GT$4drop17h0f4f734cf3e37452E', symObjAddr: 0x9F04, symBinAddr: 0x10000C190, symSize: 0x88 }
  - { offset: 0xAC7E, size: 0x8, addend: 0x0, symName: '__ZN99_$LT$core..slice..sort..shared..smallsort..CopyOnDrop$LT$T$GT$$u20$as$u20$core..ops..drop..Drop$GT$4drop17h3e1c518c8252b095E', symObjAddr: 0x9F8C, symBinAddr: 0x10000C218, symSize: 0x8C }
  - { offset: 0xACDF, size: 0x8, addend: 0x0, symName: '__ZN99_$LT$core..slice..sort..shared..smallsort..CopyOnDrop$LT$T$GT$$u20$as$u20$core..ops..drop..Drop$GT$4drop17h8545717e3dca2448E', symObjAddr: 0xA018, symBinAddr: 0x10000C2A4, symSize: 0x8C }
  - { offset: 0xAD40, size: 0x8, addend: 0x0, symName: '__ZN99_$LT$core..slice..sort..shared..smallsort..CopyOnDrop$LT$T$GT$$u20$as$u20$core..ops..drop..Drop$GT$4drop17ha6ebce8502cd874fE', symObjAddr: 0xA0A4, symBinAddr: 0x10000C330, symSize: 0x84 }
  - { offset: 0xADA1, size: 0x8, addend: 0x0, symName: '__ZN99_$LT$core..slice..sort..shared..smallsort..CopyOnDrop$LT$T$GT$$u20$as$u20$core..ops..drop..Drop$GT$4drop17hc52fa1f470553254E', symObjAddr: 0xA128, symBinAddr: 0x10000C3B4, symSize: 0x88 }
  - { offset: 0xAE02, size: 0x8, addend: 0x0, symName: '__ZN99_$LT$core..slice..sort..shared..smallsort..CopyOnDrop$LT$T$GT$$u20$as$u20$core..ops..drop..Drop$GT$4drop17hc95fa1e5d67c1982E', symObjAddr: 0xA1B0, symBinAddr: 0x10000C43C, symSize: 0x8C }
  - { offset: 0xAE63, size: 0x8, addend: 0x0, symName: '__ZN99_$LT$core..slice..sort..shared..smallsort..CopyOnDrop$LT$T$GT$$u20$as$u20$core..ops..drop..Drop$GT$4drop17he78c15dc9479ede2E', symObjAddr: 0xA23C, symBinAddr: 0x10000C4C8, symSize: 0x84 }
  - { offset: 0xC6D9, size: 0x8, addend: 0x0, symName: __ZN4core3ops8function5FnMut8call_mut17h207235d8a00c27bbE, symObjAddr: 0x63C, symBinAddr: 0x1000028C8, symSize: 0x30 }
  - { offset: 0xC71D, size: 0x8, addend: 0x0, symName: __ZN4core3ops8function5FnMut8call_mut17h85301721674ed8a1E, symObjAddr: 0x66C, symBinAddr: 0x1000028F8, symSize: 0x28 }
  - { offset: 0xC761, size: 0x8, addend: 0x0, symName: __ZN4core3ops8function5FnMut8call_mut17hbfb60bc8a84bedeeE, symObjAddr: 0x694, symBinAddr: 0x100002920, symSize: 0x40 }
  - { offset: 0xC7CA, size: 0x8, addend: 0x0, symName: __ZN4core3ops8function5FnMut8call_mut17he785aca47b7d6c24E, symObjAddr: 0x6D4, symBinAddr: 0x100002960, symSize: 0x40 }
  - { offset: 0xC833, size: 0x8, addend: 0x0, symName: __ZN4core3ops8function5FnMut8call_mut17hfb9c03cb777fadecE, symObjAddr: 0x714, symBinAddr: 0x1000029A0, symSize: 0x28 }
  - { offset: 0xC87D, size: 0x8, addend: 0x0, symName: '__ZN4core3ops8function6FnOnce40call_once$u7b$$u7b$vtable.shim$u7d$$u7d$17h04db47419b51b015E', symObjAddr: 0x73C, symBinAddr: 0x1000029C8, symSize: 0x30 }
  - { offset: 0xC8BD, size: 0x8, addend: 0x0, symName: '__ZN4core3ops8function6FnOnce40call_once$u7b$$u7b$vtable.shim$u7d$$u7d$17h068498f434fcba67E', symObjAddr: 0x76C, symBinAddr: 0x1000029F8, symSize: 0x38 }
  - { offset: 0xC901, size: 0x8, addend: 0x0, symName: '__ZN4core3ops8function6FnOnce40call_once$u7b$$u7b$vtable.shim$u7d$$u7d$17h0bb7993bce80fd36E', symObjAddr: 0x7A4, symBinAddr: 0x100002A30, symSize: 0x40 }
  - { offset: 0xC941, size: 0x8, addend: 0x0, symName: '__ZN4core3ops8function6FnOnce40call_once$u7b$$u7b$vtable.shim$u7d$$u7d$17h0c234bbc9e08b53aE', symObjAddr: 0x7E4, symBinAddr: 0x100002A70, symSize: 0x30 }
  - { offset: 0xC981, size: 0x8, addend: 0x0, symName: '__ZN4core3ops8function6FnOnce40call_once$u7b$$u7b$vtable.shim$u7d$$u7d$17h0fd157b95dcff88bE', symObjAddr: 0x814, symBinAddr: 0x100002AA0, symSize: 0x30 }
  - { offset: 0xC9C1, size: 0x8, addend: 0x0, symName: '__ZN4core3ops8function6FnOnce40call_once$u7b$$u7b$vtable.shim$u7d$$u7d$17h1a1001621ad3bed7E', symObjAddr: 0x844, symBinAddr: 0x100002AD0, symSize: 0x38 }
  - { offset: 0xCA01, size: 0x8, addend: 0x0, symName: '__ZN4core3ops8function6FnOnce40call_once$u7b$$u7b$vtable.shim$u7d$$u7d$17h2dea1258cebed72cE', symObjAddr: 0x87C, symBinAddr: 0x100002B08, symSize: 0x30 }
  - { offset: 0xCA41, size: 0x8, addend: 0x0, symName: '__ZN4core3ops8function6FnOnce40call_once$u7b$$u7b$vtable.shim$u7d$$u7d$17h2e6241cd83dcd139E', symObjAddr: 0x8AC, symBinAddr: 0x100002B38, symSize: 0x30 }
  - { offset: 0xCA81, size: 0x8, addend: 0x0, symName: '__ZN4core3ops8function6FnOnce40call_once$u7b$$u7b$vtable.shim$u7d$$u7d$17h330884d10a0a6e5dE', symObjAddr: 0x8DC, symBinAddr: 0x100002B68, symSize: 0x30 }
  - { offset: 0xCAC1, size: 0x8, addend: 0x0, symName: '__ZN4core3ops8function6FnOnce40call_once$u7b$$u7b$vtable.shim$u7d$$u7d$17h39bc4a65eb920cb1E', symObjAddr: 0x90C, symBinAddr: 0x100002B98, symSize: 0x38 }
  - { offset: 0xCB01, size: 0x8, addend: 0x0, symName: '__ZN4core3ops8function6FnOnce40call_once$u7b$$u7b$vtable.shim$u7d$$u7d$17h3abad91df38fbf74E', symObjAddr: 0x944, symBinAddr: 0x100002BD0, symSize: 0x30 }
  - { offset: 0xCB41, size: 0x8, addend: 0x0, symName: '__ZN4core3ops8function6FnOnce40call_once$u7b$$u7b$vtable.shim$u7d$$u7d$17h4724f005f4b407b2E', symObjAddr: 0x974, symBinAddr: 0x100002C00, symSize: 0x30 }
  - { offset: 0xCB81, size: 0x8, addend: 0x0, symName: '__ZN4core3ops8function6FnOnce40call_once$u7b$$u7b$vtable.shim$u7d$$u7d$17h4c7b621919e8f7fcE', symObjAddr: 0x9A4, symBinAddr: 0x100002C30, symSize: 0x30 }
  - { offset: 0xCBC1, size: 0x8, addend: 0x0, symName: '__ZN4core3ops8function6FnOnce40call_once$u7b$$u7b$vtable.shim$u7d$$u7d$17h658d36b8db34355fE', symObjAddr: 0x9D4, symBinAddr: 0x100002C60, symSize: 0x38 }
  - { offset: 0xCC05, size: 0x8, addend: 0x0, symName: '__ZN4core3ops8function6FnOnce40call_once$u7b$$u7b$vtable.shim$u7d$$u7d$17h75689e32e4565e07E', symObjAddr: 0xA0C, symBinAddr: 0x100002C98, symSize: 0x30 }
  - { offset: 0xCC45, size: 0x8, addend: 0x0, symName: '__ZN4core3ops8function6FnOnce40call_once$u7b$$u7b$vtable.shim$u7d$$u7d$17h77ac02762cfd16adE', symObjAddr: 0xA3C, symBinAddr: 0x100002CC8, symSize: 0x38 }
  - { offset: 0xCC89, size: 0x8, addend: 0x0, symName: '__ZN4core3ops8function6FnOnce40call_once$u7b$$u7b$vtable.shim$u7d$$u7d$17h8192865cb28fdcf1E', symObjAddr: 0xA74, symBinAddr: 0x100002D00, symSize: 0x30 }
  - { offset: 0xCCC9, size: 0x8, addend: 0x0, symName: '__ZN4core3ops8function6FnOnce40call_once$u7b$$u7b$vtable.shim$u7d$$u7d$17h876e4531758459a5E', symObjAddr: 0xAA4, symBinAddr: 0x100002D30, symSize: 0x30 }
  - { offset: 0xCD09, size: 0x8, addend: 0x0, symName: '__ZN4core3ops8function6FnOnce40call_once$u7b$$u7b$vtable.shim$u7d$$u7d$17h8e139e27cfd83a82E', symObjAddr: 0xAD4, symBinAddr: 0x100002D60, symSize: 0x40 }
  - { offset: 0xCD49, size: 0x8, addend: 0x0, symName: '__ZN4core3ops8function6FnOnce40call_once$u7b$$u7b$vtable.shim$u7d$$u7d$17h8fb1b009e74fa853E', symObjAddr: 0xB14, symBinAddr: 0x100002DA0, symSize: 0x30 }
  - { offset: 0xCD89, size: 0x8, addend: 0x0, symName: '__ZN4core3ops8function6FnOnce40call_once$u7b$$u7b$vtable.shim$u7d$$u7d$17ha107d00cb840f066E', symObjAddr: 0xB44, symBinAddr: 0x100002DD0, symSize: 0x24 }
  - { offset: 0xCDC9, size: 0x8, addend: 0x0, symName: '__ZN4core3ops8function6FnOnce40call_once$u7b$$u7b$vtable.shim$u7d$$u7d$17ha2905c0e3866ceadE', symObjAddr: 0xB68, symBinAddr: 0x100002DF4, symSize: 0x38 }
  - { offset: 0xCE09, size: 0x8, addend: 0x0, symName: '__ZN4core3ops8function6FnOnce40call_once$u7b$$u7b$vtable.shim$u7d$$u7d$17hacf33bbcb88f6c07E', symObjAddr: 0xBA0, symBinAddr: 0x100002E2C, symSize: 0x38 }
  - { offset: 0xCE4D, size: 0x8, addend: 0x0, symName: '__ZN4core3ops8function6FnOnce40call_once$u7b$$u7b$vtable.shim$u7d$$u7d$17hafcd99efc6ba843dE', symObjAddr: 0xBD8, symBinAddr: 0x100002E64, symSize: 0x38 }
  - { offset: 0xCE91, size: 0x8, addend: 0x0, symName: '__ZN4core3ops8function6FnOnce40call_once$u7b$$u7b$vtable.shim$u7d$$u7d$17hb0737cfbe1706591E', symObjAddr: 0xC10, symBinAddr: 0x100002E9C, symSize: 0x38 }
  - { offset: 0xCED1, size: 0x8, addend: 0x0, symName: '__ZN4core3ops8function6FnOnce40call_once$u7b$$u7b$vtable.shim$u7d$$u7d$17hc8d74e1cec03c562E', symObjAddr: 0xC48, symBinAddr: 0x100002ED4, symSize: 0x30 }
  - { offset: 0xCF11, size: 0x8, addend: 0x0, symName: '__ZN4core3ops8function6FnOnce40call_once$u7b$$u7b$vtable.shim$u7d$$u7d$17hd065829443307e92E', symObjAddr: 0xC78, symBinAddr: 0x100002F04, symSize: 0x38 }
  - { offset: 0xCF55, size: 0x8, addend: 0x0, symName: '__ZN4core3ops8function6FnOnce40call_once$u7b$$u7b$vtable.shim$u7d$$u7d$17he77c92f0190bd5c5E', symObjAddr: 0xCB0, symBinAddr: 0x100002F3C, symSize: 0x38 }
  - { offset: 0xCF99, size: 0x8, addend: 0x0, symName: '__ZN4core3ops8function6FnOnce40call_once$u7b$$u7b$vtable.shim$u7d$$u7d$17he886c67752271a26E', symObjAddr: 0xCE8, symBinAddr: 0x100002F74, symSize: 0x30 }
  - { offset: 0xCFD9, size: 0x8, addend: 0x0, symName: '__ZN4core3ops8function6FnOnce40call_once$u7b$$u7b$vtable.shim$u7d$$u7d$17hebdc2fc53e039b51E', symObjAddr: 0xD18, symBinAddr: 0x100002FA4, symSize: 0x30 }
  - { offset: 0xD019, size: 0x8, addend: 0x0, symName: '__ZN4core3ops8function6FnOnce40call_once$u7b$$u7b$vtable.shim$u7d$$u7d$17hfb889804463161d2E', symObjAddr: 0xD48, symBinAddr: 0x100002FD4, symSize: 0x30 }
  - { offset: 0xD059, size: 0x8, addend: 0x0, symName: '__ZN4core3ops8function6FnOnce40call_once$u7b$$u7b$vtable.shim$u7d$$u7d$17hfc58ac112669d684E', symObjAddr: 0xD78, symBinAddr: 0x100003004, symSize: 0x30 }
  - { offset: 0xD099, size: 0x8, addend: 0x0, symName: __ZN4core3ops8function6FnOnce9call_once17h04097ceae326f918E, symObjAddr: 0xDA8, symBinAddr: 0x100003034, symSize: 0x24 }
  - { offset: 0xD0DD, size: 0x8, addend: 0x0, symName: __ZN4core3ops8function6FnOnce9call_once17h050dd9b34a9795bdE, symObjAddr: 0xDCC, symBinAddr: 0x100003058, symSize: 0x4C }
  - { offset: 0xD11D, size: 0x8, addend: 0x0, symName: __ZN4core3ops8function6FnOnce9call_once17h05d854b400b2ec31E, symObjAddr: 0xE18, symBinAddr: 0x1000030A4, symSize: 0x4C }
  - { offset: 0xD15D, size: 0x8, addend: 0x0, symName: __ZN4core3ops8function6FnOnce9call_once17h110e8d9c592190dbE, symObjAddr: 0xE64, symBinAddr: 0x1000030F0, symSize: 0x4C }
  - { offset: 0xD19D, size: 0x8, addend: 0x0, symName: __ZN4core3ops8function6FnOnce9call_once17h169fcafdcf655a7fE, symObjAddr: 0xEB0, symBinAddr: 0x10000313C, symSize: 0x2C }
  - { offset: 0xD1E1, size: 0x8, addend: 0x0, symName: __ZN4core3ops8function6FnOnce9call_once17h16bc6acb1310b7f3E, symObjAddr: 0xEDC, symBinAddr: 0x100003168, symSize: 0x58 }
  - { offset: 0xD225, size: 0x8, addend: 0x0, symName: __ZN4core3ops8function6FnOnce9call_once17h1c3336d59b7252b1E, symObjAddr: 0xF34, symBinAddr: 0x1000031C0, symSize: 0x44 }
  - { offset: 0xD265, size: 0x8, addend: 0x0, symName: __ZN4core3ops8function6FnOnce9call_once17h2686867a8aa16b96E, symObjAddr: 0xF78, symBinAddr: 0x100003204, symSize: 0x54 }
  - { offset: 0xD2A5, size: 0x8, addend: 0x0, symName: __ZN4core3ops8function6FnOnce9call_once17h2c8038c3d3a6b047E, symObjAddr: 0xFCC, symBinAddr: 0x100003258, symSize: 0x58 }
  - { offset: 0xD2E9, size: 0x8, addend: 0x0, symName: __ZN4core3ops8function6FnOnce9call_once17h34d11d9b2ba0741eE, symObjAddr: 0x1024, symBinAddr: 0x1000032B0, symSize: 0x5C }
  - { offset: 0xD32D, size: 0x8, addend: 0x0, symName: __ZN4core3ops8function6FnOnce9call_once17h37709f985258b51aE, symObjAddr: 0x1080, symBinAddr: 0x10000330C, symSize: 0x50 }
  - { offset: 0xD36D, size: 0x8, addend: 0x0, symName: __ZN4core3ops8function6FnOnce9call_once17h498c02f7cb8ca72fE, symObjAddr: 0x10D0, symBinAddr: 0x10000335C, symSize: 0x4C }
  - { offset: 0xD3AD, size: 0x8, addend: 0x0, symName: __ZN4core3ops8function6FnOnce9call_once17h5003593bba4e2380E, symObjAddr: 0x111C, symBinAddr: 0x1000033A8, symSize: 0x5C }
  - { offset: 0xD3F1, size: 0x8, addend: 0x0, symName: __ZN4core3ops8function6FnOnce9call_once17h55fd8d98ce0de3b1E, symObjAddr: 0x1178, symBinAddr: 0x100003404, symSize: 0x4C }
  - { offset: 0xD435, size: 0x8, addend: 0x0, symName: __ZN4core3ops8function6FnOnce9call_once17h62c577445d1f1e5aE, symObjAddr: 0x11C4, symBinAddr: 0x100003450, symSize: 0x4C }
  - { offset: 0xD475, size: 0x8, addend: 0x0, symName: __ZN4core3ops8function6FnOnce9call_once17h6662a46edef2f88aE, symObjAddr: 0x1210, symBinAddr: 0x10000349C, symSize: 0x4C }
  - { offset: 0xD4B5, size: 0x8, addend: 0x0, symName: __ZN4core3ops8function6FnOnce9call_once17h67cbabff7200636aE, symObjAddr: 0x125C, symBinAddr: 0x1000034E8, symSize: 0x4C }
  - { offset: 0xD4F5, size: 0x8, addend: 0x0, symName: __ZN4core3ops8function6FnOnce9call_once17h687871163a6ca993E, symObjAddr: 0x12A8, symBinAddr: 0x100003534, symSize: 0x4C }
  - { offset: 0xD535, size: 0x8, addend: 0x0, symName: __ZN4core3ops8function6FnOnce9call_once17h82802a21adc81278E, symObjAddr: 0x12F4, symBinAddr: 0x100003580, symSize: 0x1C }
  - { offset: 0xD579, size: 0x8, addend: 0x0, symName: __ZN4core3ops8function6FnOnce9call_once17h861a30f344146188E, symObjAddr: 0x1310, symBinAddr: 0x10000359C, symSize: 0x58 }
  - { offset: 0xD5B9, size: 0x8, addend: 0x0, symName: __ZN4core3ops8function6FnOnce9call_once17h8da23d6551e3b179E, symObjAddr: 0x1368, symBinAddr: 0x1000035F4, symSize: 0x4C }
  - { offset: 0xD5F9, size: 0x8, addend: 0x0, symName: __ZN4core3ops8function6FnOnce9call_once17h8ffb08fac1f5e660E, symObjAddr: 0x13B4, symBinAddr: 0x100003640, symSize: 0x4C }
  - { offset: 0xD639, size: 0x8, addend: 0x0, symName: __ZN4core3ops8function6FnOnce9call_once17h9587e8464a38416cE, symObjAddr: 0x1400, symBinAddr: 0x10000368C, symSize: 0x4C }
  - { offset: 0xD679, size: 0x8, addend: 0x0, symName: __ZN4core3ops8function6FnOnce9call_once17h98530199a4138150E, symObjAddr: 0x144C, symBinAddr: 0x1000036D8, symSize: 0x4C }
  - { offset: 0xD6B9, size: 0x8, addend: 0x0, symName: __ZN4core3ops8function6FnOnce9call_once17h99257cb1a1a6b044E, symObjAddr: 0x1498, symBinAddr: 0x100003724, symSize: 0x4C }
  - { offset: 0xD6F9, size: 0x8, addend: 0x0, symName: __ZN4core3ops8function6FnOnce9call_once17h9d4e4f7cf86e8be9E, symObjAddr: 0x14E4, symBinAddr: 0x100003770, symSize: 0x4C }
  - { offset: 0xD73D, size: 0x8, addend: 0x0, symName: __ZN4core3ops8function6FnOnce9call_once17ha37277c29372ed6aE, symObjAddr: 0x1530, symBinAddr: 0x1000037BC, symSize: 0x4C }
  - { offset: 0xD77D, size: 0x8, addend: 0x0, symName: __ZN4core3ops8function6FnOnce9call_once17ha54f20538b496b3fE, symObjAddr: 0x157C, symBinAddr: 0x100003808, symSize: 0x4C }
  - { offset: 0xD7BD, size: 0x8, addend: 0x0, symName: __ZN4core3ops8function6FnOnce9call_once17ha5e2c9e46b825c88E, symObjAddr: 0x15C8, symBinAddr: 0x100003854, symSize: 0x58 }
  - { offset: 0xD801, size: 0x8, addend: 0x0, symName: __ZN4core3ops8function6FnOnce9call_once17ha661439c395b2addE, symObjAddr: 0x1620, symBinAddr: 0x1000038AC, symSize: 0x58 }
  - { offset: 0xD841, size: 0x8, addend: 0x0, symName: __ZN4core3ops8function6FnOnce9call_once17haac8ee30790f287bE, symObjAddr: 0x1678, symBinAddr: 0x100003904, symSize: 0x4C }
  - { offset: 0xD881, size: 0x8, addend: 0x0, symName: __ZN4core3ops8function6FnOnce9call_once17hb2b45fdad0a8b1d6E, symObjAddr: 0x16C4, symBinAddr: 0x100003950, symSize: 0x24 }
  - { offset: 0xD8C5, size: 0x8, addend: 0x0, symName: __ZN4core3ops8function6FnOnce9call_once17hb2ec26b2086b2447E, symObjAddr: 0x16E8, symBinAddr: 0x100003974, symSize: 0x4C }
  - { offset: 0xD909, size: 0x8, addend: 0x0, symName: __ZN4core3ops8function6FnOnce9call_once17hbbc9d458a9f0139bE, symObjAddr: 0x1734, symBinAddr: 0x1000039C0, symSize: 0x54 }
  - { offset: 0xD949, size: 0x8, addend: 0x0, symName: __ZN4core3ops8function6FnOnce9call_once17hceee82c203b55ee3E, symObjAddr: 0x1788, symBinAddr: 0x100003A14, symSize: 0x50 }
  - { offset: 0xD989, size: 0x8, addend: 0x0, symName: __ZN4core3ops8function6FnOnce9call_once17hd6f92daad670a205E, symObjAddr: 0x17D8, symBinAddr: 0x100003A64, symSize: 0x4C }
  - { offset: 0xD9C9, size: 0x8, addend: 0x0, symName: __ZN4core3ops8function6FnOnce9call_once17he1fd1a1ba1812fe1E, symObjAddr: 0x1824, symBinAddr: 0x100003AB0, symSize: 0x58 }
  - { offset: 0xDA0D, size: 0x8, addend: 0x0, symName: __ZN4core3ops8function6FnOnce9call_once17he87ad2fb35912523E, symObjAddr: 0x187C, symBinAddr: 0x100003B08, symSize: 0x4C }
  - { offset: 0xDA4D, size: 0x8, addend: 0x0, symName: __ZN4core3ops8function6FnOnce9call_once17hf6f282c3874b59c8E, symObjAddr: 0x18C8, symBinAddr: 0x100003B54, symSize: 0x5C }
  - { offset: 0xDA91, size: 0x8, addend: 0x0, symName: __ZN4core3ops8function6FnOnce9call_once17hf6f675eaade231b2E, symObjAddr: 0x1924, symBinAddr: 0x100003BB0, symSize: 0x44 }
  - { offset: 0xDAD1, size: 0x8, addend: 0x0, symName: __ZN4core3ops8function6FnOnce9call_once17hfa366c6cd867c22aE, symObjAddr: 0x1968, symBinAddr: 0x100003BF4, symSize: 0x44 }
  - { offset: 0xDB11, size: 0x8, addend: 0x0, symName: __ZN4core3ops8function6FnOnce9call_once17hfa7c096979fbb92bE, symObjAddr: 0x19AC, symBinAddr: 0x100003C38, symSize: 0x24 }
  - { offset: 0xE321, size: 0x8, addend: 0x0, symName: '__ZN82_$LT$core..array..iter..IntoIter$LT$T$C$_$GT$$u20$as$u20$core..ops..drop..Drop$GT$4drop17h8504258589140743E', symObjAddr: 0x90A0, symBinAddr: 0x10000B32C, symSize: 0x14 }
  - { offset: 0xE354, size: 0x8, addend: 0x0, symName: '__ZN82_$LT$core..array..iter..IntoIter$LT$T$C$_$GT$$u20$as$u20$core..ops..drop..Drop$GT$4drop17hf211ffab4ebef362E', symObjAddr: 0x90B4, symBinAddr: 0x10000B340, symSize: 0x14 }
  - { offset: 0xE42F, size: 0x8, addend: 0x0, symName: '__ZN96_$LT$core..hint..select_unpredictable..DropOnPanic$LT$T$GT$$u20$as$u20$core..ops..drop..Drop$GT$4drop17h18baab9c5f77f11eE', symObjAddr: 0x9E08, symBinAddr: 0x10000C094, symSize: 0x1C }
  - { offset: 0xE462, size: 0x8, addend: 0x0, symName: '__ZN96_$LT$core..hint..select_unpredictable..DropOnPanic$LT$T$GT$$u20$as$u20$core..ops..drop..Drop$GT$4drop17h6800272b69cc2ef2E', symObjAddr: 0x9E24, symBinAddr: 0x10000C0B0, symSize: 0x1C }
  - { offset: 0xE495, size: 0x8, addend: 0x0, symName: '__ZN96_$LT$core..hint..select_unpredictable..DropOnPanic$LT$T$GT$$u20$as$u20$core..ops..drop..Drop$GT$4drop17h7d46bd90b5f926b9E', symObjAddr: 0x9E40, symBinAddr: 0x10000C0CC, symSize: 0x1C }
  - { offset: 0xE4C8, size: 0x8, addend: 0x0, symName: '__ZN96_$LT$core..hint..select_unpredictable..DropOnPanic$LT$T$GT$$u20$as$u20$core..ops..drop..Drop$GT$4drop17h821e16cd6a609a66E', symObjAddr: 0x9E5C, symBinAddr: 0x10000C0E8, symSize: 0x1C }
  - { offset: 0xE4FB, size: 0x8, addend: 0x0, symName: '__ZN96_$LT$core..hint..select_unpredictable..DropOnPanic$LT$T$GT$$u20$as$u20$core..ops..drop..Drop$GT$4drop17h856b800a36119e8eE', symObjAddr: 0x9E78, symBinAddr: 0x10000C104, symSize: 0x1C }
  - { offset: 0xE52E, size: 0x8, addend: 0x0, symName: '__ZN96_$LT$core..hint..select_unpredictable..DropOnPanic$LT$T$GT$$u20$as$u20$core..ops..drop..Drop$GT$4drop17hc23c912be8a6afa0E', symObjAddr: 0x9E94, symBinAddr: 0x10000C120, symSize: 0x1C }
  - { offset: 0xE561, size: 0x8, addend: 0x0, symName: '__ZN96_$LT$core..hint..select_unpredictable..DropOnPanic$LT$T$GT$$u20$as$u20$core..ops..drop..Drop$GT$4drop17hee4a1ced0e4aad8eE', symObjAddr: 0x9EB0, symBinAddr: 0x10000C13C, symSize: 0x1C }
  - { offset: 0xE594, size: 0x8, addend: 0x0, symName: '__ZN96_$LT$core..hint..select_unpredictable..DropOnPanic$LT$T$GT$$u20$as$u20$core..ops..drop..Drop$GT$4drop17hfa864c1262f42d37E', symObjAddr: 0x9ECC, symBinAddr: 0x10000C158, symSize: 0x1C }
  - { offset: 0xE5C7, size: 0x8, addend: 0x0, symName: '__ZN96_$LT$core..hint..select_unpredictable..DropOnPanic$LT$T$GT$$u20$as$u20$core..ops..drop..Drop$GT$4drop17hfab92a7e2a5b7e5dE', symObjAddr: 0x9EE8, symBinAddr: 0x10000C174, symSize: 0x1C }
  - { offset: 0xF016, size: 0x8, addend: 0x0, symName: '__ZN73_$LT$gcrust_rt..gc..heap..WorldPause$u20$as$u20$core..ops..drop..Drop$GT$4drop17h3576766ba75a6c78E', symObjAddr: 0x8458, symBinAddr: 0x10000A6E4, symSize: 0x94 }
  - { offset: 0xF344, size: 0x8, addend: 0x0, symName: '__ZN77_$LT$gcrust_rt..gc..alloc..BumpAllocator$u20$as$u20$core..ops..drop..Drop$GT$4drop17h4e47b6288f1ba4daE', symObjAddr: 0x8BB0, symBinAddr: 0x10000AE3C, symSize: 0xD0 }
  - { offset: 0xF3C6, size: 0x8, addend: 0x0, symName: '__ZN83_$LT$gcrust_rt..gc..alloc..AtomicBumpAllocator$u20$as$u20$core..ops..drop..Drop$GT$4drop17h980a55641f1e72e4E', symObjAddr: 0x915C, symBinAddr: 0x10000B3E8, symSize: 0xD0 }
  - { offset: 0xF555, size: 0x8, addend: 0x0, symName: '__ZN77_$LT$gcrust_rt..gc..thread..ScratchScope$u20$as$u20$core..ops..drop..Drop$GT$4drop17ha02e4d5e3d81fc7bE', symObjAddr: 0x8C80, symBinAddr: 0x10000AF0C, symSize: 0x30 }
  - { offset: 0xF630, size: 0x8, addend: 0x0, symName: '__ZN74_$LT$gcrust_rt..gc..roots..FrameGuard$u20$as$u20$core..ops..drop..Drop$GT$4drop17h4849bc7e6576b368E', symObjAddr: 0x84EC, symBinAddr: 0x10000A778, symSize: 0xC8 }
  - { offset: 0xF673, size: 0x8, addend: 0x0, symName: '__ZN81_$LT$gcrust_rt..gc..roots..InstallChainGuard$u20$as$u20$core..ops..drop..Drop$GT$4drop17h522d7977050735dfE', symObjAddr: 0x8DD8, symBinAddr: 0x10000B064, symSize: 0x30 }
  - { offset: 0xF90C, size: 0x8, addend: 0x0, symName: '__ZN76_$LT$gcrust_rt..runtime..RuntimeContext$u20$as$u20$core..ops..drop..Drop$GT$4drop17hfc19b7447c5a6f41E', symObjAddr: 0x85B4, symBinAddr: 0x10000A840, symSize: 0x34 }
  - { offset: 0xF941, size: 0x8, addend: 0x0, symName: '__ZN86_$LT$gcrust_rt..runtime..blocking_region..Unblock$u20$as$u20$core..ops..drop..Drop$GT$4drop17he52ff52e28759e5bE', symObjAddr: 0x9504, symBinAddr: 0x10000B790, symSize: 0x40 }
  - { offset: 0xFBC9, size: 0x8, addend: 0x0, symName: '__ZN78_$LT$std..io..error..repr_bitpacked..Repr$u20$as$u20$core..ops..drop..Drop$GT$4drop17h7f05437c007abdd2E', symObjAddr: 0x8CB0, symBinAddr: 0x10000AF3C, symSize: 0x38 }
  - { offset: 0x10045, size: 0x8, addend: 0x0, symName: '__ZN87_$LT$std..sync..poison..mutex..MutexGuard$LT$T$GT$$u20$as$u20$core..ops..drop..Drop$GT$4drop17h0385218e51e0a2faE', symObjAddr: 0x9544, symBinAddr: 0x10000B7D0, symSize: 0x58 }
  - { offset: 0x100C3, size: 0x8, addend: 0x0, symName: '__ZN87_$LT$std..sync..poison..mutex..MutexGuard$LT$T$GT$$u20$as$u20$core..ops..drop..Drop$GT$4drop17h1c493b635f5f4c2aE', symObjAddr: 0x959C, symBinAddr: 0x10000B828, symSize: 0x58 }
  - { offset: 0x10141, size: 0x8, addend: 0x0, symName: '__ZN87_$LT$std..sync..poison..mutex..MutexGuard$LT$T$GT$$u20$as$u20$core..ops..drop..Drop$GT$4drop17h45a9e15588177b51E', symObjAddr: 0x95F4, symBinAddr: 0x10000B880, symSize: 0x58 }
  - { offset: 0x101BF, size: 0x8, addend: 0x0, symName: '__ZN87_$LT$std..sync..poison..mutex..MutexGuard$LT$T$GT$$u20$as$u20$core..ops..drop..Drop$GT$4drop17h4c7197453140033dE', symObjAddr: 0x964C, symBinAddr: 0x10000B8D8, symSize: 0x58 }
  - { offset: 0x1023D, size: 0x8, addend: 0x0, symName: '__ZN87_$LT$std..sync..poison..mutex..MutexGuard$LT$T$GT$$u20$as$u20$core..ops..drop..Drop$GT$4drop17h55e7edae64a8caf2E', symObjAddr: 0x96A4, symBinAddr: 0x10000B930, symSize: 0x58 }
  - { offset: 0x102BB, size: 0x8, addend: 0x0, symName: '__ZN87_$LT$std..sync..poison..mutex..MutexGuard$LT$T$GT$$u20$as$u20$core..ops..drop..Drop$GT$4drop17h56af9df61e203709E', symObjAddr: 0x96FC, symBinAddr: 0x10000B988, symSize: 0x58 }
  - { offset: 0x10339, size: 0x8, addend: 0x0, symName: '__ZN87_$LT$std..sync..poison..mutex..MutexGuard$LT$T$GT$$u20$as$u20$core..ops..drop..Drop$GT$4drop17h616aca72cd4ad575E', symObjAddr: 0x9754, symBinAddr: 0x10000B9E0, symSize: 0x58 }
  - { offset: 0x103B7, size: 0x8, addend: 0x0, symName: '__ZN87_$LT$std..sync..poison..mutex..MutexGuard$LT$T$GT$$u20$as$u20$core..ops..drop..Drop$GT$4drop17h802988c32ccf3738E', symObjAddr: 0x97AC, symBinAddr: 0x10000BA38, symSize: 0x58 }
  - { offset: 0x10435, size: 0x8, addend: 0x0, symName: '__ZN87_$LT$std..sync..poison..mutex..MutexGuard$LT$T$GT$$u20$as$u20$core..ops..drop..Drop$GT$4drop17h89346c5c0de3cef4E', symObjAddr: 0x9804, symBinAddr: 0x10000BA90, symSize: 0x58 }
  - { offset: 0x104B3, size: 0x8, addend: 0x0, symName: '__ZN87_$LT$std..sync..poison..mutex..MutexGuard$LT$T$GT$$u20$as$u20$core..ops..drop..Drop$GT$4drop17hd74a95a44b9c1cddE', symObjAddr: 0x985C, symBinAddr: 0x10000BAE8, symSize: 0x58 }
  - { offset: 0x109E9, size: 0x8, addend: 0x0, symName: '__ZN81_$LT$std..sync..once_lock..OnceLock$LT$T$GT$$u20$as$u20$core..ops..drop..Drop$GT$4drop17h6aba1287017c1b56E', symObjAddr: 0x8E08, symBinAddr: 0x10000B094, symSize: 0x50 }
  - { offset: 0x10AB9, size: 0x8, addend: 0x0, symName: '__ZN81_$LT$std..sync..once_lock..OnceLock$LT$T$GT$$u20$as$u20$core..ops..drop..Drop$GT$4drop17h73cad1c3dcb91f2eE', symObjAddr: 0x8E58, symBinAddr: 0x10000B0E4, symSize: 0x50 }
  - { offset: 0x10B89, size: 0x8, addend: 0x0, symName: '__ZN81_$LT$std..sync..once_lock..OnceLock$LT$T$GT$$u20$as$u20$core..ops..drop..Drop$GT$4drop17hb6ffd477967e514fE', symObjAddr: 0x8EA8, symBinAddr: 0x10000B134, symSize: 0x50 }
  - { offset: 0x10E3D, size: 0x8, addend: 0x0, symName: '__ZN84_$LT$std..sys..sync..once_box..OnceBox$LT$T$GT$$u20$as$u20$core..ops..drop..Drop$GT$4drop17h02af10db2e9e4dd2E', symObjAddr: 0x922C, symBinAddr: 0x10000B4B8, symSize: 0x7C }
  - { offset: 0x10F5E, size: 0x8, addend: 0x0, symName: '__ZN84_$LT$std..sys..sync..once_box..OnceBox$LT$T$GT$$u20$as$u20$core..ops..drop..Drop$GT$4drop17h34ab10bd5703e8f6E', symObjAddr: 0x92A8, symBinAddr: 0x10000B534, symSize: 0x7C }
  - { offset: 0x11167, size: 0x8, addend: 0x0, symName: '__ZN85_$LT$std..sys..pal..unix..sync..condvar..Condvar$u20$as$u20$core..ops..drop..Drop$GT$4drop17h919c17626bb656a2E', symObjAddr: 0x9324, symBinAddr: 0x10000B5B0, symSize: 0x28 }
  - { offset: 0x112A4, size: 0x8, addend: 0x0, symName: '__ZN105_$LT$std..thread..lifecycle..spawn_unchecked..MaybeDangling$LT$T$GT$$u20$as$u20$core..ops..drop..Drop$GT$4drop17hae9348dad8ebcb04E', symObjAddr: 0x100, symBinAddr: 0x10000238C, symSize: 0x20 }
  - { offset: 0x113C4, size: 0x8, addend: 0x0, symName: '__ZN81_$LT$std..thread..lifecycle..Packet$LT$T$GT$$u20$as$u20$core..ops..drop..Drop$GT$4drop17h1443a68f17d835afE', symObjAddr: 0x8EF8, symBinAddr: 0x10000B184, symSize: 0x1A8 }
  - { offset: 0x1181C, size: 0x8, addend: 0x0, symName: '__ZN69_$LT$std..os..fd..owned..OwnedFd$u20$as$u20$core..ops..drop..Drop$GT$4drop17h6936dbe5fe6ee6e6E', symObjAddr: 0x6C24, symBinAddr: 0x100008EB0, symSize: 0x40 }
  - { offset: 0x11CA9, size: 0x8, addend: 0x0, symName: '__ZN71_$LT$alloc..sync..Arc$LT$T$C$A$GT$$u20$as$u20$core..ops..drop..Drop$GT$4drop17h459a83d39e572c7bE', symObjAddr: 0x71A4, symBinAddr: 0x100009430, symSize: 0x7C }
  - { offset: 0x11D97, size: 0x8, addend: 0x0, symName: '__ZN71_$LT$alloc..sync..Arc$LT$T$C$A$GT$$u20$as$u20$core..ops..drop..Drop$GT$4drop17h47cf353462ae3b17E', symObjAddr: 0x7220, symBinAddr: 0x1000094AC, symSize: 0x7C }
  - { offset: 0x11E85, size: 0x8, addend: 0x0, symName: '__ZN71_$LT$alloc..sync..Arc$LT$T$C$A$GT$$u20$as$u20$core..ops..drop..Drop$GT$4drop17h4dba38c6da9220dbE', symObjAddr: 0x729C, symBinAddr: 0x100009528, symSize: 0x7C }
  - { offset: 0x11F73, size: 0x8, addend: 0x0, symName: '__ZN71_$LT$alloc..sync..Arc$LT$T$C$A$GT$$u20$as$u20$core..ops..drop..Drop$GT$4drop17h79674de1acb213e2E', symObjAddr: 0x7318, symBinAddr: 0x1000095A4, symSize: 0x7C }
  - { offset: 0x12061, size: 0x8, addend: 0x0, symName: '__ZN71_$LT$alloc..sync..Arc$LT$T$C$A$GT$$u20$as$u20$core..ops..drop..Drop$GT$4drop17ha7953b75875b5a5bE', symObjAddr: 0x7394, symBinAddr: 0x100009620, symSize: 0x7C }
  - { offset: 0x1214F, size: 0x8, addend: 0x0, symName: '__ZN71_$LT$alloc..sync..Arc$LT$T$C$A$GT$$u20$as$u20$core..ops..drop..Drop$GT$4drop17hd23673ffb7effb12E', symObjAddr: 0x7410, symBinAddr: 0x10000969C, symSize: 0x7C }
  - { offset: 0x1223D, size: 0x8, addend: 0x0, symName: '__ZN71_$LT$alloc..sync..Arc$LT$T$C$A$GT$$u20$as$u20$core..ops..drop..Drop$GT$4drop17hd2d7d74363cb7d29E', symObjAddr: 0x748C, symBinAddr: 0x100009718, symSize: 0x7C }
  - { offset: 0x12584, size: 0x8, addend: 0x0, symName: '__ZN72_$LT$alloc..sync..Weak$LT$T$C$A$GT$$u20$as$u20$core..ops..drop..Drop$GT$4drop17h13567b39107bd382E', symObjAddr: 0x7D64, symBinAddr: 0x100009FF0, symSize: 0x164 }
  - { offset: 0x127A0, size: 0x8, addend: 0x0, symName: '__ZN72_$LT$alloc..sync..Weak$LT$T$C$A$GT$$u20$as$u20$core..ops..drop..Drop$GT$4drop17h1f4f42ad2b75550cE', symObjAddr: 0x7EC8, symBinAddr: 0x10000A154, symSize: 0x164 }
  - { offset: 0x129BC, size: 0x8, addend: 0x0, symName: '__ZN72_$LT$alloc..sync..Weak$LT$T$C$A$GT$$u20$as$u20$core..ops..drop..Drop$GT$4drop17h2ae46a2af340aa5bE', symObjAddr: 0x802C, symBinAddr: 0x10000A2B8, symSize: 0x164 }
  - { offset: 0x12BD8, size: 0x8, addend: 0x0, symName: '__ZN72_$LT$alloc..sync..Weak$LT$T$C$A$GT$$u20$as$u20$core..ops..drop..Drop$GT$4drop17h60cc68aaa242d828E', symObjAddr: 0x8190, symBinAddr: 0x10000A41C, symSize: 0x164 }
  - { offset: 0x12DF4, size: 0x8, addend: 0x0, symName: '__ZN72_$LT$alloc..sync..Weak$LT$T$C$A$GT$$u20$as$u20$core..ops..drop..Drop$GT$4drop17h6753f27929bce507E', symObjAddr: 0x82F4, symBinAddr: 0x10000A580, symSize: 0x164 }
  - { offset: 0x1386B, size: 0x8, addend: 0x0, symName: '__ZN108_$LT$alloc..vec..Vec$LT$T$C$A$GT$..dedup_by..FillGapOnDrop$LT$T$C$A$GT$$u20$as$u20$core..ops..drop..Drop$GT$4drop17h9689943fcf0f5690E', symObjAddr: 0x120, symBinAddr: 0x1000023AC, symSize: 0x1A8 }
  - { offset: 0x13B3F, size: 0x8, addend: 0x0, symName: '__ZN111_$LT$alloc..vec..in_place_drop..InPlaceDstDataSrcBufDrop$LT$Src$C$Dest$GT$$u20$as$u20$core..ops..drop..Drop$GT$4drop17ha2e0ccdfde009167E', symObjAddr: 0x2C8, symBinAddr: 0x100002554, symSize: 0xB4 }
  - { offset: 0x13CC1, size: 0x8, addend: 0x0, symName: '__ZN89_$LT$alloc..vec..in_place_drop..InPlaceDrop$LT$T$GT$$u20$as$u20$core..ops..drop..Drop$GT$4drop17h553ef724605ad4d6E', symObjAddr: 0x990C, symBinAddr: 0x10000BB98, symSize: 0x40 }
  - { offset: 0x13E03, size: 0x8, addend: 0x0, symName: '__ZN157_$LT$$LT$alloc..vec..into_iter..IntoIter$LT$T$C$A$GT$$u20$as$u20$core..ops..drop..Drop$GT$..drop..DropGuard$LT$T$C$A$GT$$u20$as$u20$core..ops..drop..Drop$GT$4drop17h56eabef34e99b2f8E', symObjAddr: 0x37C, symBinAddr: 0x100002608, symSize: 0x70 }
  - { offset: 0x13F5F, size: 0x8, addend: 0x0, symName: '__ZN157_$LT$$LT$alloc..vec..into_iter..IntoIter$LT$T$C$A$GT$$u20$as$u20$core..ops..drop..Drop$GT$..drop..DropGuard$LT$T$C$A$GT$$u20$as$u20$core..ops..drop..Drop$GT$4drop17h8a0255214590b60cE', symObjAddr: 0x3EC, symBinAddr: 0x100002678, symSize: 0x70 }
  - { offset: 0x140BB, size: 0x8, addend: 0x0, symName: '__ZN157_$LT$$LT$alloc..vec..into_iter..IntoIter$LT$T$C$A$GT$$u20$as$u20$core..ops..drop..Drop$GT$..drop..DropGuard$LT$T$C$A$GT$$u20$as$u20$core..ops..drop..Drop$GT$4drop17ha40d0a9ca1e94debE', symObjAddr: 0x45C, symBinAddr: 0x1000026E8, symSize: 0x70 }
  - { offset: 0x14217, size: 0x8, addend: 0x0, symName: '__ZN157_$LT$$LT$alloc..vec..into_iter..IntoIter$LT$T$C$A$GT$$u20$as$u20$core..ops..drop..Drop$GT$..drop..DropGuard$LT$T$C$A$GT$$u20$as$u20$core..ops..drop..Drop$GT$4drop17hb9a82d29a0f6c289E', symObjAddr: 0x4CC, symBinAddr: 0x100002758, symSize: 0x70 }
  - { offset: 0x14411, size: 0x8, addend: 0x0, symName: '__ZN86_$LT$alloc..vec..into_iter..IntoIter$LT$T$C$A$GT$$u20$as$u20$core..ops..drop..Drop$GT$4drop17h5db668b70ce8ddf8E', symObjAddr: 0x934C, symBinAddr: 0x10000B5D8, symSize: 0x78 }
  - { offset: 0x14463, size: 0x8, addend: 0x0, symName: '__ZN86_$LT$alloc..vec..into_iter..IntoIter$LT$T$C$A$GT$$u20$as$u20$core..ops..drop..Drop$GT$4drop17h69c234fc85b0c363E', symObjAddr: 0x93C4, symBinAddr: 0x10000B650, symSize: 0x78 }
  - { offset: 0x144B5, size: 0x8, addend: 0x0, symName: '__ZN86_$LT$alloc..vec..into_iter..IntoIter$LT$T$C$A$GT$$u20$as$u20$core..ops..drop..Drop$GT$4drop17h8144a5cc103b7bbfE', symObjAddr: 0x943C, symBinAddr: 0x10000B6C8, symSize: 0x64 }
  - { offset: 0x14507, size: 0x8, addend: 0x0, symName: '__ZN86_$LT$alloc..vec..into_iter..IntoIter$LT$T$C$A$GT$$u20$as$u20$core..ops..drop..Drop$GT$4drop17habde952f85e865b8E', symObjAddr: 0x94A0, symBinAddr: 0x10000B72C, symSize: 0x64 }
  - { offset: 0x1474D, size: 0x8, addend: 0x0, symName: '__ZN70_$LT$alloc..vec..Vec$LT$T$C$A$GT$$u20$as$u20$core..ops..drop..Drop$GT$4drop17h001a33c3e900345bE', symObjAddr: 0x6C64, symBinAddr: 0x100008EF0, symSize: 0x38 }
  - { offset: 0x147FD, size: 0x8, addend: 0x0, symName: '__ZN70_$LT$alloc..vec..Vec$LT$T$C$A$GT$$u20$as$u20$core..ops..drop..Drop$GT$4drop17h0213018b277f8d0eE', symObjAddr: 0x6C9C, symBinAddr: 0x100008F28, symSize: 0x38 }
  - { offset: 0x148AD, size: 0x8, addend: 0x0, symName: '__ZN70_$LT$alloc..vec..Vec$LT$T$C$A$GT$$u20$as$u20$core..ops..drop..Drop$GT$4drop17h07b12d22ed4ff5beE', symObjAddr: 0x6CD4, symBinAddr: 0x100008F60, symSize: 0x38 }
  - { offset: 0x1495D, size: 0x8, addend: 0x0, symName: '__ZN70_$LT$alloc..vec..Vec$LT$T$C$A$GT$$u20$as$u20$core..ops..drop..Drop$GT$4drop17h0e3f1b66ef1b047fE', symObjAddr: 0x6D0C, symBinAddr: 0x100008F98, symSize: 0x38 }
  - { offset: 0x14A0D, size: 0x8, addend: 0x0, symName: '__ZN70_$LT$alloc..vec..Vec$LT$T$C$A$GT$$u20$as$u20$core..ops..drop..Drop$GT$4drop17h0e7b2ef942c226e6E', symObjAddr: 0x6D44, symBinAddr: 0x100008FD0, symSize: 0x38 }
  - { offset: 0x14ABD, size: 0x8, addend: 0x0, symName: '__ZN70_$LT$alloc..vec..Vec$LT$T$C$A$GT$$u20$as$u20$core..ops..drop..Drop$GT$4drop17h263e348f5ee43035E', symObjAddr: 0x6D7C, symBinAddr: 0x100009008, symSize: 0x38 }
  - { offset: 0x14B6D, size: 0x8, addend: 0x0, symName: '__ZN70_$LT$alloc..vec..Vec$LT$T$C$A$GT$$u20$as$u20$core..ops..drop..Drop$GT$4drop17h2f6222c571c70a1fE', symObjAddr: 0x6DB4, symBinAddr: 0x100009040, symSize: 0x24 }
  - { offset: 0x14C1D, size: 0x8, addend: 0x0, symName: '__ZN70_$LT$alloc..vec..Vec$LT$T$C$A$GT$$u20$as$u20$core..ops..drop..Drop$GT$4drop17h30b3cde912ff854cE', symObjAddr: 0x6DD8, symBinAddr: 0x100009064, symSize: 0x24 }
  - { offset: 0x14CCD, size: 0x8, addend: 0x0, symName: '__ZN70_$LT$alloc..vec..Vec$LT$T$C$A$GT$$u20$as$u20$core..ops..drop..Drop$GT$4drop17h3335b940a1511e2bE', symObjAddr: 0x6DFC, symBinAddr: 0x100009088, symSize: 0x24 }
  - { offset: 0x14D7D, size: 0x8, addend: 0x0, symName: '__ZN70_$LT$alloc..vec..Vec$LT$T$C$A$GT$$u20$as$u20$core..ops..drop..Drop$GT$4drop17h3c4195b7e76f3ab1E', symObjAddr: 0x6E20, symBinAddr: 0x1000090AC, symSize: 0x24 }
  - { offset: 0x14E2D, size: 0x8, addend: 0x0, symName: '__ZN70_$LT$alloc..vec..Vec$LT$T$C$A$GT$$u20$as$u20$core..ops..drop..Drop$GT$4drop17h4299c322447886a7E', symObjAddr: 0x6E44, symBinAddr: 0x1000090D0, symSize: 0x38 }
  - { offset: 0x14EDD, size: 0x8, addend: 0x0, symName: '__ZN70_$LT$alloc..vec..Vec$LT$T$C$A$GT$$u20$as$u20$core..ops..drop..Drop$GT$4drop17h49859a5e495e1552E', symObjAddr: 0x6E7C, symBinAddr: 0x100009108, symSize: 0x38 }
  - { offset: 0x14F8D, size: 0x8, addend: 0x0, symName: '__ZN70_$LT$alloc..vec..Vec$LT$T$C$A$GT$$u20$as$u20$core..ops..drop..Drop$GT$4drop17h4f921c7ede096878E', symObjAddr: 0x6EB4, symBinAddr: 0x100009140, symSize: 0x38 }
  - { offset: 0x1503D, size: 0x8, addend: 0x0, symName: '__ZN70_$LT$alloc..vec..Vec$LT$T$C$A$GT$$u20$as$u20$core..ops..drop..Drop$GT$4drop17h5626b9b74d5fa70cE', symObjAddr: 0x6EEC, symBinAddr: 0x100009178, symSize: 0x24 }
  - { offset: 0x150ED, size: 0x8, addend: 0x0, symName: '__ZN70_$LT$alloc..vec..Vec$LT$T$C$A$GT$$u20$as$u20$core..ops..drop..Drop$GT$4drop17h57ea041a36c31123E', symObjAddr: 0x6F10, symBinAddr: 0x10000919C, symSize: 0x24 }
  - { offset: 0x1519D, size: 0x8, addend: 0x0, symName: '__ZN70_$LT$alloc..vec..Vec$LT$T$C$A$GT$$u20$as$u20$core..ops..drop..Drop$GT$4drop17h5e6f57fa8eb410b4E', symObjAddr: 0x6F34, symBinAddr: 0x1000091C0, symSize: 0x38 }
  - { offset: 0x1524D, size: 0x8, addend: 0x0, symName: '__ZN70_$LT$alloc..vec..Vec$LT$T$C$A$GT$$u20$as$u20$core..ops..drop..Drop$GT$4drop17h78c46ce215447b78E', symObjAddr: 0x6F6C, symBinAddr: 0x1000091F8, symSize: 0x38 }
  - { offset: 0x152FD, size: 0x8, addend: 0x0, symName: '__ZN70_$LT$alloc..vec..Vec$LT$T$C$A$GT$$u20$as$u20$core..ops..drop..Drop$GT$4drop17h9585bea52fa19f00E', symObjAddr: 0x6FA4, symBinAddr: 0x100009230, symSize: 0x38 }
  - { offset: 0x153AD, size: 0x8, addend: 0x0, symName: '__ZN70_$LT$alloc..vec..Vec$LT$T$C$A$GT$$u20$as$u20$core..ops..drop..Drop$GT$4drop17h95af74a169a9d054E', symObjAddr: 0x6FDC, symBinAddr: 0x100009268, symSize: 0x38 }
  - { offset: 0x1545D, size: 0x8, addend: 0x0, symName: '__ZN70_$LT$alloc..vec..Vec$LT$T$C$A$GT$$u20$as$u20$core..ops..drop..Drop$GT$4drop17h9b9de072250102a4E', symObjAddr: 0x7014, symBinAddr: 0x1000092A0, symSize: 0x38 }
  - { offset: 0x1550D, size: 0x8, addend: 0x0, symName: '__ZN70_$LT$alloc..vec..Vec$LT$T$C$A$GT$$u20$as$u20$core..ops..drop..Drop$GT$4drop17h9e9a4e3f6e887757E', symObjAddr: 0x704C, symBinAddr: 0x1000092D8, symSize: 0x24 }
  - { offset: 0x155BD, size: 0x8, addend: 0x0, symName: '__ZN70_$LT$alloc..vec..Vec$LT$T$C$A$GT$$u20$as$u20$core..ops..drop..Drop$GT$4drop17hadecc959a517937bE', symObjAddr: 0x7070, symBinAddr: 0x1000092FC, symSize: 0x24 }
  - { offset: 0x1566D, size: 0x8, addend: 0x0, symName: '__ZN70_$LT$alloc..vec..Vec$LT$T$C$A$GT$$u20$as$u20$core..ops..drop..Drop$GT$4drop17hb9a726a521e6e048E', symObjAddr: 0x7094, symBinAddr: 0x100009320, symSize: 0x24 }
  - { offset: 0x1571D, size: 0x8, addend: 0x0, symName: '__ZN70_$LT$alloc..vec..Vec$LT$T$C$A$GT$$u20$as$u20$core..ops..drop..Drop$GT$4drop17hbb91d63ddc02132dE', symObjAddr: 0x70B8, symBinAddr: 0x100009344, symSize: 0x24 }
  - { offset: 0x157CD, size: 0x8, addend: 0x0, symName: '__ZN70_$LT$alloc..vec..Vec$LT$T$C$A$GT$$u20$as$u20$core..ops..drop..Drop$GT$4drop17hbdbd1b5863784484E', symObjAddr: 0x70DC, symBinAddr: 0x100009368, symSize: 0x24 }
  - { offset: 0x1587D, size: 0x8, addend: 0x0, symName: '__ZN70_$LT$alloc..vec..Vec$LT$T$C$A$GT$$u20$as$u20$core..ops..drop..Drop$GT$4drop17hd3935994fb66cda5E', symObjAddr: 0x7100, symBinAddr: 0x10000938C, symSize: 0x24 }
  - { offset: 0x1592D, size: 0x8, addend: 0x0, symName: '__ZN70_$LT$alloc..vec..Vec$LT$T$C$A$GT$$u20$as$u20$core..ops..drop..Drop$GT$4drop17he2ead2958c2fc72bE', symObjAddr: 0x7124, symBinAddr: 0x1000093B0, symSize: 0x38 }
  - { offset: 0x159DD, size: 0x8, addend: 0x0, symName: '__ZN70_$LT$alloc..vec..Vec$LT$T$C$A$GT$$u20$as$u20$core..ops..drop..Drop$GT$4drop17he49ead1f9ca93d1fE', symObjAddr: 0x715C, symBinAddr: 0x1000093E8, symSize: 0x24 }
  - { offset: 0x15A8D, size: 0x8, addend: 0x0, symName: '__ZN70_$LT$alloc..vec..Vec$LT$T$C$A$GT$$u20$as$u20$core..ops..drop..Drop$GT$4drop17hf65d50e8f79aca37E', symObjAddr: 0x7180, symBinAddr: 0x10000940C, symSize: 0x24 }
  - { offset: 0x15FE7, size: 0x8, addend: 0x0, symName: '__ZN83_$LT$alloc..vec..set_len_on_drop..SetLenOnDrop$u20$as$u20$core..ops..drop..Drop$GT$4drop17ha26d9a0b2fea9ddcE', symObjAddr: 0x913C, symBinAddr: 0x10000B3C8, symSize: 0x20 }
  - { offset: 0x177AF, size: 0x8, addend: 0x0, symName: '__ZN77_$LT$alloc..raw_vec..RawVec$LT$T$C$A$GT$$u20$as$u20$core..ops..drop..Drop$GT$4drop17h00914b7fa77ebd5dE', symObjAddr: 0x85E8, symBinAddr: 0x10000A874, symSize: 0x30 }
  - { offset: 0x177EB, size: 0x8, addend: 0x0, symName: '__ZN77_$LT$alloc..raw_vec..RawVec$LT$T$C$A$GT$$u20$as$u20$core..ops..drop..Drop$GT$4drop17h0adbd84a003185ddE', symObjAddr: 0x8618, symBinAddr: 0x10000A8A4, symSize: 0x34 }
  - { offset: 0x17827, size: 0x8, addend: 0x0, symName: '__ZN77_$LT$alloc..raw_vec..RawVec$LT$T$C$A$GT$$u20$as$u20$core..ops..drop..Drop$GT$4drop17h1886dbad190ed658E', symObjAddr: 0x864C, symBinAddr: 0x10000A8D8, symSize: 0x34 }
  - { offset: 0x17863, size: 0x8, addend: 0x0, symName: '__ZN77_$LT$alloc..raw_vec..RawVec$LT$T$C$A$GT$$u20$as$u20$core..ops..drop..Drop$GT$4drop17h18f47b219030e187E', symObjAddr: 0x8680, symBinAddr: 0x10000A90C, symSize: 0x30 }
  - { offset: 0x1789F, size: 0x8, addend: 0x0, symName: '__ZN77_$LT$alloc..raw_vec..RawVec$LT$T$C$A$GT$$u20$as$u20$core..ops..drop..Drop$GT$4drop17h1d2b2ad1e4d2978aE', symObjAddr: 0x86B0, symBinAddr: 0x10000A93C, symSize: 0x34 }
  - { offset: 0x178DB, size: 0x8, addend: 0x0, symName: '__ZN77_$LT$alloc..raw_vec..RawVec$LT$T$C$A$GT$$u20$as$u20$core..ops..drop..Drop$GT$4drop17h235f8c9af0bdbf05E', symObjAddr: 0x86E4, symBinAddr: 0x10000A970, symSize: 0x34 }
  - { offset: 0x17917, size: 0x8, addend: 0x0, symName: '__ZN77_$LT$alloc..raw_vec..RawVec$LT$T$C$A$GT$$u20$as$u20$core..ops..drop..Drop$GT$4drop17h2e9863b3b2ee41efE', symObjAddr: 0x8718, symBinAddr: 0x10000A9A4, symSize: 0x30 }
  - { offset: 0x17953, size: 0x8, addend: 0x0, symName: '__ZN77_$LT$alloc..raw_vec..RawVec$LT$T$C$A$GT$$u20$as$u20$core..ops..drop..Drop$GT$4drop17h452ca34bb3d67066E', symObjAddr: 0x8748, symBinAddr: 0x10000A9D4, symSize: 0x30 }
  - { offset: 0x1798F, size: 0x8, addend: 0x0, symName: '__ZN77_$LT$alloc..raw_vec..RawVec$LT$T$C$A$GT$$u20$as$u20$core..ops..drop..Drop$GT$4drop17h46245bc50794ab53E', symObjAddr: 0x8778, symBinAddr: 0x10000AA04, symSize: 0x30 }
  - { offset: 0x179CB, size: 0x8, addend: 0x0, symName: '__ZN77_$LT$alloc..raw_vec..RawVec$LT$T$C$A$GT$$u20$as$u20$core..ops..drop..Drop$GT$4drop17h462ce8092fedd82cE', symObjAddr: 0x87A8, symBinAddr: 0x10000AA34, symSize: 0x34 }
  - { offset: 0x17A07, size: 0x8, addend: 0x0, symName: '__ZN77_$LT$alloc..raw_vec..RawVec$LT$T$C$A$GT$$u20$as$u20$core..ops..drop..Drop$GT$4drop17h5254ce8711436051E', symObjAddr: 0x87DC, symBinAddr: 0x10000AA68, symSize: 0x34 }
  - { offset: 0x17A43, size: 0x8, addend: 0x0, symName: '__ZN77_$LT$alloc..raw_vec..RawVec$LT$T$C$A$GT$$u20$as$u20$core..ops..drop..Drop$GT$4drop17h5403e4057198e414E', symObjAddr: 0x8810, symBinAddr: 0x10000AA9C, symSize: 0x34 }
  - { offset: 0x17A7F, size: 0x8, addend: 0x0, symName: '__ZN77_$LT$alloc..raw_vec..RawVec$LT$T$C$A$GT$$u20$as$u20$core..ops..drop..Drop$GT$4drop17h59902d6c18c324d5E', symObjAddr: 0x8844, symBinAddr: 0x10000AAD0, symSize: 0x34 }
  - { offset: 0x17ABB, size: 0x8, addend: 0x0, symName: '__ZN77_$LT$alloc..raw_vec..RawVec$LT$T$C$A$GT$$u20$as$u20$core..ops..drop..Drop$GT$4drop17h5b214d346e9541afE', symObjAddr: 0x8878, symBinAddr: 0x10000AB04, symSize: 0x34 }
  - { offset: 0x17AF7, size: 0x8, addend: 0x0, symName: '__ZN77_$LT$alloc..raw_vec..RawVec$LT$T$C$A$GT$$u20$as$u20$core..ops..drop..Drop$GT$4drop17h6b277ec080d28ecfE', symObjAddr: 0x88AC, symBinAddr: 0x10000AB38, symSize: 0x34 }
  - { offset: 0x17B33, size: 0x8, addend: 0x0, symName: '__ZN77_$LT$alloc..raw_vec..RawVec$LT$T$C$A$GT$$u20$as$u20$core..ops..drop..Drop$GT$4drop17h6e3ea0d0d11ddc3eE', symObjAddr: 0x88E0, symBinAddr: 0x10000AB6C, symSize: 0x34 }
  - { offset: 0x17B6F, size: 0x8, addend: 0x0, symName: '__ZN77_$LT$alloc..raw_vec..RawVec$LT$T$C$A$GT$$u20$as$u20$core..ops..drop..Drop$GT$4drop17h912889ec692510ceE', symObjAddr: 0x8914, symBinAddr: 0x10000ABA0, symSize: 0x34 }
  - { offset: 0x17BAB, size: 0x8, addend: 0x0, symName: '__ZN77_$LT$alloc..raw_vec..RawVec$LT$T$C$A$GT$$u20$as$u20$core..ops..drop..Drop$GT$4drop17h929b71fa143a8be1E', symObjAddr: 0x8948, symBinAddr: 0x10000ABD4, symSize: 0x34 }
  - { offset: 0x17BE7, size: 0x8, addend: 0x0, symName: '__ZN77_$LT$alloc..raw_vec..RawVec$LT$T$C$A$GT$$u20$as$u20$core..ops..drop..Drop$GT$4drop17h98b0a88e4e7450e0E', symObjAddr: 0x897C, symBinAddr: 0x10000AC08, symSize: 0x34 }
  - { offset: 0x17C23, size: 0x8, addend: 0x0, symName: '__ZN77_$LT$alloc..raw_vec..RawVec$LT$T$C$A$GT$$u20$as$u20$core..ops..drop..Drop$GT$4drop17h9c9941d86c0fc15dE', symObjAddr: 0x89B0, symBinAddr: 0x10000AC3C, symSize: 0x34 }
  - { offset: 0x17C5F, size: 0x8, addend: 0x0, symName: '__ZN77_$LT$alloc..raw_vec..RawVec$LT$T$C$A$GT$$u20$as$u20$core..ops..drop..Drop$GT$4drop17hb4e4cf4c023c1d47E', symObjAddr: 0x89E4, symBinAddr: 0x10000AC70, symSize: 0x34 }
  - { offset: 0x17C9B, size: 0x8, addend: 0x0, symName: '__ZN77_$LT$alloc..raw_vec..RawVec$LT$T$C$A$GT$$u20$as$u20$core..ops..drop..Drop$GT$4drop17hbd731ca9b598c9caE', symObjAddr: 0x8A18, symBinAddr: 0x10000ACA4, symSize: 0x34 }
  - { offset: 0x17CD7, size: 0x8, addend: 0x0, symName: '__ZN77_$LT$alloc..raw_vec..RawVec$LT$T$C$A$GT$$u20$as$u20$core..ops..drop..Drop$GT$4drop17hbe42be2e3c0aebf4E', symObjAddr: 0x8A4C, symBinAddr: 0x10000ACD8, symSize: 0x34 }
  - { offset: 0x17D13, size: 0x8, addend: 0x0, symName: '__ZN77_$LT$alloc..raw_vec..RawVec$LT$T$C$A$GT$$u20$as$u20$core..ops..drop..Drop$GT$4drop17hc84e4e6b66474ce9E', symObjAddr: 0x8A80, symBinAddr: 0x10000AD0C, symSize: 0x34 }
  - { offset: 0x17D4F, size: 0x8, addend: 0x0, symName: '__ZN77_$LT$alloc..raw_vec..RawVec$LT$T$C$A$GT$$u20$as$u20$core..ops..drop..Drop$GT$4drop17hc85160e6b6e50275E', symObjAddr: 0x8AB4, symBinAddr: 0x10000AD40, symSize: 0x34 }
  - { offset: 0x17D8B, size: 0x8, addend: 0x0, symName: '__ZN77_$LT$alloc..raw_vec..RawVec$LT$T$C$A$GT$$u20$as$u20$core..ops..drop..Drop$GT$4drop17hcf9b01bd039e9c31E', symObjAddr: 0x8AE8, symBinAddr: 0x10000AD74, symSize: 0x30 }
  - { offset: 0x17DC7, size: 0x8, addend: 0x0, symName: '__ZN77_$LT$alloc..raw_vec..RawVec$LT$T$C$A$GT$$u20$as$u20$core..ops..drop..Drop$GT$4drop17hcfc0d651cd9b6112E', symObjAddr: 0x8B18, symBinAddr: 0x10000ADA4, symSize: 0x34 }
  - { offset: 0x17E03, size: 0x8, addend: 0x0, symName: '__ZN77_$LT$alloc..raw_vec..RawVec$LT$T$C$A$GT$$u20$as$u20$core..ops..drop..Drop$GT$4drop17hf34c35682b0802feE', symObjAddr: 0x8B4C, symBinAddr: 0x10000ADD8, symSize: 0x30 }
  - { offset: 0x17E3F, size: 0x8, addend: 0x0, symName: '__ZN77_$LT$alloc..raw_vec..RawVec$LT$T$C$A$GT$$u20$as$u20$core..ops..drop..Drop$GT$4drop17hfadabd3912500cf5E', symObjAddr: 0x8B7C, symBinAddr: 0x10000AE08, symSize: 0x34 }
  - { offset: 0x17EB6, size: 0x8, addend: 0x0, symName: '__ZN160_$LT$$LT$T$u20$as$u20$alloc..slice..$LT$impl$u20$$u5b$T$u5d$$GT$..to_vec_in..ConvertVec$GT$..to_vec..DropGuard$LT$T$C$A$GT$$u20$as$u20$core..ops..drop..Drop$GT$4drop17h0535a064e472ef21E', symObjAddr: 0x53C, symBinAddr: 0x1000027C8, symSize: 0x80 }
  - { offset: 0x17F68, size: 0x8, addend: 0x0, symName: '__ZN160_$LT$$LT$T$u20$as$u20$alloc..slice..$LT$impl$u20$$u5b$T$u5d$$GT$..to_vec_in..ConvertVec$GT$..to_vec..DropGuard$LT$T$C$A$GT$$u20$as$u20$core..ops..drop..Drop$GT$4drop17h6b4da87bce684927E', symObjAddr: 0x5BC, symBinAddr: 0x100002848, symSize: 0x80 }
  - { offset: 0x180B1, size: 0x8, addend: 0x0, symName: '__ZN72_$LT$alloc..boxed..Box$LT$T$C$A$GT$$u20$as$u20$core..ops..drop..Drop$GT$4drop17h36a6afb93047e608E', symObjAddr: 0x7508, symBinAddr: 0x100009794, symSize: 0xD0 }
  - { offset: 0x1823F, size: 0x8, addend: 0x0, symName: '__ZN72_$LT$alloc..boxed..Box$LT$T$C$A$GT$$u20$as$u20$core..ops..drop..Drop$GT$4drop17h458ca58c6595984cE', symObjAddr: 0x75D8, symBinAddr: 0x100009864, symSize: 0xE4 }
  - { offset: 0x183D1, size: 0x8, addend: 0x0, symName: '__ZN72_$LT$alloc..boxed..Box$LT$T$C$A$GT$$u20$as$u20$core..ops..drop..Drop$GT$4drop17h7eaf34ac1e8c5db8E', symObjAddr: 0x76BC, symBinAddr: 0x100009948, symSize: 0xE4 }
  - { offset: 0x18563, size: 0x8, addend: 0x0, symName: '__ZN72_$LT$alloc..boxed..Box$LT$T$C$A$GT$$u20$as$u20$core..ops..drop..Drop$GT$4drop17h8d613e6580dd93a0E', symObjAddr: 0x77A0, symBinAddr: 0x100009A2C, symSize: 0xD0 }
  - { offset: 0x186F1, size: 0x8, addend: 0x0, symName: '__ZN72_$LT$alloc..boxed..Box$LT$T$C$A$GT$$u20$as$u20$core..ops..drop..Drop$GT$4drop17haa50f5ef6ce19c53E', symObjAddr: 0x7870, symBinAddr: 0x100009AFC, symSize: 0xD0 }
  - { offset: 0x1887F, size: 0x8, addend: 0x0, symName: '__ZN72_$LT$alloc..boxed..Box$LT$T$C$A$GT$$u20$as$u20$core..ops..drop..Drop$GT$4drop17hb480f519af573c69E', symObjAddr: 0x7940, symBinAddr: 0x100009BCC, symSize: 0xD0 }
  - { offset: 0x18A0D, size: 0x8, addend: 0x0, symName: '__ZN72_$LT$alloc..boxed..Box$LT$T$C$A$GT$$u20$as$u20$core..ops..drop..Drop$GT$4drop17hba43d69ec5140973E', symObjAddr: 0x7A10, symBinAddr: 0x100009C9C, symSize: 0xD0 }
  - { offset: 0x18B9B, size: 0x8, addend: 0x0, symName: '__ZN72_$LT$alloc..boxed..Box$LT$T$C$A$GT$$u20$as$u20$core..ops..drop..Drop$GT$4drop17hbc9f42ea862294b8E', symObjAddr: 0x7AE0, symBinAddr: 0x100009D6C, symSize: 0xD0 }
  - { offset: 0x18D29, size: 0x8, addend: 0x0, symName: '__ZN72_$LT$alloc..boxed..Box$LT$T$C$A$GT$$u20$as$u20$core..ops..drop..Drop$GT$4drop17hc547258e6768df8bE', symObjAddr: 0x7BB0, symBinAddr: 0x100009E3C, symSize: 0xE4 }
  - { offset: 0x18EBB, size: 0x8, addend: 0x0, symName: '__ZN72_$LT$alloc..boxed..Box$LT$T$C$A$GT$$u20$as$u20$core..ops..drop..Drop$GT$4drop17heb5c4869a85f4d67E', symObjAddr: 0x7C94, symBinAddr: 0x100009F20, symSize: 0xD0 }
  - { offset: 0x194ED, size: 0x8, addend: 0x0, symName: '__ZN79_$LT$hashbrown..raw..RawTable$LT$T$C$A$GT$$u20$as$u20$core..ops..drop..Drop$GT$4drop17h8c5a767efb4f2bf8E', symObjAddr: 0x8CE8, symBinAddr: 0x10000AF74, symSize: 0x3C }
  - { offset: 0x19529, size: 0x8, addend: 0x0, symName: '__ZN79_$LT$hashbrown..raw..RawTable$LT$T$C$A$GT$$u20$as$u20$core..ops..drop..Drop$GT$4drop17haa0b2c73ae6d7060E', symObjAddr: 0x8D24, symBinAddr: 0x10000AFB0, symSize: 0x3C }
  - { offset: 0x19565, size: 0x8, addend: 0x0, symName: '__ZN79_$LT$hashbrown..raw..RawTable$LT$T$C$A$GT$$u20$as$u20$core..ops..drop..Drop$GT$4drop17hc2d9c25267616e2fE', symObjAddr: 0x8D60, symBinAddr: 0x10000AFEC, symSize: 0x3C }
  - { offset: 0x195A1, size: 0x8, addend: 0x0, symName: '__ZN79_$LT$hashbrown..raw..RawTable$LT$T$C$A$GT$$u20$as$u20$core..ops..drop..Drop$GT$4drop17hdf57bb1e91199b1eE', symObjAddr: 0x8D9C, symBinAddr: 0x10000B028, symSize: 0x3C }
  - { offset: 0x195E3, size: 0x8, addend: 0x0, symName: '__ZN82_$LT$hashbrown..raw..RawIntoIter$LT$T$C$A$GT$$u20$as$u20$core..ops..drop..Drop$GT$4drop17hd21e7927ceedf94bE', symObjAddr: 0x90C8, symBinAddr: 0x10000B354, symSize: 0x74 }
  - { offset: 0x19935, size: 0x8, addend: 0x0, symName: '__ZN88_$LT$hashbrown..scopeguard..ScopeGuard$LT$T$C$F$GT$$u20$as$u20$core..ops..drop..Drop$GT$4drop17h54b50363690b9751E', symObjAddr: 0x98B4, symBinAddr: 0x10000BB40, symSize: 0x2C }
  - { offset: 0x1996F, size: 0x8, addend: 0x0, symName: '__ZN88_$LT$hashbrown..scopeguard..ScopeGuard$LT$T$C$F$GT$$u20$as$u20$core..ops..drop..Drop$GT$4drop17h61a742c67a240822E', symObjAddr: 0x98E0, symBinAddr: 0x10000BB6C, symSize: 0x2C }
  - { offset: 0x1F61E, size: 0x8, addend: 0x0, symName: '__ZN55_$LT$$RF$T$u20$as$u20$core..convert..AsRef$LT$U$GT$$GT$6as_ref17h5c6342a6f40f64f9E', symObjAddr: 0x0, symBinAddr: 0x10000C5A0, symSize: 0x30 }
  - { offset: 0x1F63A, size: 0x8, addend: 0x0, symName: '__ZN55_$LT$$RF$T$u20$as$u20$core..convert..AsRef$LT$U$GT$$GT$6as_ref17h5c6342a6f40f64f9E', symObjAddr: 0x0, symBinAddr: 0x10000C5A0, symSize: 0x30 }
  - { offset: 0x1F67A, size: 0x8, addend: 0x0, symName: '__ZN55_$LT$$RF$T$u20$as$u20$core..convert..AsRef$LT$U$GT$$GT$6as_ref17hd759a450777bdd89E', symObjAddr: 0x30, symBinAddr: 0x10000C5D0, symSize: 0x30 }
  - { offset: 0x1F7D4, size: 0x8, addend: 0x0, symName: __ZN3std3sys4sync4once5queue4Once5state17h2141dc6d282cae5eE, symObjAddr: 0x0, symBinAddr: 0x10000C600, symSize: 0xA4 }
  - { offset: 0x1F8F3, size: 0x8, addend: 0x0, symName: __ZN3std3sys4sync4once5queue4Once5state17h2141dc6d282cae5eE, symObjAddr: 0x0, symBinAddr: 0x10000C600, symSize: 0xA4 }
  - { offset: 0x1F933, size: 0x8, addend: 0x0, symName: __ZN3std3env3var17hf09ba07a2ecd4537E, symObjAddr: 0x0, symBinAddr: 0x10000C6A4, symSize: 0x68 }
  - { offset: 0x1F94A, size: 0x8, addend: 0x0, symName: __ZN3std3env3var17hf09ba07a2ecd4537E, symObjAddr: 0x0, symBinAddr: 0x10000C6A4, symSize: 0x68 }
  - { offset: 0x1F97F, size: 0x8, addend: 0x0, symName: __ZN3std3env6var_os17h0124c3dc20098b18E, symObjAddr: 0x68, symBinAddr: 0x10000C70C, symSize: 0x68 }
  - { offset: 0x1FD20, size: 0x8, addend: 0x0, symName: __ZN4core7unicode12unicode_data11white_space6lookup17h351e78de0ad50713E, symObjAddr: 0x0, symBinAddr: 0x10000C774, symSize: 0x14C }
  - { offset: 0x1FD41, size: 0x8, addend: 0x0, symName: __ZN4core7unicode12unicode_data11white_space6lookup17h351e78de0ad50713E, symObjAddr: 0x0, symBinAddr: 0x10000C774, symSize: 0x14C }
  - { offset: 0x1FD9F, size: 0x8, addend: 0x0, symName: __ZN3std2io5error14repr_bitpacked14kind_from_prim17h942b22df0d93bf22E, symObjAddr: 0x0, symBinAddr: 0x10000C8C0, symSize: 0x4B0 }
  - { offset: 0x1FEC8, size: 0x8, addend: 0x0, symName: __ZN3std2io5error14repr_bitpacked14kind_from_prim17h942b22df0d93bf22E, symObjAddr: 0x0, symBinAddr: 0x10000C8C0, symSize: 0x4B0 }
  - { offset: 0x206AE, size: 0x8, addend: 0x0, symName: __ZN9gcrust_rt2gc7reflect10ScalarKind4size17h9106d5b9c30c0434E, symObjAddr: 0x0, symBinAddr: 0x10000CD70, symSize: 0x70 }
  - { offset: 0x20778, size: 0x8, addend: 0x0, symName: __ZN9gcrust_rt2gc7reflect14put_field_list17h9fe3a9aca0334d5eE, symObjAddr: 0x3F4, symBinAddr: 0x10000D164, symSize: 0xD8 }
  - { offset: 0x20A0C, size: 0x8, addend: 0x0, symName: __ZN9gcrust_rt2gc7reflect6decode17he313cb4c81436968E, symObjAddr: 0xD5C, symBinAddr: 0x10000DACC, symSize: 0x5E8 }
  - { offset: 0x20C6D, size: 0x8, addend: 0x0, symName: __ZN9gcrust_rt2gc7reflect6encode17h58fddf57c4e03f0fE, symObjAddr: 0x1344, symBinAddr: 0x10000E0B4, symSize: 0x5F0 }
  - { offset: 0x20DD5, size: 0x8, addend: 0x0, symName: __ZN9gcrust_rt2gc7reflect7put_str17h84f6a7cf9550e217E, symObjAddr: 0x1934, symBinAddr: 0x10000E6A4, symSize: 0xB4 }
  - { offset: 0x20E28, size: 0x8, addend: 0x0, symName: __ZN9gcrust_rt2gc7reflect8put_kind17haed49f5e04387ae6E, symObjAddr: 0x19E8, symBinAddr: 0x10000E758, symSize: 0x21C }
  - { offset: 0x20EE2, size: 0x8, addend: 0x0, symName: __ZN9gcrust_rt2gc7reflect9put_field17h93f1ba4c8bfcd4c7E, symObjAddr: 0x1C04, symBinAddr: 0x10000E974, symSize: 0x174 }
  - { offset: 0x21009, size: 0x8, addend: 0x0, symName: __ZN9gcrust_rt2gc7reflect10ScalarKind4size17h9106d5b9c30c0434E, symObjAddr: 0x0, symBinAddr: 0x10000CD70, symSize: 0x70 }
  - { offset: 0x21052, size: 0x8, addend: 0x0, symName: __ZN9gcrust_rt2gc7reflect10ScalarKind6as_str17hc21696b1849e7fc8E, symObjAddr: 0x70, symBinAddr: 0x10000CDE0, symSize: 0x17C }
  - { offset: 0x21074, size: 0x8, addend: 0x0, symName: __ZN9gcrust_rt2gc7reflect10ScalarKind6to_tag17h4f9acf1b012fe5cfE, symObjAddr: 0x1EC, symBinAddr: 0x10000CF5C, symSize: 0xD8 }
  - { offset: 0x21096, size: 0x8, addend: 0x0, symName: __ZN9gcrust_rt2gc7reflect10ScalarKind8from_tag17hdd8575ab1cfb46abE, symObjAddr: 0x2C4, symBinAddr: 0x10000D034, symSize: 0x130 }
  - { offset: 0x21C10, size: 0x8, addend: 0x0, symName: __ZN9gcrust_rt2gc7reflect6Reader10field_list17hdcd12f89c3293ad3E, symObjAddr: 0x4CC, symBinAddr: 0x10000D23C, symSize: 0x58 }
  - { offset: 0x21C51, size: 0x8, addend: 0x0, symName: __ZN9gcrust_rt2gc7reflect6Reader2u817h2504e84a9ce5c60cE, symObjAddr: 0x524, symBinAddr: 0x10000D294, symSize: 0xA0 }
  - { offset: 0x21C8A, size: 0x8, addend: 0x0, symName: __ZN9gcrust_rt2gc7reflect6Reader3u1617h2bbb64310224507aE, symObjAddr: 0x5C4, symBinAddr: 0x10000D334, symSize: 0x130 }
  - { offset: 0x21CEF, size: 0x8, addend: 0x0, symName: __ZN9gcrust_rt2gc7reflect6Reader3u3217h82abac94c7c40af3E, symObjAddr: 0x6F4, symBinAddr: 0x10000D464, symSize: 0x170 }
  - { offset: 0x21DD3, size: 0x8, addend: 0x0, symName: __ZN9gcrust_rt2gc7reflect6Reader4kind17hd5985c2f6b92d3bdE, symObjAddr: 0x864, symBinAddr: 0x10000D5D4, symSize: 0x14C }
  - { offset: 0x21EAC, size: 0x8, addend: 0x0, symName: __ZN9gcrust_rt2gc7reflect6Reader5field17h54c5d5b2e56fced0E, symObjAddr: 0x9B0, symBinAddr: 0x10000D720, symSize: 0x1CC }
  - { offset: 0x21F67, size: 0x8, addend: 0x0, symName: __ZN9gcrust_rt2gc7reflect6Reader6string17hf684b0510a765778E, symObjAddr: 0xB7C, symBinAddr: 0x10000D8EC, symSize: 0x1E0 }
  - { offset: 0x22336, size: 0x8, addend: 0x0, symName: '__ZN52_$LT$Q$u20$as$u20$hashbrown..Equivalent$LT$K$GT$$GT$10equivalent17hfdc1a9c9c47f1503E', symObjAddr: 0x0, symBinAddr: 0x10000EAE8, symSize: 0x40 }
  - { offset: 0x223C9, size: 0x8, addend: 0x0, symName: '__ZN52_$LT$Q$u20$as$u20$hashbrown..Equivalent$LT$K$GT$$GT$10equivalent17hfdc1a9c9c47f1503E', symObjAddr: 0x0, symBinAddr: 0x10000EAE8, symSize: 0x40 }
  - { offset: 0x22449, size: 0x8, addend: 0x0, symName: '__ZN106_$LT$core..ops..range..Range$LT$usize$GT$$u20$as$u20$core..slice..index..SliceIndex$LT$$u5b$T$u5d$$GT$$GT$17get_unchecked_mut18precondition_check17h0355084fcabba316E', symObjAddr: 0x0, symBinAddr: 0x10000EB28, symSize: 0x80 }
  - { offset: 0x2246F, size: 0x8, addend: 0x0, symName: '__ZN106_$LT$core..ops..range..Range$LT$usize$GT$$u20$as$u20$core..slice..index..SliceIndex$LT$$u5b$T$u5d$$GT$$GT$17get_unchecked_mut18precondition_check17h0355084fcabba316E', symObjAddr: 0x0, symBinAddr: 0x10000EB28, symSize: 0x80 }
  - { offset: 0x224DC, size: 0x8, addend: 0x0, symName: '__ZN75_$LT$usize$u20$as$u20$core..slice..index..SliceIndex$LT$$u5b$T$u5d$$GT$$GT$13get_unchecked18precondition_check17h607506d859f6f14cE', symObjAddr: 0x80, symBinAddr: 0x10000EBA8, symSize: 0x60 }
  - { offset: 0x22587, size: 0x8, addend: 0x0, symName: __ZN4core5slice4sort8unstable9quicksort34partition_lomuto_branchless_cyclic17h1d3e0d88332768c2E, symObjAddr: 0x0, symBinAddr: 0x10000EC08, symSize: 0x1DC }
  - { offset: 0x22ADD, size: 0x8, addend: 0x0, symName: __ZN4core5slice4sort8unstable9quicksort34partition_lomuto_branchless_cyclic17h1d3e0d88332768c2E, symObjAddr: 0x0, symBinAddr: 0x10000EC08, symSize: 0x1DC }
  - { offset: 0x22CD4, size: 0x8, addend: 0x0, symName: __ZN4core5slice4sort8unstable9quicksort34partition_lomuto_branchless_cyclic17ha3732253f0533854E, symObjAddr: 0x1DC, symBinAddr: 0x10000EDE4, symSize: 0x1DC }
  - { offset: 0x22ECB, size: 0x8, addend: 0x0, symName: __ZN4core5slice4sort8unstable9quicksort34partition_lomuto_branchless_cyclic17ha71a5bf483a09871E, symObjAddr: 0x3B8, symBinAddr: 0x10000EFC0, symSize: 0x1DC }
  - { offset: 0x230C2, size: 0x8, addend: 0x0, symName: __ZN4core5slice4sort8unstable9quicksort34partition_lomuto_branchless_cyclic17heca88d326163d243E, symObjAddr: 0x594, symBinAddr: 0x10000F19C, symSize: 0x1DC }
  - { offset: 0x232BE, size: 0x8, addend: 0x0, symName: '__ZN4core5slice4sort8unstable9quicksort34partition_lomuto_branchless_cyclic28_$u7b$$u7b$closure$u7d$$u7d$17h19e77c7f7f62f604E', symObjAddr: 0x770, symBinAddr: 0x10000F378, symSize: 0x18C }
  - { offset: 0x233ED, size: 0x8, addend: 0x0, symName: '__ZN4core5slice4sort8unstable9quicksort34partition_lomuto_branchless_cyclic28_$u7b$$u7b$closure$u7d$$u7d$17h3d3dbc8ad27e5233E', symObjAddr: 0x8FC, symBinAddr: 0x10000F504, symSize: 0x18C }
  - { offset: 0x2351C, size: 0x8, addend: 0x0, symName: '__ZN4core5slice4sort8unstable9quicksort34partition_lomuto_branchless_cyclic28_$u7b$$u7b$closure$u7d$$u7d$17h5ed72c55db56df6eE', symObjAddr: 0xA88, symBinAddr: 0x10000F690, symSize: 0x18C }
  - { offset: 0x2364B, size: 0x8, addend: 0x0, symName: '__ZN4core5slice4sort8unstable9quicksort34partition_lomuto_branchless_cyclic28_$u7b$$u7b$closure$u7d$$u7d$17hcef9f5c9919ed013E', symObjAddr: 0xC14, symBinAddr: 0x10000F81C, symSize: 0x18C }
  - { offset: 0x2381F, size: 0x8, addend: 0x0, symName: __ZN4core5slice4sort8unstable9quicksort9partition17h2f9bba5fb31d435bE, symObjAddr: 0xDA0, symBinAddr: 0x10000F9A8, symSize: 0x150 }
  - { offset: 0x238DE, size: 0x8, addend: 0x0, symName: __ZN4core5slice4sort8unstable9quicksort9partition17h82c1e03129b13a08E, symObjAddr: 0xEF0, symBinAddr: 0x10000FAF8, symSize: 0x150 }
  - { offset: 0x2399D, size: 0x8, addend: 0x0, symName: __ZN4core5slice4sort8unstable9quicksort9partition17ha949eec9c8d72470E, symObjAddr: 0x1040, symBinAddr: 0x10000FC48, symSize: 0x150 }
  - { offset: 0x23A5C, size: 0x8, addend: 0x0, symName: __ZN4core5slice4sort8unstable9quicksort9partition17hefc4ebc1d58e4959E, symObjAddr: 0x1190, symBinAddr: 0x10000FD98, symSize: 0x150 }
  - { offset: 0x23B1B, size: 0x8, addend: 0x0, symName: __ZN4core5slice4sort8unstable9quicksort9quicksort17h13f04b4b5df95911E, symObjAddr: 0x12E0, symBinAddr: 0x10000FEE8, symSize: 0x2B8 }
  - { offset: 0x23D43, size: 0x8, addend: 0x0, symName: __ZN4core5slice4sort8unstable9quicksort9quicksort17he6a2b5cdd9c10591E, symObjAddr: 0x1598, symBinAddr: 0x1000101A0, symSize: 0x2B8 }
  - { offset: 0x23F70, size: 0x8, addend: 0x0, symName: '__ZN4core5slice4sort8unstable9quicksort9quicksort28_$u7b$$u7b$closure$u7d$$u7d$17h2e28accca3c69275E', symObjAddr: 0x1850, symBinAddr: 0x100010458, symSize: 0x48 }
  - { offset: 0x23FCD, size: 0x8, addend: 0x0, symName: '__ZN4core5slice4sort8unstable9quicksort9quicksort28_$u7b$$u7b$closure$u7d$$u7d$17hce5de208af10cedfE', symObjAddr: 0x1898, symBinAddr: 0x1000104A0, symSize: 0x48 }
  - { offset: 0x247DE, size: 0x8, addend: 0x0, symName: '__ZN4core3ptr8non_null16NonNull$LT$T$GT$13new_unchecked18precondition_check17hd09f1fb278c15150E', symObjAddr: 0x0, symBinAddr: 0x1000104E8, symSize: 0x58 }
  - { offset: 0x24804, size: 0x8, addend: 0x0, symName: '__ZN4core3ptr8non_null16NonNull$LT$T$GT$13new_unchecked18precondition_check17hd09f1fb278c15150E', symObjAddr: 0x0, symBinAddr: 0x1000104E8, symSize: 0x58 }
  - { offset: 0x248B5, size: 0x8, addend: 0x0, symName: '__ZN4core5slice29_$LT$impl$u20$$u5b$T$u5d$$GT$4iter17h574c0ad2287e1969E', symObjAddr: 0x0, symBinAddr: 0x100010540, symSize: 0x28 }
  - { offset: 0x2597E, size: 0x8, addend: 0x0, symName: '__ZN4core5slice29_$LT$impl$u20$$u5b$T$u5d$$GT$4iter17h574c0ad2287e1969E', symObjAddr: 0x0, symBinAddr: 0x100010540, symSize: 0x28 }
  - { offset: 0x276C2, size: 0x8, addend: 0x0, symName: __ZN5alloc4sync11data_offset17h7792db33c3c2a9a4E, symObjAddr: 0x28, symBinAddr: 0x100010568, symSize: 0x64 }
  - { offset: 0x279BE, size: 0x8, addend: 0x0, symName: '__ZN68_$LT$alloc..sync..Arc$LT$T$C$A$GT$$u20$as$u20$core..clone..Clone$GT$5clone17hce5bcb7887bd5e7eE', symObjAddr: 0x6C8, symBinAddr: 0x100010C08, symSize: 0x84 }
  - { offset: 0x27CC3, size: 0x8, addend: 0x0, symName: '__ZN73_$LT$alloc..sync..Arc$LT$T$C$A$GT$$u20$as$u20$core..ops..deref..Deref$GT$5deref17h01d0efd1d06ba91cE', symObjAddr: 0x74C, symBinAddr: 0x100010C8C, symSize: 0x1C }
  - { offset: 0x27D36, size: 0x8, addend: 0x0, symName: '__ZN73_$LT$alloc..sync..Arc$LT$T$C$A$GT$$u20$as$u20$core..ops..deref..Deref$GT$5deref17hd636c15960c76741E', symObjAddr: 0x768, symBinAddr: 0x100010CA8, symSize: 0x1C }
  - { offset: 0x28459, size: 0x8, addend: 0x0, symName: '__ZN87_$LT$T$u20$as$u20$alloc..slice..$LT$impl$u20$$u5b$T$u5d$$GT$..to_vec_in..ConvertVec$GT$6to_vec17h6753574f7f80cf1dE', symObjAddr: 0x784, symBinAddr: 0x100010CC4, symSize: 0x308 }
  - { offset: 0x28C84, size: 0x8, addend: 0x0, symName: '__ZN5alloc4sync12Arc$LT$T$GT$22increment_strong_count17h18ae8bbf302acd8cE', symObjAddr: 0x8C, symBinAddr: 0x1000105CC, symSize: 0x24 }
  - { offset: 0x28D25, size: 0x8, addend: 0x0, symName: '__ZN5alloc4sync12Arc$LT$T$GT$3new17h5f71c2b20d7f73e8E', symObjAddr: 0xB0, symBinAddr: 0x1000105F0, symSize: 0xD8 }
  - { offset: 0x28EDF, size: 0x8, addend: 0x0, symName: '__ZN5alloc4sync12Arc$LT$T$GT$3new17h9710c0d25f63e4f8E', symObjAddr: 0x188, symBinAddr: 0x1000106C8, symSize: 0xD8 }
  - { offset: 0x29024, size: 0x8, addend: 0x0, symName: '__ZN5alloc4sync12Arc$LT$T$GT$8from_raw17hd0156b3ecf69f198E', symObjAddr: 0x260, symBinAddr: 0x1000107A0, symSize: 0x24 }
  - { offset: 0x2909C, size: 0x8, addend: 0x0, symName: '__ZN5alloc4sync16Arc$LT$T$C$A$GT$11from_raw_in17h2b518a7eef7d470fE', symObjAddr: 0x284, symBinAddr: 0x1000107C4, symSize: 0x7C }
  - { offset: 0x29286, size: 0x8, addend: 0x0, symName: '__ZN5alloc4sync16Arc$LT$T$C$A$GT$25increment_strong_count_in17h1b0ab83bf9c83c78E', symObjAddr: 0x300, symBinAddr: 0x100010840, symSize: 0x90 }
  - { offset: 0x293FC, size: 0x8, addend: 0x0, symName: '__ZN5alloc4sync16Arc$LT$T$C$A$GT$6as_ptr17h324b09325d6b971cE', symObjAddr: 0x390, symBinAddr: 0x1000108D0, symSize: 0x1C }
  - { offset: 0x29431, size: 0x8, addend: 0x0, symName: '__ZN5alloc4sync16Arc$LT$T$C$A$GT$6as_ptr17h6d5a678e4273b9deE', symObjAddr: 0x3AC, symBinAddr: 0x1000108EC, symSize: 0x1C }
  - { offset: 0x29473, size: 0x8, addend: 0x0, symName: '__ZN5alloc4sync16Arc$LT$T$C$A$GT$9drop_slow17h1c9bcc0be4ee8509E', symObjAddr: 0x3C8, symBinAddr: 0x100010908, symSize: 0x74 }
  - { offset: 0x294D3, size: 0x8, addend: 0x0, symName: '__ZN5alloc4sync16Arc$LT$T$C$A$GT$9drop_slow17h2328d1395d334a37E', symObjAddr: 0x43C, symBinAddr: 0x10001097C, symSize: 0x74 }
  - { offset: 0x2957F, size: 0x8, addend: 0x0, symName: '__ZN5alloc4sync16Arc$LT$T$C$A$GT$9drop_slow17h8d0aad9263d1de15E', symObjAddr: 0x4B0, symBinAddr: 0x1000109F0, symSize: 0x74 }
  - { offset: 0x29627, size: 0x8, addend: 0x0, symName: '__ZN5alloc4sync16Arc$LT$T$C$A$GT$9drop_slow17h981745106db58845E', symObjAddr: 0x524, symBinAddr: 0x100010A64, symSize: 0x74 }
  - { offset: 0x29687, size: 0x8, addend: 0x0, symName: '__ZN5alloc4sync16Arc$LT$T$C$A$GT$9drop_slow17hef233b646c066d75E', symObjAddr: 0x598, symBinAddr: 0x100010AD8, symSize: 0x74 }
  - { offset: 0x29807, size: 0x8, addend: 0x0, symName: '__ZN5alloc4sync16Arc$LT$T$C$A$GT$9is_unique17hdf9cad4a3b54a636E', symObjAddr: 0x60C, symBinAddr: 0x100010B4C, symSize: 0xBC }
  - { offset: 0x29EC3, size: 0x8, addend: 0x0, symName: '__ZN51_$LT$T$u20$as$u20$core..borrow..Borrow$LT$T$GT$$GT$6borrow17h9ec1d057160c0ea5E', symObjAddr: 0x0, symBinAddr: 0x100010FCC, symSize: 0x14 }
  - { offset: 0x29EDF, size: 0x8, addend: 0x0, symName: '__ZN51_$LT$T$u20$as$u20$core..borrow..Borrow$LT$T$GT$$GT$6borrow17h9ec1d057160c0ea5E', symObjAddr: 0x0, symBinAddr: 0x100010FCC, symSize: 0x14 }
  - { offset: 0x29F49, size: 0x8, addend: 0x0, symName: '__ZN4core5slice29_$LT$impl$u20$$u5b$T$u5d$$GT$13get_unchecked17he986093a0f9b3e9dE', symObjAddr: 0x0, symBinAddr: 0x100010FE0, symSize: 0x44 }
  - { offset: 0x2A25A, size: 0x8, addend: 0x0, symName: '__ZN4core5slice29_$LT$impl$u20$$u5b$T$u5d$$GT$13get_unchecked17he986093a0f9b3e9dE', symObjAddr: 0x0, symBinAddr: 0x100010FE0, symSize: 0x44 }
  - { offset: 0x2A591, size: 0x8, addend: 0x0, symName: __ZN9gcrust_rt2gc5alloc9alloc_obj17h231018046ce77092E, symObjAddr: 0x16C, symBinAddr: 0x10001114C, symSize: 0x170 }
  - { offset: 0x2A6C4, size: 0x8, addend: 0x0, symName: __ZN9gcrust_rt2gc5alloc9alloc_obj17hc2292cb475bb8e5bE, symObjAddr: 0x2DC, symBinAddr: 0x1000112BC, symSize: 0x15C }
  - { offset: 0x2AA1E, size: 0x8, addend: 0x0, symName: __ZN9gcrust_rt2gc5alloc19AtomicBumpAllocator3new17h59e32508e0e70a8aE, symObjAddr: 0x44, symBinAddr: 0x100011024, symSize: 0x128 }
  - { offset: 0x2AB83, size: 0x8, addend: 0x0, symName: __ZN4core4hash3sip9u8to64_le17he11c440bdb97c43cE, symObjAddr: 0x0, symBinAddr: 0x100011418, symSize: 0x240 }
  - { offset: 0x2ACCB, size: 0x8, addend: 0x0, symName: __ZN4core4hash3sip9u8to64_le17he11c440bdb97c43cE, symObjAddr: 0x0, symBinAddr: 0x100011418, symSize: 0x240 }
  - { offset: 0x2AE88, size: 0x8, addend: 0x0, symName: '__ZN69_$LT$core..hash..sip..Sip13Rounds$u20$as$u20$core..hash..sip..Sip$GT$8c_rounds17h344c677b3ed3bc3eE', symObjAddr: 0x240, symBinAddr: 0x100011658, symSize: 0x1A0 }
  - { offset: 0x2AFFD, size: 0x8, addend: 0x0, symName: '__ZN69_$LT$core..hash..sip..Sip13Rounds$u20$as$u20$core..hash..sip..Sip$GT$8d_rounds17h6b3e1f7c498781d5E', symObjAddr: 0x3E0, symBinAddr: 0x1000117F8, symSize: 0x46C }
  - { offset: 0x2B5C3, size: 0x8, addend: 0x0, symName: __ZN4core3ptr10swap_chunk17h3aeac9a302c2b873E, symObjAddr: 0x0, symBinAddr: 0x100011C64, symSize: 0x3C }
  - { offset: 0x2B72B, size: 0x8, addend: 0x0, symName: __ZN4core3ptr10swap_chunk17h3aeac9a302c2b873E, symObjAddr: 0x0, symBinAddr: 0x100011C64, symSize: 0x3C }
  - { offset: 0x2B764, size: 0x8, addend: 0x0, symName: __ZN4core3ptr10swap_chunk17h4bab46c7dadc6f44E, symObjAddr: 0x3C, symBinAddr: 0x100011CA0, symSize: 0x3C }
  - { offset: 0x2B79D, size: 0x8, addend: 0x0, symName: __ZN4core3ptr10swap_chunk17h7c6b1bdaf10259f8E, symObjAddr: 0x78, symBinAddr: 0x100011CDC, symSize: 0x3C }
  - { offset: 0x2B7D6, size: 0x8, addend: 0x0, symName: __ZN4core3ptr10swap_chunk17hdc8c653b7ecb5426E, symObjAddr: 0xB4, symBinAddr: 0x100011D18, symSize: 0x3C }
  - { offset: 0x2BD11, size: 0x8, addend: 0x0, symName: __ZN4core3ptr14read_unaligned17h4ca047e88948355fE, symObjAddr: 0xF0, symBinAddr: 0x100011D54, symSize: 0x90 }
  - { offset: 0x2BE67, size: 0x8, addend: 0x0, symName: __ZN4core3ptr14read_unaligned17h5f0c6f3d20b4950aE, symObjAddr: 0x180, symBinAddr: 0x100011DE4, symSize: 0x8C }
  - { offset: 0x2BFBD, size: 0x8, addend: 0x0, symName: __ZN4core3ptr14read_unaligned17h8e9f5d0cc696b97eE, symObjAddr: 0x20C, symBinAddr: 0x100011E70, symSize: 0x8C }
  - { offset: 0x2C113, size: 0x8, addend: 0x0, symName: __ZN4core3ptr14read_unaligned17h974cbc0a3a333f28E, symObjAddr: 0x298, symBinAddr: 0x100011EFC, symSize: 0x90 }
  - { offset: 0x2C269, size: 0x8, addend: 0x0, symName: __ZN4core3ptr14read_unaligned17h9c0b55db7fb2b1daE, symObjAddr: 0x328, symBinAddr: 0x100011F8C, symSize: 0x90 }
  - { offset: 0x2C3BF, size: 0x8, addend: 0x0, symName: __ZN4core3ptr14read_unaligned17h9f10fdcb98dafa81E, symObjAddr: 0x3B8, symBinAddr: 0x10001201C, symSize: 0x90 }
  - { offset: 0x2C515, size: 0x8, addend: 0x0, symName: __ZN4core3ptr14read_unaligned17hb1e80d50af6ef975E, symObjAddr: 0x448, symBinAddr: 0x1000120AC, symSize: 0x90 }
  - { offset: 0x2C66B, size: 0x8, addend: 0x0, symName: __ZN4core3ptr14read_unaligned17hb2ab3e483c2870a8E, symObjAddr: 0x4D8, symBinAddr: 0x10001213C, symSize: 0x90 }
  - { offset: 0x2C7C1, size: 0x8, addend: 0x0, symName: __ZN4core3ptr14read_unaligned17hc176088afcbe91fbE, symObjAddr: 0x568, symBinAddr: 0x1000121CC, symSize: 0x9C }
  - { offset: 0x2C917, size: 0x8, addend: 0x0, symName: __ZN4core3ptr14read_unaligned17he0eb80afeb20f08eE, symObjAddr: 0x604, symBinAddr: 0x100012268, symSize: 0x90 }
  - { offset: 0x2CA6D, size: 0x8, addend: 0x0, symName: __ZN4core3ptr14read_unaligned17he3024eee37f3526cE, symObjAddr: 0x694, symBinAddr: 0x1000122F8, symSize: 0x90 }
  - { offset: 0x2CBC3, size: 0x8, addend: 0x0, symName: __ZN4core3ptr14read_unaligned17hf97b256b93819690E, symObjAddr: 0x724, symBinAddr: 0x100012388, symSize: 0x90 }
  - { offset: 0x2CD19, size: 0x8, addend: 0x0, symName: __ZN4core3ptr14read_unaligned17hfe6c9206590b26f2E, symObjAddr: 0x7B4, symBinAddr: 0x100012418, symSize: 0x90 }
  - { offset: 0x2CE48, size: 0x8, addend: 0x0, symName: __ZN4core3ptr15write_unaligned17h7a9577b6b29e3be1E, symObjAddr: 0x844, symBinAddr: 0x1000124A8, symSize: 0x78 }
  - { offset: 0x2D348, size: 0x8, addend: 0x0, symName: __ZN4core3ptr19swap_nonoverlapping17h069b4eba47dc1332E, symObjAddr: 0x8BC, symBinAddr: 0x100012520, symSize: 0xBC }
  - { offset: 0x2D4F2, size: 0x8, addend: 0x0, symName: __ZN4core3ptr19swap_nonoverlapping17h07f1084bcd771330E, symObjAddr: 0x978, symBinAddr: 0x1000125DC, symSize: 0xC4 }
  - { offset: 0x2D66C, size: 0x8, addend: 0x0, symName: __ZN4core3ptr19swap_nonoverlapping17h38e930869047fe8eE, symObjAddr: 0xA3C, symBinAddr: 0x1000126A0, symSize: 0xC4 }
  - { offset: 0x2D7E6, size: 0x8, addend: 0x0, symName: __ZN4core3ptr19swap_nonoverlapping17h699ca62f4a52c16bE, symObjAddr: 0xB00, symBinAddr: 0x100012764, symSize: 0xC0 }
  - { offset: 0x2D960, size: 0x8, addend: 0x0, symName: __ZN4core3ptr19swap_nonoverlapping17h81faf4fb65477a03E, symObjAddr: 0xBC0, symBinAddr: 0x100012824, symSize: 0xBC }
  - { offset: 0x2DADA, size: 0x8, addend: 0x0, symName: __ZN4core3ptr19swap_nonoverlapping17haec5818ff0a360c4E, symObjAddr: 0xC7C, symBinAddr: 0x1000128E0, symSize: 0xC0 }
  - { offset: 0x2DC54, size: 0x8, addend: 0x0, symName: __ZN4core3ptr19swap_nonoverlapping17hd50fcb4630d51d1cE, symObjAddr: 0xD3C, symBinAddr: 0x1000129A0, symSize: 0xC4 }
  - { offset: 0x2DDCE, size: 0x8, addend: 0x0, symName: __ZN4core3ptr19swap_nonoverlapping17he9bac217e7cae164E, symObjAddr: 0xE00, symBinAddr: 0x100012A64, symSize: 0xC0 }
  - { offset: 0x2DF59, size: 0x8, addend: 0x0, symName: __ZN4core3ptr25swap_nonoverlapping_bytes26swap_nonoverlapping_chunks17h8a691f1958608823E, symObjAddr: 0xEC0, symBinAddr: 0x100012B24, symSize: 0xC0 }
  - { offset: 0x2E0D7, size: 0x8, addend: 0x0, symName: __ZN4core3ptr4read17h33ff1f112e4dea12E, symObjAddr: 0xF80, symBinAddr: 0x100012BE4, symSize: 0x18 }
  - { offset: 0x2E10E, size: 0x8, addend: 0x0, symName: __ZN4core3ptr4read17hea79d3f8196a1f9aE, symObjAddr: 0xF98, symBinAddr: 0x100012BFC, symSize: 0x18 }
  - { offset: 0x2E1BD, size: 0x8, addend: 0x0, symName: __ZN4core3ptr4swap17h34d340595c5cba79E, symObjAddr: 0xFB0, symBinAddr: 0x100012C14, symSize: 0x118 }
  - { offset: 0x2E331, size: 0x8, addend: 0x0, symName: __ZN4core3ptr4swap17h7c86727ca1eb499cE, symObjAddr: 0x10C8, symBinAddr: 0x100012D2C, symSize: 0x118 }
  - { offset: 0x2E42D, size: 0x8, addend: 0x0, symName: __ZN4core3ptr5write17h0f7bd3d2ad8d3913E, symObjAddr: 0x11E0, symBinAddr: 0x100012E44, symSize: 0x1C }
  - { offset: 0x2E46F, size: 0x8, addend: 0x0, symName: __ZN4core3ptr5write17h6356f5684b4679fcE, symObjAddr: 0x11FC, symBinAddr: 0x100012E60, symSize: 0x1C }
  - { offset: 0x2E4B1, size: 0x8, addend: 0x0, symName: __ZN4core3ptr5write17he9dca15aca4f5416E, symObjAddr: 0x1218, symBinAddr: 0x100012E7C, symSize: 0x28 }
  - { offset: 0x2FD41, size: 0x8, addend: 0x0, symName: __RNvNtNtNtNtCs6sq8b9ugfBC_4core9core_arch10arm_shared4neon9generated18vreinterpret_s8_u8, symObjAddr: 0x0, symBinAddr: 0x100012EA4, symSize: 0xC }
  - { offset: 0x2FD67, size: 0x8, addend: 0x0, symName: __RNvNtNtNtNtCs6sq8b9ugfBC_4core9core_arch10arm_shared4neon9generated18vreinterpret_s8_u8, symObjAddr: 0x0, symBinAddr: 0x100012EA4, symSize: 0xC }
  - { offset: 0x2FD83, size: 0x8, addend: 0x0, symName: __RNvNtNtNtNtCs6sq8b9ugfBC_4core9core_arch10arm_shared4neon9generated19vreinterpret_u64_u8, symObjAddr: 0xC, symBinAddr: 0x100012EB0, symSize: 0xC }
  - { offset: 0x2FD9F, size: 0x8, addend: 0x0, symName: __RNvNtNtNtNtCs6sq8b9ugfBC_4core9core_arch10arm_shared4neon9generated7vceq_u8, symObjAddr: 0x18, symBinAddr: 0x100012EBC, symSize: 0x14 }
  - { offset: 0x2FDC3, size: 0x8, addend: 0x0, symName: __RNvNtNtNtNtCs6sq8b9ugfBC_4core9core_arch10arm_shared4neon9generated7vorr_u8, symObjAddr: 0x2C, symBinAddr: 0x100012ED0, symSize: 0x14 }
  - { offset: 0x2FDE7, size: 0x8, addend: 0x0, symName: __RNvNtNtNtNtCs6sq8b9ugfBC_4core9core_arch10arm_shared4neon9generated9vdup_n_u8, symObjAddr: 0x40, symBinAddr: 0x100012EE4, symSize: 0x1C }
  - { offset: 0x2FE21, size: 0x8, addend: 0x0, symName: __ZN4core9core_arch10arm_shared4neon9generated13vget_lane_u6417h762fadc83ddce33eE, symObjAddr: 0x12C, symBinAddr: 0x100012FD0, symSize: 0x18 }
  - { offset: 0x2FFCC, size: 0x8, addend: 0x0, symName: __RNvNtNtNtNtCs6sq8b9ugfBC_4core9core_arch7aarch644neon9generated8vcgez_s8, symObjAddr: 0x5C, symBinAddr: 0x100012F00, symSize: 0x68 }
  - { offset: 0x30058, size: 0x8, addend: 0x0, symName: __RNvNtNtNtNtCs6sq8b9ugfBC_4core9core_arch7aarch644neon9generated8vcltz_s8, symObjAddr: 0xC4, symBinAddr: 0x100012F68, symSize: 0x68 }
  - { offset: 0x302B3, size: 0x8, addend: 0x0, symName: __ZN9hashbrown7control5group4neon5Group10match_full17hcf9dce07c185ff65E, symObjAddr: 0x144, symBinAddr: 0x100012FE8, symSize: 0xA8 }
  - { offset: 0x303E1, size: 0x8, addend: 0x0, symName: __ZN9hashbrown7control5group4neon5Group22match_empty_or_deleted17hc54c731f474b2300E, symObjAddr: 0x1EC, symBinAddr: 0x100013090, symSize: 0xA8 }
  - { offset: 0x3050F, size: 0x8, addend: 0x0, symName: __ZN9hashbrown7control5group4neon5Group44convert_special_to_empty_and_full_to_deleted17h42a09ac875ab96dbE, symObjAddr: 0x294, symBinAddr: 0x100013138, symSize: 0xC0 }
  - { offset: 0x30664, size: 0x8, addend: 0x0, symName: __ZN9hashbrown7control5group4neon5Group9match_tag17h5bd837c82811f8d4E, symObjAddr: 0x354, symBinAddr: 0x1000131F8, symSize: 0x68 }
  - { offset: 0x3076E, size: 0x8, addend: 0x0, symName: __RNvNtNtNtNtCs6sq8b9ugfBC_4core9core_arch7aarch644neon9generated7vld1_u8, symObjAddr: 0x0, symBinAddr: 0x100013260, symSize: 0x34 }
  - { offset: 0x3079D, size: 0x8, addend: 0x0, symName: '__ZN9hashbrown3raw21RawTable$LT$T$C$A$GT$14reserve_rehash28_$u7b$$u7b$closure$u7d$$u7d$17h18906e588fbb20bfE', symObjAddr: 0x2E84, symBinAddr: 0x100014AC0, symSize: 0x30 }
  - { offset: 0x307ED, size: 0x8, addend: 0x0, symName: '__ZN9hashbrown3raw21RawTable$LT$T$C$A$GT$14reserve_rehash28_$u7b$$u7b$closure$u7d$$u7d$17h3d3566c00a280ed2E', symObjAddr: 0x2EB4, symBinAddr: 0x100014AF0, symSize: 0xC0 }
  - { offset: 0x309CB, size: 0x8, addend: 0x0, symName: '__ZN9hashbrown3raw21RawTable$LT$T$C$A$GT$14reserve_rehash28_$u7b$$u7b$closure$u7d$$u7d$17h54dac1ac54a836ccE', symObjAddr: 0x2F74, symBinAddr: 0x100014BB0, symSize: 0xC0 }
  - { offset: 0x30BA9, size: 0x8, addend: 0x0, symName: '__ZN9hashbrown3raw21RawTable$LT$T$C$A$GT$14reserve_rehash28_$u7b$$u7b$closure$u7d$$u7d$17h569632ff5bca4b95E', symObjAddr: 0x3034, symBinAddr: 0x100014C70, symSize: 0x30 }
  - { offset: 0x30BF9, size: 0x8, addend: 0x0, symName: '__ZN9hashbrown3raw21RawTable$LT$T$C$A$GT$14reserve_rehash28_$u7b$$u7b$closure$u7d$$u7d$17h8650dfafac860001E', symObjAddr: 0x3064, symBinAddr: 0x100014CA0, symSize: 0xC0 }
  - { offset: 0x30DEB, size: 0x8, addend: 0x0, symName: '__ZN9hashbrown3raw21RawTable$LT$T$C$A$GT$25find_or_find_insert_index28_$u7b$$u7b$closure$u7d$$u7d$17h99f0ddbeac168803E', symObjAddr: 0x3484, symBinAddr: 0x1000150C0, symSize: 0xC4 }
  - { offset: 0x30FDE, size: 0x8, addend: 0x0, symName: '__ZN9hashbrown3raw21RawTable$LT$T$C$A$GT$4find28_$u7b$$u7b$closure$u7d$$u7d$17h2a407c2534d09d1dE', symObjAddr: 0x3E54, symBinAddr: 0x100015A90, symSize: 0xC4 }
  - { offset: 0x311C2, size: 0x8, addend: 0x0, symName: '__ZN9hashbrown3raw21RawTable$LT$T$C$A$GT$4find28_$u7b$$u7b$closure$u7d$$u7d$17h3295ea1654f5cb0cE', symObjAddr: 0x3F18, symBinAddr: 0x100015B54, symSize: 0xC4 }
  - { offset: 0x313A6, size: 0x8, addend: 0x0, symName: '__ZN9hashbrown3raw21RawTable$LT$T$C$A$GT$4find28_$u7b$$u7b$closure$u7d$$u7d$17hfaefb13bfe8c2106E', symObjAddr: 0x3FDC, symBinAddr: 0x100015C18, symSize: 0xC4 }
  - { offset: 0x322E4, size: 0x8, addend: 0x0, symName: '__ZN99_$LT$hashbrown..raw..RawIntoIter$LT$T$C$A$GT$$u20$as$u20$core..iter..traits..iterator..Iterator$GT$4next17h1f1d8f6859596802E', symObjAddr: 0x34, symBinAddr: 0x100013294, symSize: 0x100 }
  - { offset: 0x324AA, size: 0x8, addend: 0x0, symName: '__ZN99_$LT$hashbrown..raw..RawTable$LT$T$C$A$GT$$u20$as$u20$core..iter..traits..collect..IntoIterator$GT$9into_iter17h31750e38df2798c7E', symObjAddr: 0x134, symBinAddr: 0x100013394, symSize: 0x128 }
  - { offset: 0x32A78, size: 0x8, addend: 0x0, symName: '__ZN9hashbrown3raw13RawTableInner14prepare_resize28_$u7b$$u7b$closure$u7d$$u7d$17haa8f9b2d59f946a9E', symObjAddr: 0x56C, symBinAddr: 0x1000137CC, symSize: 0xB0 }
  - { offset: 0x32C2C, size: 0x8, addend: 0x0, symName: '__ZN9hashbrown3raw13RawTableInner15rehash_in_place28_$u7b$$u7b$closure$u7d$$u7d$17h7e49b8a8e27876dbE', symObjAddr: 0x61C, symBinAddr: 0x10001387C, symSize: 0x1F8 }
  - { offset: 0x34E5B, size: 0x8, addend: 0x0, symName: __RNvNtNtNtNtCs6sq8b9ugfBC_4core9core_arch7aarch644neon9generated7vld1_u8, symObjAddr: 0x0, symBinAddr: 0x100013260, symSize: 0x34 }
  - { offset: 0x362FE, size: 0x8, addend: 0x0, symName: __ZN9hashbrown3raw13RawTableInner13drop_elements17h296aec07770cba97E, symObjAddr: 0x25C, symBinAddr: 0x1000134BC, symSize: 0x30 }
  - { offset: 0x3655A, size: 0x8, addend: 0x0, symName: __ZN9hashbrown3raw13RawTableInner13drop_elements17h5b5a852d35a6856aE, symObjAddr: 0x28C, symBinAddr: 0x1000134EC, symSize: 0x158 }
  - { offset: 0x368A3, size: 0x8, addend: 0x0, symName: __ZN9hashbrown3raw13RawTableInner13drop_elements17h8bb8bb483ef9c5c5E, symObjAddr: 0x3E4, symBinAddr: 0x100013644, symSize: 0x30 }
  - { offset: 0x36B33, size: 0x8, addend: 0x0, symName: __ZN9hashbrown3raw13RawTableInner13drop_elements17hd3a4d135b7a1eea6E, symObjAddr: 0x414, symBinAddr: 0x100013674, symSize: 0x158 }
  - { offset: 0x3709F, size: 0x8, addend: 0x0, symName: __ZN9hashbrown3raw13RawTableInner16drop_inner_table17h57ceab4d183aea9aE, symObjAddr: 0x814, symBinAddr: 0x100013A74, symSize: 0xB0 }
  - { offset: 0x37324, size: 0x8, addend: 0x0, symName: __ZN9hashbrown3raw13RawTableInner16drop_inner_table17h5987f67f1007c306E, symObjAddr: 0x8C4, symBinAddr: 0x100013B24, symSize: 0xB0 }
  - { offset: 0x375A9, size: 0x8, addend: 0x0, symName: __ZN9hashbrown3raw13RawTableInner16drop_inner_table17ha13fa59ce9d8857aE, symObjAddr: 0x974, symBinAddr: 0x100013BD4, symSize: 0xB0 }
  - { offset: 0x3782E, size: 0x8, addend: 0x0, symName: __ZN9hashbrown3raw13RawTableInner16drop_inner_table17hf5bc3d2eabb574ddE, symObjAddr: 0xA24, symBinAddr: 0x100013C84, symSize: 0xB0 }
  - { offset: 0x37A52, size: 0x8, addend: 0x0, symName: __ZN9hashbrown3raw13RawTableInner17new_uninitialized17h09732499cdc70546E, symObjAddr: 0xAD4, symBinAddr: 0x100013D34, symSize: 0x294 }
  - { offset: 0x37D87, size: 0x8, addend: 0x0, symName: __ZN9hashbrown3raw13RawTableInner22fallible_with_capacity17hdbabc0d9c689ab86E, symObjAddr: 0xD68, symBinAddr: 0x100013FC8, symSize: 0x220 }
  - { offset: 0x380E9, size: 0x8, addend: 0x0, symName: '__ZN9hashbrown3raw16RawIter$LT$T$GT$13drop_elements17h3f9350ffa33feacaE', symObjAddr: 0xF88, symBinAddr: 0x1000141E8, symSize: 0xD8 }
  - { offset: 0x38268, size: 0x8, addend: 0x0, symName: '__ZN9hashbrown3raw21RawIterRange$LT$T$GT$3new17h15caf1b7acb82728E', symObjAddr: 0x1060, symBinAddr: 0x1000142C0, symSize: 0xA8 }
  - { offset: 0x383F3, size: 0x8, addend: 0x0, symName: '__ZN9hashbrown3raw21RawIterRange$LT$T$GT$3new17h206649332d960a18E', symObjAddr: 0x1108, symBinAddr: 0x100014368, symSize: 0xA8 }
  - { offset: 0x386A5, size: 0x8, addend: 0x0, symName: '__ZN9hashbrown3raw21RawIterRange$LT$T$GT$9next_impl17h21e3c3d16f7310b9E', symObjAddr: 0x11B0, symBinAddr: 0x100014410, symSize: 0x1C4 }
  - { offset: 0x38B0D, size: 0x8, addend: 0x0, symName: '__ZN9hashbrown3raw21RawIterRange$LT$T$GT$9next_impl17h87be8c610181ceacE', symObjAddr: 0x1374, symBinAddr: 0x1000145D4, symSize: 0x1C4 }
  - { offset: 0x39039, size: 0x8, addend: 0x0, symName: '__ZN9hashbrown3raw21RawTable$LT$T$C$A$GT$14insert_no_grow17h8f52e4674c3d0c39E', symObjAddr: 0x1538, symBinAddr: 0x100014798, symSize: 0x194 }
  - { offset: 0x395EA, size: 0x8, addend: 0x0, symName: '__ZN9hashbrown3raw21RawTable$LT$T$C$A$GT$14insert_no_grow17hdacc0ffbf3d50ce1E', symObjAddr: 0x16CC, symBinAddr: 0x10001492C, symSize: 0x194 }
  - { offset: 0x39E3C, size: 0x8, addend: 0x0, symName: '__ZN9hashbrown3raw21RawTable$LT$T$C$A$GT$14reserve_rehash17h18b410d9250e6b6aE', symObjAddr: 0x1860, symBinAddr: 0x100103C94, symSize: 0x76C }
  - { offset: 0x3A6F2, size: 0x8, addend: 0x0, symName: '__ZN9hashbrown3raw21RawTable$LT$T$C$A$GT$14reserve_rehash17h76c1c5eceb9ad740E', symObjAddr: 0x1FCC, symBinAddr: 0x100104400, symSize: 0x75C }
  - { offset: 0x3AFB5, size: 0x8, addend: 0x0, symName: '__ZN9hashbrown3raw21RawTable$LT$T$C$A$GT$14reserve_rehash17hbd82d6dd513d8c8fE', symObjAddr: 0x2728, symBinAddr: 0x100104B5C, symSize: 0x75C }
  - { offset: 0x3BC5E, size: 0x8, addend: 0x0, symName: '__ZN9hashbrown3raw21RawTable$LT$T$C$A$GT$15into_allocation17h98c5ca37b5ed9a10E', symObjAddr: 0x3124, symBinAddr: 0x100014D60, symSize: 0x108 }
  - { offset: 0x3BF1D, size: 0x8, addend: 0x0, symName: '__ZN9hashbrown3raw21RawTable$LT$T$C$A$GT$22insert_tagged_at_index17h7223f436aa6dceb1E', symObjAddr: 0x322C, symBinAddr: 0x100014E68, symSize: 0x124 }
  - { offset: 0x3C399, size: 0x8, addend: 0x0, symName: '__ZN9hashbrown3raw21RawTable$LT$T$C$A$GT$25find_or_find_insert_index17h7b5b80549289913eE', symObjAddr: 0x3350, symBinAddr: 0x100014F8C, symSize: 0x134 }
  - { offset: 0x3C99E, size: 0x8, addend: 0x0, symName: '__ZN9hashbrown3raw21RawTable$LT$T$C$A$GT$4find17h37b29c31ecc20a92E', symObjAddr: 0x3548, symBinAddr: 0x100015184, symSize: 0x304 }
  - { offset: 0x3CF61, size: 0x8, addend: 0x0, symName: '__ZN9hashbrown3raw21RawTable$LT$T$C$A$GT$4find17h3d020bf5ca364709E', symObjAddr: 0x384C, symBinAddr: 0x100015488, symSize: 0x304 }
  - { offset: 0x3D524, size: 0x8, addend: 0x0, symName: '__ZN9hashbrown3raw21RawTable$LT$T$C$A$GT$4find17h9602ba22e031cd41E', symObjAddr: 0x3B50, symBinAddr: 0x10001578C, symSize: 0x304 }
  - { offset: 0x3DD9F, size: 0x8, addend: 0x0, symName: '__ZN9hashbrown3raw21RawTable$LT$T$C$A$GT$7reserve17h71f23ed585164455E', symObjAddr: 0x40A0, symBinAddr: 0x100015CDC, symSize: 0x90 }
  - { offset: 0x3DE19, size: 0x8, addend: 0x0, symName: '__ZN9hashbrown3raw21RawTable$LT$T$C$A$GT$7reserve17ha2461a2f988ebbe5E', symObjAddr: 0x4130, symBinAddr: 0x100015D6C, symSize: 0x90 }
  - { offset: 0x3DE93, size: 0x8, addend: 0x0, symName: '__ZN9hashbrown3raw21RawTable$LT$T$C$A$GT$7reserve17ha7f06a6b09d38244E', symObjAddr: 0x41C0, symBinAddr: 0x100015DFC, symSize: 0x90 }
  - { offset: 0x3DF5F, size: 0x8, addend: 0x0, symName: '__ZN74_$LT$gcrust_rt..gc..statemap..TraceEvent$u20$as$u20$core..clone..Clone$GT$5clone17h0bd6b7b1e76863faE', symObjAddr: 0x0, symBinAddr: 0x100015E8C, symSize: 0x98 }
  - { offset: 0x3E5FD, size: 0x8, addend: 0x0, symName: '__ZN74_$LT$gcrust_rt..gc..statemap..TraceEvent$u20$as$u20$core..clone..Clone$GT$5clone17h0bd6b7b1e76863faE', symObjAddr: 0x0, symBinAddr: 0x100015E8C, symSize: 0x98 }
  - { offset: 0x3E62F, size: 0x8, addend: 0x0, symName: '__ZN74_$LT$gcrust_rt..gc..statemap..TraceState$u20$as$u20$core..clone..Clone$GT$5clone17hd6f5d0f2248bb953E', symObjAddr: 0x98, symBinAddr: 0x100015F24, symSize: 0x18 }
  - { offset: 0x3EDDA, size: 0x8, addend: 0x0, symName: __ZN9gcrust_rt2gc8statemap10TraceState4name17h18444b327ffb33aaE, symObjAddr: 0xB0, symBinAddr: 0x100015F3C, symSize: 0x164 }
  - { offset: 0x3EDFC, size: 0x8, addend: 0x0, symName: __ZN9gcrust_rt2gc8statemap10TraceState5color17hc10e93a04269df9aE, symObjAddr: 0x214, symBinAddr: 0x1000160A0, symSize: 0x164 }
  - { offset: 0x3EE1E, size: 0x8, addend: 0x0, symName: __ZN9gcrust_rt2gc8statemap10TraceState5value17h1218e8abdd8eb71fE, symObjAddr: 0x378, symBinAddr: 0x100016204, symSize: 0x10 }
  - { offset: 0x3EE54, size: 0x8, addend: 0x0, symName: __ZN9gcrust_rt2gc8statemap14StatemapTracer13record_thread17h83a222bb83263b2eE, symObjAddr: 0x388, symBinAddr: 0x100016214, symSize: 0xD0 }
  - { offset: 0x3EF69, size: 0x8, addend: 0x0, symName: __ZN9gcrust_rt2gc8statemap14StatemapTracer13write_to_file17h684f25e4ff266997E, symObjAddr: 0x458, symBinAddr: 0x1000162E4, symSize: 0xE0 }
  - { offset: 0x3F056, size: 0x8, addend: 0x0, symName: __ZN9gcrust_rt2gc8statemap14StatemapTracer3len17h7d0323327d3c6634E, symObjAddr: 0x538, symBinAddr: 0x1000163C4, symSize: 0x124 }
  - { offset: 0x3F0B0, size: 0x8, addend: 0x0, symName: __ZN9gcrust_rt2gc8statemap14StatemapTracer3new17h2e76d780352020c2E, symObjAddr: 0x65C, symBinAddr: 0x1000164E8, symSize: 0x9C }
  - { offset: 0x3F0C3, size: 0x8, addend: 0x0, symName: __ZN9gcrust_rt2gc8statemap14StatemapTracer6record17h3b5d011edb9713baE, symObjAddr: 0x6F8, symBinAddr: 0x100016584, symSize: 0x218 }
  - { offset: 0x3F17E, size: 0x8, addend: 0x0, symName: __ZN9gcrust_rt2gc8statemap14StatemapTracer9record_gc17h090deb8773d0cae1E, symObjAddr: 0x910, symBinAddr: 0x10001679C, symSize: 0x3C }
  - { offset: 0x3F299, size: 0x8, addend: 0x0, symName: __ZN3std2io17default_write_fmt17h1b74764311ead9b2E, symObjAddr: 0x0, symBinAddr: 0x1000167D8, symSize: 0x100 }
  - { offset: 0x3F329, size: 0x8, addend: 0x0, symName: '__ZN81_$LT$std..io..default_write_fmt..Adapter$LT$T$GT$$u20$as$u20$core..fmt..Write$GT$9write_str17h20263fc5fb06224cE', symObjAddr: 0x478, symBinAddr: 0x100016C50, symSize: 0xB4 }
  - { offset: 0x3F385, size: 0x8, addend: 0x0, symName: '__ZN81_$LT$std..io..default_write_fmt..Adapter$LT$T$GT$$u20$as$u20$core..fmt..Write$GT$9write_str17h803bc23e02a561afE', symObjAddr: 0x52C, symBinAddr: 0x100016D04, symSize: 0xB4 }
  - { offset: 0x3F635, size: 0x8, addend: 0x0, symName: __ZN3std2io17default_write_fmt17h1b74764311ead9b2E, symObjAddr: 0x0, symBinAddr: 0x1000167D8, symSize: 0x100 }
  - { offset: 0x3F6BC, size: 0x8, addend: 0x0, symName: __ZN3std2io17default_write_fmt17hb688969662ab101fE, symObjAddr: 0x100, symBinAddr: 0x1000168D8, symSize: 0x100 }
  - { offset: 0x3FA6B, size: 0x8, addend: 0x0, symName: __ZN4core3fmt5Write10write_char17h8f04df09e7a8dcc0E, symObjAddr: 0x200, symBinAddr: 0x1000169D8, symSize: 0x70 }
  - { offset: 0x3FAD3, size: 0x8, addend: 0x0, symName: __ZN4core3fmt5Write10write_char17hac4ae13612c4badcE, symObjAddr: 0x270, symBinAddr: 0x100016A48, symSize: 0x70 }
  - { offset: 0x3FB3B, size: 0x8, addend: 0x0, symName: __ZN4core3fmt5Write9write_fmt17h189a1b9a80dba998E, symObjAddr: 0x2E0, symBinAddr: 0x100016AB8, symSize: 0x34 }
  - { offset: 0x3FB7E, size: 0x8, addend: 0x0, symName: __ZN4core3fmt5Write9write_fmt17h86255ad81177fd5dE, symObjAddr: 0x314, symBinAddr: 0x100016AEC, symSize: 0x34 }
  - { offset: 0x3FBCB, size: 0x8, addend: 0x0, symName: '__ZN75_$LT$$RF$mut$u20$W$u20$as$u20$core..fmt..Write..write_fmt..SpecWriteFmt$GT$14spec_write_fmt17hd402d1103cc4cff3E', symObjAddr: 0x348, symBinAddr: 0x100016B20, symSize: 0x98 }
  - { offset: 0x3FC2B, size: 0x8, addend: 0x0, symName: '__ZN75_$LT$$RF$mut$u20$W$u20$as$u20$core..fmt..Write..write_fmt..SpecWriteFmt$GT$14spec_write_fmt17he23b6e750eb2f469E', symObjAddr: 0x3E0, symBinAddr: 0x100016BB8, symSize: 0x98 }
  - { offset: 0x40011, size: 0x8, addend: 0x0, symName: __ZN3std2io5error14repr_bitpacked11decode_repr17h3d89f8f0e5b3ab14E, symObjAddr: 0x0, symBinAddr: 0x100016DB8, symSize: 0x1DC }
  - { offset: 0x40255, size: 0x8, addend: 0x0, symName: '__ZN78_$LT$std..io..error..repr_bitpacked..Repr$u20$as$u20$core..ops..drop..Drop$GT$4drop28_$u7b$$u7b$closure$u7d$$u7d$17h2ed9e19b42882621E', symObjAddr: 0x3CC, symBinAddr: 0x100017184, symSize: 0x3C }
  - { offset: 0x4030B, size: 0x8, addend: 0x0, symName: __ZN3std2io5error14repr_bitpacked11decode_repr17h3d89f8f0e5b3ab14E, symObjAddr: 0x0, symBinAddr: 0x100016DB8, symSize: 0x1DC }
  - { offset: 0x40561, size: 0x8, addend: 0x0, symName: '__ZN3std2io5error14repr_bitpacked4Repr4data28_$u7b$$u7b$closure$u7d$$u7d$17ha40fd4710c7520b8E', symObjAddr: 0x3B8, symBinAddr: 0x100017170, symSize: 0x14 }
  - { offset: 0x40599, size: 0x8, addend: 0x0, symName: __ZN3std2io5error14repr_bitpacked11decode_repr17h4f6d4d2a619ebf3aE, symObjAddr: 0x1DC, symBinAddr: 0x100016F94, symSize: 0x1DC }
  - { offset: 0x41468, size: 0x8, addend: 0x0, symName: __ZN4core3cmp9PartialEq2ne17hbcd75548136459bfE, symObjAddr: 0x0, symBinAddr: 0x1000171C0, symSize: 0x30 }
  - { offset: 0x41484, size: 0x8, addend: 0x0, symName: __ZN4core3cmp9PartialEq2ne17hbcd75548136459bfE, symObjAddr: 0x0, symBinAddr: 0x1000171C0, symSize: 0x30 }
  - { offset: 0x416B0, size: 0x8, addend: 0x0, symName: '__ZN62_$LT$std..thread..id..ThreadId$u20$as$u20$core..hash..Hash$GT$4hash17h830c03e2690885f8E', symObjAddr: 0x30, symBinAddr: 0x1000171F0, symSize: 0x3C }
  - { offset: 0x417AA, size: 0x8, addend: 0x0, symName: '__ZN4core3ptr7mut_ptr31_$LT$impl$u20$$BP$mut$u20$T$GT$7is_null17h9f30f1407bd61bdaE', symObjAddr: 0x0, symBinAddr: 0x10001722C, symSize: 0x18 }
  - { offset: 0x41808, size: 0x8, addend: 0x0, symName: '__ZN4core3ptr7mut_ptr31_$LT$impl$u20$$BP$mut$u20$T$GT$7is_null17h9f30f1407bd61bdaE', symObjAddr: 0x0, symBinAddr: 0x10001722C, symSize: 0x18 }
  - { offset: 0x41934, size: 0x8, addend: 0x0, symName: '__ZN4core5slice29_$LT$impl$u20$$u5b$T$u5d$$GT$4iter17h3eb470c095cf1865E', symObjAddr: 0x18, symBinAddr: 0x100017244, symSize: 0x28 }
  - { offset: 0x4196B, size: 0x8, addend: 0x0, symName: '__ZN4core5slice29_$LT$impl$u20$$u5b$T$u5d$$GT$4iter17hace3eb863dd19b58E', symObjAddr: 0x40, symBinAddr: 0x10001726C, symSize: 0x28 }
  - { offset: 0x419A2, size: 0x8, addend: 0x0, symName: '__ZN4core5slice29_$LT$impl$u20$$u5b$T$u5d$$GT$8is_empty17h6e8fcc77920aa43dE', symObjAddr: 0x68, symBinAddr: 0x100017294, symSize: 0x1C }
  - { offset: 0x41B80, size: 0x8, addend: 0x0, symName: '__ZN81_$LT$gcrust_rt..gc..roots..InstallChainGuard$u20$as$u20$core..ops..drop..Drop$GT$4drop28_$u7b$$u7b$closure$u7d$$u7d$17hacfddf89b4297a2aE', symObjAddr: 0x84, symBinAddr: 0x1000172B0, symSize: 0x38 }
  - { offset: 0x41BC7, size: 0x8, addend: 0x0, symName: '__ZN9gcrust_rt2gc5roots12ACTIVE_CHAIN29_$u7b$$u7b$constant$u7d$$u7d$28_$u7b$$u7b$closure$u7d$$u7d$17hf220047776797f06E', symObjAddr: 0xBC, symBinAddr: 0x1000172E8, symSize: 0x30 }
  - { offset: 0x41C07, size: 0x8, addend: 0x0, symName: '__ZN9gcrust_rt2gc5roots13install_chain28_$u7b$$u7b$closure$u7d$$u7d$17hd55e4b4559f96a45E', symObjAddr: 0xEC, symBinAddr: 0x100017318, symSize: 0x54 }
  - { offset: 0x41DE6, size: 0x8, addend: 0x0, symName: __ZN3std9panicking12catch_unwind7do_call17h075a79e0e66be879E, symObjAddr: 0x0, symBinAddr: 0x10001736C, symSize: 0x58 }
  - { offset: 0x438D5, size: 0x8, addend: 0x0, symName: __ZN3std9panicking12catch_unwind7do_call17h075a79e0e66be879E, symObjAddr: 0x0, symBinAddr: 0x10001736C, symSize: 0x58 }
  - { offset: 0x4399D, size: 0x8, addend: 0x0, symName: __ZN3std9panicking12catch_unwind7do_call17hf362eff8458e869fE, symObjAddr: 0x58, symBinAddr: 0x1000173C4, symSize: 0x34 }
  - { offset: 0x43A66, size: 0x8, addend: 0x0, symName: __ZN3std9panicking12catch_unwind8do_catch17h2d89f428b3bcfcacE, symObjAddr: 0x8C, symBinAddr: 0x1000173F8, symSize: 0x70 }
  - { offset: 0x43AFB, size: 0x8, addend: 0x0, symName: __ZN3std9panicking12catch_unwind8do_catch17h76ee05a3dee996d0E, symObjAddr: 0xFC, symBinAddr: 0x100017468, symSize: 0x70 }
  - { offset: 0x448D9, size: 0x8, addend: 0x0, symName: __ZN3std3sys2fs4unix23debug_assert_fd_is_open17h52554be5421cb0c5E, symObjAddr: 0x0, symBinAddr: 0x1000174D8, symSize: 0x98 }
  - { offset: 0x4491C, size: 0x8, addend: 0x0, symName: __ZN3std3sys2fs4unix23debug_assert_fd_is_open17h52554be5421cb0c5E, symObjAddr: 0x0, symBinAddr: 0x1000174D8, symSize: 0x98 }
  - { offset: 0x449B5, size: 0x8, addend: 0x0, symName: '__ZN107_$LT$core..iter..adapters..fuse..Fuse$LT$I$GT$$u20$as$u20$core..iter..adapters..fuse..FuseImpl$LT$I$GT$$GT$4next17h10bc22640be8f41aE', symObjAddr: 0x0, symBinAddr: 0x100017570, symSize: 0x80 }
  - { offset: 0x44D9A, size: 0x8, addend: 0x0, symName: '__ZN107_$LT$core..iter..adapters..fuse..Fuse$LT$I$GT$$u20$as$u20$core..iter..adapters..fuse..FuseImpl$LT$I$GT$$GT$4next17h10bc22640be8f41aE', symObjAddr: 0x0, symBinAddr: 0x100017570, symSize: 0x80 }
  - { offset: 0x45055, size: 0x8, addend: 0x0, symName: '__ZN73_$LT$gcrust_rt..gc..thread..SiteCounter$u20$as$u20$core..clone..Clone$GT$5clone17h6ef5e88cf1079590E', symObjAddr: 0x0, symBinAddr: 0x1000175F0, symSize: 0x20 }
  - { offset: 0x46999, size: 0x8, addend: 0x0, symName: '__ZN73_$LT$gcrust_rt..gc..thread..SiteCounter$u20$as$u20$core..clone..Clone$GT$5clone17h6ef5e88cf1079590E', symObjAddr: 0x0, symBinAddr: 0x1000175F0, symSize: 0x20 }
  - { offset: 0x469CB, size: 0x8, addend: 0x0, symName: '__ZN77_$LT$gcrust_rt..gc..thread..SiteCounter$u20$as$u20$core..default..Default$GT$7default17h4316e417ffc7ff71E', symObjAddr: 0x20, symBinAddr: 0x100017610, symSize: 0xC }
  - { offset: 0x469EE, size: 0x8, addend: 0x0, symName: '__ZN87_$LT$gcrust_rt..gc..thread..ThreadState$u20$as$u20$gcrust_rt..gc..roots..RootSource$GT$10scan_roots17hb9bc77f5470908daE', symObjAddr: 0x2C, symBinAddr: 0x10001761C, symSize: 0xC0 }
  - { offset: 0x476AA, size: 0x8, addend: 0x0, symName: __ZN9gcrust_rt2gc6thread11ThreadState10clear_poll17h24764b970e36db8aE, symObjAddr: 0xEC, symBinAddr: 0x1000176DC, symSize: 0x9C }
  - { offset: 0x476E3, size: 0x8, addend: 0x0, symName: __ZN9gcrust_rt2gc6thread11ThreadState10is_blocked17h6cab6a324a896db3E, symObjAddr: 0x188, symBinAddr: 0x100017778, symSize: 0x34 }
  - { offset: 0x47706, size: 0x8, addend: 0x0, symName: __ZN9gcrust_rt2gc6thread11ThreadState10scratch_at17h0ce0db4035c227d8E, symObjAddr: 0x1BC, symBinAddr: 0x1000177AC, symSize: 0x64 }
  - { offset: 0x47743, size: 0x8, addend: 0x0, symName: __ZN9gcrust_rt2gc6thread11ThreadState11satb_buffer17hbe5126bd8f8bebadE, symObjAddr: 0x220, symBinAddr: 0x100017810, symSize: 0x80 }
  - { offset: 0x4796B, size: 0x8, addend: 0x0, symName: __ZN9gcrust_rt2gc6thread11ThreadState12exit_blocked17ha77d338367aebd04E, symObjAddr: 0x2A0, symBinAddr: 0x100017890, symSize: 0x88 }
  - { offset: 0x479F7, size: 0x8, addend: 0x0, symName: __ZN9gcrust_rt2gc6thread11ThreadState12push_scratch17hfc92ca30422a37b1E, symObjAddr: 0x328, symBinAddr: 0x100017918, symSize: 0x10C }
  - { offset: 0x47A76, size: 0x8, addend: 0x0, symName: __ZN9gcrust_rt2gc6thread11ThreadState12record_alloc17h2edd80df066bbbf7E, symObjAddr: 0x434, symBinAddr: 0x100017A24, symSize: 0x188 }
  - { offset: 0x47AF3, size: 0x8, addend: 0x0, symName: __ZN9gcrust_rt2gc6thread11ThreadState12request_poll17h1beae677a69894c0E, symObjAddr: 0x5BC, symBinAddr: 0x100017BAC, symSize: 0x9C }
  - { offset: 0x47B2C, size: 0x8, addend: 0x0, symName: __ZN9gcrust_rt2gc6thread11ThreadState12scratch_mark17h1576efc436d7b366E, symObjAddr: 0x658, symBinAddr: 0x100017C48, symSize: 0x28 }
  - { offset: 0x47B4E, size: 0x8, addend: 0x0, symName: __ZN9gcrust_rt2gc6thread11ThreadState13enter_blocked17hfdf775fd87e0a53bE, symObjAddr: 0x680, symBinAddr: 0x100017C70, symSize: 0xD4 }
  - { offset: 0x47C17, size: 0x8, addend: 0x0, symName: __ZN9gcrust_rt2gc6thread11ThreadState13parked_jit_fp17h295203916477aa27E, symObjAddr: 0x754, symBinAddr: 0x100017D44, symSize: 0x28 }
  - { offset: 0x47C3A, size: 0x8, addend: 0x0, symName: __ZN9gcrust_rt2gc6thread11ThreadState13safepoint_gen17hfada57b13f64e58cE, symObjAddr: 0x77C, symBinAddr: 0x100017D6C, symSize: 0x28 }
  - { offset: 0x47C5D, size: 0x8, addend: 0x0, symName: __ZN9gcrust_rt2gc6thread11ThreadState13scratch_reset17h3ec096171a1c12f3E, symObjAddr: 0x7A4, symBinAddr: 0x100017D94, symSize: 0x2C }
  - { offset: 0x47C8D, size: 0x8, addend: 0x0, symName: __ZN9gcrust_rt2gc6thread11ThreadState13scratch_scope17h44cf72185ba5d328E, symObjAddr: 0x7D0, symBinAddr: 0x100017DC0, symSize: 0x30 }
  - { offset: 0x47CAF, size: 0x8, addend: 0x0, symName: __ZN9gcrust_rt2gc6thread11ThreadState13set_poll_flag17h815e3ce548d9c974E, symObjAddr: 0x800, symBinAddr: 0x100017DF0, symSize: 0x30 }
  - { offset: 0x47D74, size: 0x8, addend: 0x0, symName: __ZN9gcrust_rt2gc6thread11ThreadState15enter_safepoint17ha298d28c0b06b6aaE, symObjAddr: 0x830, symBinAddr: 0x100017E20, symSize: 0x2A0 }
  - { offset: 0x47E1A, size: 0x8, addend: 0x0, symName: __ZN9gcrust_rt2gc6thread11ThreadState15is_at_safepoint17h7852a52374f98c81E, symObjAddr: 0xAD0, symBinAddr: 0x1000180C0, symSize: 0x34 }
  - { offset: 0x47E3D, size: 0x8, addend: 0x0, symName: __ZN9gcrust_rt2gc6thread11ThreadState15park_handed_off17hee71273710de6953E, symObjAddr: 0xB04, symBinAddr: 0x1000180F4, symSize: 0x70 }
  - { offset: 0x47E60, size: 0x8, addend: 0x0, symName: __ZN9gcrust_rt2gc6thread11ThreadState17set_parked_jit_fp17h47a965990e59a1c4E, symObjAddr: 0xB74, symBinAddr: 0x100018164, symSize: 0x30 }
  - { offset: 0x47E92, size: 0x8, addend: 0x0, symName: __ZN9gcrust_rt2gc6thread11ThreadState19alloc_site_counters17h8ee7c35b3659a785E, symObjAddr: 0xBA4, symBinAddr: 0x100018194, symSize: 0x8C }
  - { offset: 0x47EB4, size: 0x8, addend: 0x0, symName: __ZN9gcrust_rt2gc6thread11ThreadState19clear_parked_jit_fp17hbb1407f2bf486300E, symObjAddr: 0xC30, symBinAddr: 0x100018220, symSize: 0x2C }
  - { offset: 0x47ED7, size: 0x8, addend: 0x0, symName: __ZN9gcrust_rt2gc6thread11ThreadState22is_safely_at_safepoint17hb7642d7119faad9eE, symObjAddr: 0xC5C, symBinAddr: 0x10001824C, symSize: 0x1B4 }
  - { offset: 0x47F82, size: 0x8, addend: 0x0, symName: __ZN9gcrust_rt2gc6thread11ThreadState3new17h7360f0d5cc60925eE, symObjAddr: 0xE10, symBinAddr: 0x100018400, symSize: 0x2F4 }
  - { offset: 0x47FFA, size: 0x8, addend: 0x0, symName: __ZN9gcrust_rt2gc6thread11ThreadState6resume17h38de04d90a88a6d2E, symObjAddr: 0x1104, symBinAddr: 0x1000186F4, symSize: 0x15C }
  - { offset: 0x48064, size: 0x8, addend: 0x0, symName: __ZN9gcrust_rt2gc6thread11ThreadState9os_thread17h55f69e27ce5891a5E, symObjAddr: 0x1260, symBinAddr: 0x100018850, symSize: 0x18 }
  - { offset: 0x48093, size: 0x8, addend: 0x0, symName: __ZN9gcrust_rt2gc6thread12ScratchScope3get17h38d855220ca75a00E, symObjAddr: 0x1278, symBinAddr: 0x100018868, symSize: 0x2C }
  - { offset: 0x480C5, size: 0x8, addend: 0x0, symName: __ZN9gcrust_rt2gc6thread12ScratchScope4push17h309eb925a1a98e86E, symObjAddr: 0x12A4, symBinAddr: 0x100018894, symSize: 0x30 }
  - { offset: 0x4826A, size: 0x8, addend: 0x0, symName: '__ZN111_$LT$alloc..vec..Vec$LT$T$GT$$u20$as$u20$alloc..vec..spec_from_iter_nested..SpecFromIterNested$LT$T$C$I$GT$$GT$9from_iter17h0584a65250443e6eE', symObjAddr: 0x0, symBinAddr: 0x1000188C4, symSize: 0x134 }
  - { offset: 0x4C95C, size: 0x8, addend: 0x0, symName: '__ZN4core5slice4iter87_$LT$impl$u20$core..iter..traits..collect..IntoIterator$u20$for$u20$$RF$$u5b$T$u5d$$GT$9into_iter17h750a764f05cd698aE', symObjAddr: 0x1828, symBinAddr: 0x10001A0EC, symSize: 0x58 }
  - { offset: 0x4CF92, size: 0x8, addend: 0x0, symName: '__ZN4core5slice29_$LT$impl$u20$$u5b$T$u5d$$GT$3get17hd2d9f6bb9245bceaE', symObjAddr: 0x17BC, symBinAddr: 0x10001A080, symSize: 0x44 }
  - { offset: 0x4CFE1, size: 0x8, addend: 0x0, symName: '__ZN4core5slice29_$LT$impl$u20$$u5b$T$u5d$$GT$4iter17h72a5165ac2bc3469E', symObjAddr: 0x1800, symBinAddr: 0x10001A0C4, symSize: 0x28 }
  - { offset: 0x4DE7E, size: 0x8, addend: 0x0, symName: '__ZN74_$LT$T$u20$as$u20$core..iter..adapters..flatten..ConstSizeIntoIterator$GT$4size17h9a919f8826344dddE', symObjAddr: 0x7A94, symBinAddr: 0x100020358, symSize: 0x18 }
  - { offset: 0x5067B, size: 0x8, addend: 0x0, symName: '__ZN111_$LT$alloc..vec..Vec$LT$T$GT$$u20$as$u20$alloc..vec..spec_from_iter_nested..SpecFromIterNested$LT$T$C$I$GT$$GT$9from_iter17h0584a65250443e6eE', symObjAddr: 0x0, symBinAddr: 0x1000188C4, symSize: 0x134 }
  - { offset: 0x5073D, size: 0x8, addend: 0x0, symName: '__ZN111_$LT$alloc..vec..Vec$LT$T$GT$$u20$as$u20$alloc..vec..spec_from_iter_nested..SpecFromIterNested$LT$T$C$I$GT$$GT$9from_iter17h2cfeceb66b5d6dc2E', symObjAddr: 0x568, symBinAddr: 0x100018E2C, symSize: 0x130 }
  - { offset: 0x507FF, size: 0x8, addend: 0x0, symName: '__ZN111_$LT$alloc..vec..Vec$LT$T$GT$$u20$as$u20$alloc..vec..spec_from_iter_nested..SpecFromIterNested$LT$T$C$I$GT$$GT$9from_iter17h2dd15cab10d553ceE', symObjAddr: 0x698, symBinAddr: 0x100018F5C, symSize: 0x134 }
  - { offset: 0x508C1, size: 0x8, addend: 0x0, symName: '__ZN111_$LT$alloc..vec..Vec$LT$T$GT$$u20$as$u20$alloc..vec..spec_from_iter_nested..SpecFromIterNested$LT$T$C$I$GT$$GT$9from_iter17h325468864f4793d2E', symObjAddr: 0x7CC, symBinAddr: 0x100019090, symSize: 0x130 }
  - { offset: 0x50982, size: 0x8, addend: 0x0, symName: '__ZN111_$LT$alloc..vec..Vec$LT$T$GT$$u20$as$u20$alloc..vec..spec_from_iter_nested..SpecFromIterNested$LT$T$C$I$GT$$GT$9from_iter17h4cffcd05c9af8456E', symObjAddr: 0x8FC, symBinAddr: 0x1000191C0, symSize: 0x134 }
  - { offset: 0x50A44, size: 0x8, addend: 0x0, symName: '__ZN111_$LT$alloc..vec..Vec$LT$T$GT$$u20$as$u20$alloc..vec..spec_from_iter_nested..SpecFromIterNested$LT$T$C$I$GT$$GT$9from_iter17h80d1e22ceef017efE', symObjAddr: 0x1118, symBinAddr: 0x1000199DC, symSize: 0x12C }
  - { offset: 0x50B05, size: 0x8, addend: 0x0, symName: '__ZN111_$LT$alloc..vec..Vec$LT$T$GT$$u20$as$u20$alloc..vec..spec_from_iter_nested..SpecFromIterNested$LT$T$C$I$GT$$GT$9from_iter17hac23217e2241b19aE', symObjAddr: 0x1244, symBinAddr: 0x100019B08, symSize: 0x12C }
  - { offset: 0x50BC6, size: 0x8, addend: 0x0, symName: '__ZN111_$LT$alloc..vec..Vec$LT$T$GT$$u20$as$u20$alloc..vec..spec_from_iter_nested..SpecFromIterNested$LT$T$C$I$GT$$GT$9from_iter17hd18552ff22aff0c1E', symObjAddr: 0x1370, symBinAddr: 0x100019C34, symSize: 0x130 }
  - { offset: 0x50C87, size: 0x8, addend: 0x0, symName: '__ZN111_$LT$alloc..vec..Vec$LT$T$GT$$u20$as$u20$alloc..vec..spec_from_iter_nested..SpecFromIterNested$LT$T$C$I$GT$$GT$9from_iter17hd8a727a8f64454c4E', symObjAddr: 0x14A0, symBinAddr: 0x100019D64, symSize: 0x134 }
  - { offset: 0x50D49, size: 0x8, addend: 0x0, symName: '__ZN111_$LT$alloc..vec..Vec$LT$T$GT$$u20$as$u20$alloc..vec..spec_from_iter_nested..SpecFromIterNested$LT$T$C$I$GT$$GT$9from_iter17he08772894bfd9b44E', symObjAddr: 0x15D4, symBinAddr: 0x100019E98, symSize: 0x134 }
  - { offset: 0x50E11, size: 0x8, addend: 0x0, symName: '__ZN111_$LT$alloc..vec..Vec$LT$T$GT$$u20$as$u20$alloc..vec..spec_from_iter_nested..SpecFromIterNested$LT$T$C$I$GT$$GT$9from_iter17h13488b687a315d2cE', symObjAddr: 0x134, symBinAddr: 0x1000189F8, symSize: 0x218 }
  - { offset: 0x51070, size: 0x8, addend: 0x0, symName: '__ZN111_$LT$alloc..vec..Vec$LT$T$GT$$u20$as$u20$alloc..vec..spec_from_iter_nested..SpecFromIterNested$LT$T$C$I$GT$$GT$9from_iter17h218486ed829cf6d2E', symObjAddr: 0x34C, symBinAddr: 0x100018C10, symSize: 0x21C }
  - { offset: 0x512CF, size: 0x8, addend: 0x0, symName: '__ZN111_$LT$alloc..vec..Vec$LT$T$GT$$u20$as$u20$alloc..vec..spec_from_iter_nested..SpecFromIterNested$LT$T$C$I$GT$$GT$9from_iter17h59c5dd8610601b44E', symObjAddr: 0xA30, symBinAddr: 0x1000192F4, symSize: 0x264 }
  - { offset: 0x5152D, size: 0x8, addend: 0x0, symName: '__ZN111_$LT$alloc..vec..Vec$LT$T$GT$$u20$as$u20$alloc..vec..spec_from_iter_nested..SpecFromIterNested$LT$T$C$I$GT$$GT$9from_iter17h75fcd5ab944e3028E', symObjAddr: 0xC94, symBinAddr: 0x100019558, symSize: 0x238 }
  - { offset: 0x5178C, size: 0x8, addend: 0x0, symName: '__ZN111_$LT$alloc..vec..Vec$LT$T$GT$$u20$as$u20$alloc..vec..spec_from_iter_nested..SpecFromIterNested$LT$T$C$I$GT$$GT$9from_iter17h7d89f236c8db72ceE', symObjAddr: 0xECC, symBinAddr: 0x100019790, symSize: 0x24C }
  - { offset: 0x53373, size: 0x8, addend: 0x0, symName: '__ZN132_$LT$alloc..vec..Vec$LT$T$C$A$GT$$u20$as$u20$alloc..vec..spec_extend..SpecExtend$LT$$RF$T$C$core..slice..iter..Iter$LT$T$GT$$GT$$GT$11spec_extend17hd047b7bbaa45be60E', symObjAddr: 0x1708, symBinAddr: 0x100019FCC, symSize: 0xB4 }
  - { offset: 0x5351C, size: 0x8, addend: 0x0, symName: '__ZN97_$LT$alloc..vec..Vec$LT$T$C$A$GT$$u20$as$u20$alloc..vec..spec_extend..SpecExtend$LT$T$C$I$GT$$GT$11spec_extend17h060d50960a463563E', symObjAddr: 0x8910, symBinAddr: 0x1000211D4, symSize: 0x34 }
  - { offset: 0x5356D, size: 0x8, addend: 0x0, symName: '__ZN97_$LT$alloc..vec..Vec$LT$T$C$A$GT$$u20$as$u20$alloc..vec..spec_extend..SpecExtend$LT$T$C$I$GT$$GT$11spec_extend17h6dfad068cf258446E', symObjAddr: 0x8978, symBinAddr: 0x10002123C, symSize: 0x24 }
  - { offset: 0x535BF, size: 0x8, addend: 0x0, symName: '__ZN97_$LT$alloc..vec..Vec$LT$T$C$A$GT$$u20$as$u20$alloc..vec..spec_extend..SpecExtend$LT$T$C$I$GT$$GT$11spec_extend17h834def55738d654eE', symObjAddr: 0x89D0, symBinAddr: 0x100021294, symSize: 0x24 }
  - { offset: 0x53611, size: 0x8, addend: 0x0, symName: '__ZN97_$LT$alloc..vec..Vec$LT$T$C$A$GT$$u20$as$u20$alloc..vec..spec_extend..SpecExtend$LT$T$C$I$GT$$GT$11spec_extend17hb113795552fa0ab1E', symObjAddr: 0x8A18, symBinAddr: 0x1000212DC, symSize: 0x24 }
  - { offset: 0x53663, size: 0x8, addend: 0x0, symName: '__ZN97_$LT$alloc..vec..Vec$LT$T$C$A$GT$$u20$as$u20$alloc..vec..spec_extend..SpecExtend$LT$T$C$I$GT$$GT$11spec_extend17hfcb8bf0e2c9978a6E', symObjAddr: 0x8B8C, symBinAddr: 0x100021450, symSize: 0x24 }
  - { offset: 0x536BB, size: 0x8, addend: 0x0, symName: '__ZN97_$LT$alloc..vec..Vec$LT$T$C$A$GT$$u20$as$u20$alloc..vec..spec_extend..SpecExtend$LT$T$C$I$GT$$GT$11spec_extend17h6b81f4bfbe1be09fE', symObjAddr: 0x8944, symBinAddr: 0x100021208, symSize: 0x34 }
  - { offset: 0x5370C, size: 0x8, addend: 0x0, symName: '__ZN97_$LT$alloc..vec..Vec$LT$T$C$A$GT$$u20$as$u20$alloc..vec..spec_extend..SpecExtend$LT$T$C$I$GT$$GT$11spec_extend17h7926fb9f0202ad44E', symObjAddr: 0x899C, symBinAddr: 0x100021260, symSize: 0x34 }
  - { offset: 0x5375D, size: 0x8, addend: 0x0, symName: '__ZN97_$LT$alloc..vec..Vec$LT$T$C$A$GT$$u20$as$u20$alloc..vec..spec_extend..SpecExtend$LT$T$C$I$GT$$GT$11spec_extend17h9cee0aa33092c0d7E', symObjAddr: 0x89F4, symBinAddr: 0x1000212B8, symSize: 0x24 }
  - { offset: 0x537AF, size: 0x8, addend: 0x0, symName: '__ZN97_$LT$alloc..vec..Vec$LT$T$C$A$GT$$u20$as$u20$alloc..vec..spec_extend..SpecExtend$LT$T$C$I$GT$$GT$11spec_extend17hb5f3f89fdac79195E', symObjAddr: 0x8A3C, symBinAddr: 0x100021300, symSize: 0x34 }
  - { offset: 0x53800, size: 0x8, addend: 0x0, symName: '__ZN97_$LT$alloc..vec..Vec$LT$T$C$A$GT$$u20$as$u20$alloc..vec..spec_extend..SpecExtend$LT$T$C$I$GT$$GT$11spec_extend17hbffd23356ad5df6dE', symObjAddr: 0x8A70, symBinAddr: 0x100021334, symSize: 0x24 }
  - { offset: 0x53852, size: 0x8, addend: 0x0, symName: '__ZN97_$LT$alloc..vec..Vec$LT$T$C$A$GT$$u20$as$u20$alloc..vec..spec_extend..SpecExtend$LT$T$C$I$GT$$GT$11spec_extend17hc61403098f391349E', symObjAddr: 0x8A94, symBinAddr: 0x100021358, symSize: 0x24 }
  - { offset: 0x538A4, size: 0x8, addend: 0x0, symName: '__ZN97_$LT$alloc..vec..Vec$LT$T$C$A$GT$$u20$as$u20$alloc..vec..spec_extend..SpecExtend$LT$T$C$I$GT$$GT$11spec_extend17hd068936ddf6f44c6E', symObjAddr: 0x8AB8, symBinAddr: 0x10002137C, symSize: 0x24 }
  - { offset: 0x538F6, size: 0x8, addend: 0x0, symName: '__ZN97_$LT$alloc..vec..Vec$LT$T$C$A$GT$$u20$as$u20$alloc..vec..spec_extend..SpecExtend$LT$T$C$I$GT$$GT$11spec_extend17hdd00cdd5e15d2d96E', symObjAddr: 0x8ADC, symBinAddr: 0x1000213A0, symSize: 0x34 }
  - { offset: 0x53947, size: 0x8, addend: 0x0, symName: '__ZN97_$LT$alloc..vec..Vec$LT$T$C$A$GT$$u20$as$u20$alloc..vec..spec_extend..SpecExtend$LT$T$C$I$GT$$GT$11spec_extend17heee1938b2f7af1eaE', symObjAddr: 0x8B10, symBinAddr: 0x1000213D4, symSize: 0x34 }
  - { offset: 0x53998, size: 0x8, addend: 0x0, symName: '__ZN97_$LT$alloc..vec..Vec$LT$T$C$A$GT$$u20$as$u20$alloc..vec..spec_extend..SpecExtend$LT$T$C$I$GT$$GT$11spec_extend17hf8549f2201f18502E', symObjAddr: 0x8B44, symBinAddr: 0x100021408, symSize: 0x24 }
  - { offset: 0x539EA, size: 0x8, addend: 0x0, symName: '__ZN97_$LT$alloc..vec..Vec$LT$T$C$A$GT$$u20$as$u20$alloc..vec..spec_extend..SpecExtend$LT$T$C$I$GT$$GT$11spec_extend17hf8587997d73aa0deE', symObjAddr: 0x8B68, symBinAddr: 0x10002142C, symSize: 0x24 }
  - { offset: 0x53BC3, size: 0x8, addend: 0x0, symName: '__ZN72_$LT$alloc..vec..Vec$LT$T$C$A$GT$$u20$as$u20$core..ops..deref..Deref$GT$5deref17h018f226b3377e909E', symObjAddr: 0x77D4, symBinAddr: 0x100020098, symSize: 0x20 }
  - { offset: 0x53C80, size: 0x8, addend: 0x0, symName: '__ZN72_$LT$alloc..vec..Vec$LT$T$C$A$GT$$u20$as$u20$core..ops..deref..Deref$GT$5deref17h06001d2ffb463893E', symObjAddr: 0x77F4, symBinAddr: 0x1000200B8, symSize: 0x20 }
  - { offset: 0x53D3D, size: 0x8, addend: 0x0, symName: '__ZN72_$LT$alloc..vec..Vec$LT$T$C$A$GT$$u20$as$u20$core..ops..deref..Deref$GT$5deref17h150a1f5061e35f09E', symObjAddr: 0x7814, symBinAddr: 0x1000200D8, symSize: 0x20 }
  - { offset: 0x53DFA, size: 0x8, addend: 0x0, symName: '__ZN72_$LT$alloc..vec..Vec$LT$T$C$A$GT$$u20$as$u20$core..ops..deref..Deref$GT$5deref17h34a44ac9b66988b2E', symObjAddr: 0x7834, symBinAddr: 0x1000200F8, symSize: 0x20 }
  - { offset: 0x53EB7, size: 0x8, addend: 0x0, symName: '__ZN72_$LT$alloc..vec..Vec$LT$T$C$A$GT$$u20$as$u20$core..ops..deref..Deref$GT$5deref17h540c840ca666cc88E', symObjAddr: 0x7854, symBinAddr: 0x100020118, symSize: 0x20 }
  - { offset: 0x53F74, size: 0x8, addend: 0x0, symName: '__ZN72_$LT$alloc..vec..Vec$LT$T$C$A$GT$$u20$as$u20$core..ops..deref..Deref$GT$5deref17h6a9bf92c9c57070aE', symObjAddr: 0x7874, symBinAddr: 0x100020138, symSize: 0x20 }
  - { offset: 0x54031, size: 0x8, addend: 0x0, symName: '__ZN72_$LT$alloc..vec..Vec$LT$T$C$A$GT$$u20$as$u20$core..ops..deref..Deref$GT$5deref17h6ded7da91d7aa820E', symObjAddr: 0x7894, symBinAddr: 0x100020158, symSize: 0x20 }
  - { offset: 0x540EE, size: 0x8, addend: 0x0, symName: '__ZN72_$LT$alloc..vec..Vec$LT$T$C$A$GT$$u20$as$u20$core..ops..deref..Deref$GT$5deref17h70b25f0d6d287664E', symObjAddr: 0x78B4, symBinAddr: 0x100020178, symSize: 0x20 }
  - { offset: 0x541AB, size: 0x8, addend: 0x0, symName: '__ZN72_$LT$alloc..vec..Vec$LT$T$C$A$GT$$u20$as$u20$core..ops..deref..Deref$GT$5deref17h7d7c5e12a37cc5e0E', symObjAddr: 0x78D4, symBinAddr: 0x100020198, symSize: 0x20 }
  - { offset: 0x54268, size: 0x8, addend: 0x0, symName: '__ZN72_$LT$alloc..vec..Vec$LT$T$C$A$GT$$u20$as$u20$core..ops..deref..Deref$GT$5deref17h8288869daea0e51fE', symObjAddr: 0x78F4, symBinAddr: 0x1000201B8, symSize: 0x20 }
  - { offset: 0x54325, size: 0x8, addend: 0x0, symName: '__ZN72_$LT$alloc..vec..Vec$LT$T$C$A$GT$$u20$as$u20$core..ops..deref..Deref$GT$5deref17ha01fbbe707bbfeeaE', symObjAddr: 0x7914, symBinAddr: 0x1000201D8, symSize: 0x20 }
  - { offset: 0x543E2, size: 0x8, addend: 0x0, symName: '__ZN72_$LT$alloc..vec..Vec$LT$T$C$A$GT$$u20$as$u20$core..ops..deref..Deref$GT$5deref17ha7f41446590293a0E', symObjAddr: 0x7934, symBinAddr: 0x1000201F8, symSize: 0x20 }
  - { offset: 0x5449F, size: 0x8, addend: 0x0, symName: '__ZN72_$LT$alloc..vec..Vec$LT$T$C$A$GT$$u20$as$u20$core..ops..deref..Deref$GT$5deref17hb7b8bbfb3146a9f9E', symObjAddr: 0x7954, symBinAddr: 0x100020218, symSize: 0x20 }
  - { offset: 0x5455C, size: 0x8, addend: 0x0, symName: '__ZN72_$LT$alloc..vec..Vec$LT$T$C$A$GT$$u20$as$u20$core..ops..deref..Deref$GT$5deref17hb83abb6e14b558c4E', symObjAddr: 0x7974, symBinAddr: 0x100020238, symSize: 0x20 }
  - { offset: 0x54619, size: 0x8, addend: 0x0, symName: '__ZN72_$LT$alloc..vec..Vec$LT$T$C$A$GT$$u20$as$u20$core..ops..deref..Deref$GT$5deref17hc635fe4ebfd3c727E', symObjAddr: 0x7994, symBinAddr: 0x100020258, symSize: 0x20 }
  - { offset: 0x546D6, size: 0x8, addend: 0x0, symName: '__ZN72_$LT$alloc..vec..Vec$LT$T$C$A$GT$$u20$as$u20$core..ops..deref..Deref$GT$5deref17hcf4c4307f5e82b90E', symObjAddr: 0x79B4, symBinAddr: 0x100020278, symSize: 0x20 }
  - { offset: 0x54793, size: 0x8, addend: 0x0, symName: '__ZN72_$LT$alloc..vec..Vec$LT$T$C$A$GT$$u20$as$u20$core..ops..deref..Deref$GT$5deref17hd8ae6753ea67d2f8E', symObjAddr: 0x79D4, symBinAddr: 0x100020298, symSize: 0x20 }
  - { offset: 0x54850, size: 0x8, addend: 0x0, symName: '__ZN72_$LT$alloc..vec..Vec$LT$T$C$A$GT$$u20$as$u20$core..ops..deref..Deref$GT$5deref17he8cfce9a581ea1aaE', symObjAddr: 0x79F4, symBinAddr: 0x1000202B8, symSize: 0x20 }
  - { offset: 0x5490D, size: 0x8, addend: 0x0, symName: '__ZN72_$LT$alloc..vec..Vec$LT$T$C$A$GT$$u20$as$u20$core..ops..deref..Deref$GT$5deref17hf5b76225298f1c68E', symObjAddr: 0x7A14, symBinAddr: 0x1000202D8, symSize: 0x20 }
  - { offset: 0x549CA, size: 0x8, addend: 0x0, symName: '__ZN72_$LT$alloc..vec..Vec$LT$T$C$A$GT$$u20$as$u20$core..ops..deref..Deref$GT$5deref17hf9e2bfd2acb7072eE', symObjAddr: 0x7A34, symBinAddr: 0x1000202F8, symSize: 0x20 }
  - { offset: 0x54A87, size: 0x8, addend: 0x0, symName: '__ZN72_$LT$alloc..vec..Vec$LT$T$C$A$GT$$u20$as$u20$core..ops..deref..Deref$GT$5deref17hfb25aadf99047cdbE', symObjAddr: 0x7A54, symBinAddr: 0x100020318, symSize: 0x20 }
  - { offset: 0x54B44, size: 0x8, addend: 0x0, symName: '__ZN72_$LT$alloc..vec..Vec$LT$T$C$A$GT$$u20$as$u20$core..ops..deref..Deref$GT$5deref17hfcc48b0da1af3ca7E', symObjAddr: 0x7A74, symBinAddr: 0x100020338, symSize: 0x20 }
  - { offset: 0x54FDD, size: 0x8, addend: 0x0, symName: '__ZN81_$LT$alloc..vec..Vec$LT$T$C$A$GT$$u20$as$u20$core..ops..index..Index$LT$I$GT$$GT$5index17h00fc3587ef3c8f18E', symObjAddr: 0x7B8C, symBinAddr: 0x100020450, symSize: 0x44 }
  - { offset: 0x550F6, size: 0x8, addend: 0x0, symName: '__ZN81_$LT$alloc..vec..Vec$LT$T$C$A$GT$$u20$as$u20$core..ops..index..Index$LT$I$GT$$GT$5index17h0141c5e8ed4965f1E', symObjAddr: 0x7BD0, symBinAddr: 0x100020494, symSize: 0x44 }
  - { offset: 0x5520F, size: 0x8, addend: 0x0, symName: '__ZN81_$LT$alloc..vec..Vec$LT$T$C$A$GT$$u20$as$u20$core..ops..index..Index$LT$I$GT$$GT$5index17h11b1140a2152d0b6E', symObjAddr: 0x7C14, symBinAddr: 0x1000204D8, symSize: 0x44 }
  - { offset: 0x55328, size: 0x8, addend: 0x0, symName: '__ZN81_$LT$alloc..vec..Vec$LT$T$C$A$GT$$u20$as$u20$core..ops..index..Index$LT$I$GT$$GT$5index17h2047a637cdd42a2dE', symObjAddr: 0x7C58, symBinAddr: 0x10002051C, symSize: 0x44 }
  - { offset: 0x55441, size: 0x8, addend: 0x0, symName: '__ZN81_$LT$alloc..vec..Vec$LT$T$C$A$GT$$u20$as$u20$core..ops..index..Index$LT$I$GT$$GT$5index17h39212575d38109abE', symObjAddr: 0x7C9C, symBinAddr: 0x100020560, symSize: 0x44 }
  - { offset: 0x5555A, size: 0x8, addend: 0x0, symName: '__ZN81_$LT$alloc..vec..Vec$LT$T$C$A$GT$$u20$as$u20$core..ops..index..Index$LT$I$GT$$GT$5index17h3ca59a63b1eee8f0E', symObjAddr: 0x7CE0, symBinAddr: 0x1000205A4, symSize: 0x44 }
  - { offset: 0x55673, size: 0x8, addend: 0x0, symName: '__ZN81_$LT$alloc..vec..Vec$LT$T$C$A$GT$$u20$as$u20$core..ops..index..Index$LT$I$GT$$GT$5index17h428eaa7af8f02d6eE', symObjAddr: 0x7D24, symBinAddr: 0x1000205E8, symSize: 0x44 }
  - { offset: 0x5578C, size: 0x8, addend: 0x0, symName: '__ZN81_$LT$alloc..vec..Vec$LT$T$C$A$GT$$u20$as$u20$core..ops..index..Index$LT$I$GT$$GT$5index17h42a8affb021ceab5E', symObjAddr: 0x7D68, symBinAddr: 0x10002062C, symSize: 0x44 }
  - { offset: 0x558A5, size: 0x8, addend: 0x0, symName: '__ZN81_$LT$alloc..vec..Vec$LT$T$C$A$GT$$u20$as$u20$core..ops..index..Index$LT$I$GT$$GT$5index17hb25d1679b47515bcE', symObjAddr: 0x7DAC, symBinAddr: 0x100020670, symSize: 0x44 }
  - { offset: 0x559BE, size: 0x8, addend: 0x0, symName: '__ZN81_$LT$alloc..vec..Vec$LT$T$C$A$GT$$u20$as$u20$core..ops..index..Index$LT$I$GT$$GT$5index17hd0dc06db65fe77e9E', symObjAddr: 0x7DF0, symBinAddr: 0x1000206B4, symSize: 0x44 }
  - { offset: 0x55AE2, size: 0x8, addend: 0x0, symName: '__ZN5alloc3vec10partial_eq117_$LT$impl$u20$core..cmp..PartialEq$LT$alloc..vec..Vec$LT$U$C$A2$GT$$GT$$u20$for$u20$alloc..vec..Vec$LT$T$C$A1$GT$$GT$2eq17hb34e8bce2b77cd6dE', symObjAddr: 0x1880, symBinAddr: 0x10001A144, symSize: 0x8C }
  - { offset: 0x575B1, size: 0x8, addend: 0x0, symName: '__ZN5alloc3vec16Vec$LT$T$C$A$GT$14extend_trusted28_$u7b$$u7b$closure$u7d$$u7d$17h13dbb4ee666164d5E', symObjAddr: 0x34D4, symBinAddr: 0x10001BD98, symSize: 0x30 }
  - { offset: 0x57659, size: 0x8, addend: 0x0, symName: '__ZN5alloc3vec16Vec$LT$T$C$A$GT$14extend_trusted28_$u7b$$u7b$closure$u7d$$u7d$17h1dcd16c149a4bf2dE', symObjAddr: 0x3504, symBinAddr: 0x10001BDC8, symSize: 0x3C }
  - { offset: 0x57716, size: 0x8, addend: 0x0, symName: '__ZN5alloc3vec16Vec$LT$T$C$A$GT$14extend_trusted28_$u7b$$u7b$closure$u7d$$u7d$17h46bd2cae95bb28fbE', symObjAddr: 0x3540, symBinAddr: 0x10001BE04, symSize: 0x3C }
  - { offset: 0x577CB, size: 0x8, addend: 0x0, symName: '__ZN5alloc3vec16Vec$LT$T$C$A$GT$14extend_trusted28_$u7b$$u7b$closure$u7d$$u7d$17h5621001f7f8c37ffE', symObjAddr: 0x357C, symBinAddr: 0x10001BE40, symSize: 0x3C }
  - { offset: 0x57880, size: 0x8, addend: 0x0, symName: '__ZN5alloc3vec16Vec$LT$T$C$A$GT$14extend_trusted28_$u7b$$u7b$closure$u7d$$u7d$17h6b38a01b7f4e4eb5E', symObjAddr: 0x35B8, symBinAddr: 0x10001BE7C, symSize: 0x30 }
  - { offset: 0x57928, size: 0x8, addend: 0x0, symName: '__ZN5alloc3vec16Vec$LT$T$C$A$GT$14extend_trusted28_$u7b$$u7b$closure$u7d$$u7d$17h942be474091bbfe4E', symObjAddr: 0x35E8, symBinAddr: 0x10001BEAC, symSize: 0x30 }
  - { offset: 0x579D0, size: 0x8, addend: 0x0, symName: '__ZN5alloc3vec16Vec$LT$T$C$A$GT$14extend_trusted28_$u7b$$u7b$closure$u7d$$u7d$17ha943a1a8a1a45f94E', symObjAddr: 0x3618, symBinAddr: 0x10001BEDC, symSize: 0x54 }
  - { offset: 0x57A8E, size: 0x8, addend: 0x0, symName: '__ZN5alloc3vec16Vec$LT$T$C$A$GT$14extend_trusted28_$u7b$$u7b$closure$u7d$$u7d$17hcae04dd30d92b610E', symObjAddr: 0x366C, symBinAddr: 0x10001BF30, symSize: 0x34 }
  - { offset: 0x57B36, size: 0x8, addend: 0x0, symName: '__ZN5alloc3vec16Vec$LT$T$C$A$GT$14extend_trusted28_$u7b$$u7b$closure$u7d$$u7d$17hcce6a2e2ecfa54e2E', symObjAddr: 0x36A0, symBinAddr: 0x10001BF64, symSize: 0x44 }
  - { offset: 0x57BE3, size: 0x8, addend: 0x0, symName: '__ZN5alloc3vec16Vec$LT$T$C$A$GT$14extend_trusted28_$u7b$$u7b$closure$u7d$$u7d$17hdb0eeab72956d113E', symObjAddr: 0x36E4, symBinAddr: 0x10001BFA8, symSize: 0x3C }
  - { offset: 0x57CA0, size: 0x8, addend: 0x0, symName: '__ZN5alloc3vec16Vec$LT$T$C$A$GT$14extend_trusted28_$u7b$$u7b$closure$u7d$$u7d$17head3d2aef3164e91E', symObjAddr: 0x3720, symBinAddr: 0x10001BFE4, symSize: 0x44 }
  - { offset: 0x57EEB, size: 0x8, addend: 0x0, symName: '__ZN5alloc3vec16Vec$LT$T$C$A$GT$5dedup28_$u7b$$u7b$closure$u7d$$u7d$17h15be8a3ef6d41ce9E', symObjAddr: 0x4A0C, symBinAddr: 0x10001D2D0, symSize: 0x3C }
  - { offset: 0x57F6D, size: 0x8, addend: 0x0, symName: '__ZN5alloc3vec16in_place_collect108_$LT$impl$u20$alloc..vec..spec_from_iter..SpecFromIter$LT$T$C$I$GT$$u20$for$u20$alloc..vec..Vec$LT$T$GT$$GT$9from_iter17h5014e96e8204465fE', symObjAddr: 0x6E64, symBinAddr: 0x10001F728, symSize: 0x28 }
  - { offset: 0x57FCB, size: 0x8, addend: 0x0, symName: __ZN5alloc3vec9from_elem17h12d7483b8ebc3ca0E, symObjAddr: 0x6E8C, symBinAddr: 0x10001F750, symSize: 0x24 }
  - { offset: 0x58011, size: 0x8, addend: 0x0, symName: __ZN5alloc3vec9from_elem17h5a5805bfc9ccb74cE, symObjAddr: 0x6EB0, symBinAddr: 0x10001F774, symSize: 0x24 }
  - { offset: 0x58057, size: 0x8, addend: 0x0, symName: __ZN5alloc3vec9from_elem17hac21c21705ab9f30E, symObjAddr: 0x6ED4, symBinAddr: 0x10001F798, symSize: 0x20 }
  - { offset: 0x5809E, size: 0x8, addend: 0x0, symName: __ZN5alloc3vec9from_elem17hd83bf7f6e2c26cddE, symObjAddr: 0x6EF4, symBinAddr: 0x10001F7B8, symSize: 0x24 }
  - { offset: 0x580E4, size: 0x8, addend: 0x0, symName: __ZN5alloc3vec9from_elem17hece57523ffcf2055E, symObjAddr: 0x6F18, symBinAddr: 0x10001F7DC, symSize: 0x24 }
  - { offset: 0x58134, size: 0x8, addend: 0x0, symName: '__ZN62_$LT$T$u20$as$u20$alloc..vec..spec_from_elem..SpecFromElem$GT$9from_elem17h99b29c7d6b3e870aE', symObjAddr: 0x7470, symBinAddr: 0x10001FD34, symSize: 0xF8 }
  - { offset: 0x581EE, size: 0x8, addend: 0x0, symName: '__ZN63_$LT$alloc..vec..Vec$LT$T$C$A$GT$$u20$as$u20$core..cmp..Ord$GT$3cmp17h21947943b847efb1E', symObjAddr: 0x7568, symBinAddr: 0x10001FE2C, symSize: 0x54 }
  - { offset: 0x583A4, size: 0x8, addend: 0x0, symName: '__ZN67_$LT$alloc..vec..Vec$LT$T$C$A$GT$$u20$as$u20$core..clone..Clone$GT$5clone17h1a518ef515f43d13E', symObjAddr: 0x75BC, symBinAddr: 0x10001FE80, symSize: 0x4C }
  - { offset: 0x5850C, size: 0x8, addend: 0x0, symName: '__ZN67_$LT$alloc..vec..Vec$LT$T$C$A$GT$$u20$as$u20$core..clone..Clone$GT$5clone17h31323956464c13a0E', symObjAddr: 0x7608, symBinAddr: 0x10001FECC, symSize: 0x4C }
  - { offset: 0x58674, size: 0x8, addend: 0x0, symName: '__ZN67_$LT$alloc..vec..Vec$LT$T$C$A$GT$$u20$as$u20$core..clone..Clone$GT$5clone17h5c8324bdab3d5739E', symObjAddr: 0x7654, symBinAddr: 0x10001FF18, symSize: 0x4C }
  - { offset: 0x587DC, size: 0x8, addend: 0x0, symName: '__ZN67_$LT$alloc..vec..Vec$LT$T$C$A$GT$$u20$as$u20$core..clone..Clone$GT$5clone17h8a7cb78e67901413E', symObjAddr: 0x76A0, symBinAddr: 0x10001FF64, symSize: 0x4C }
  - { offset: 0x58944, size: 0x8, addend: 0x0, symName: '__ZN67_$LT$alloc..vec..Vec$LT$T$C$A$GT$$u20$as$u20$core..clone..Clone$GT$5clone17h9bc1589b0d3af31dE', symObjAddr: 0x76EC, symBinAddr: 0x10001FFB0, symSize: 0x4C }
  - { offset: 0x58AAC, size: 0x8, addend: 0x0, symName: '__ZN67_$LT$alloc..vec..Vec$LT$T$C$A$GT$$u20$as$u20$core..clone..Clone$GT$5clone17hd886a665e26fbe74E', symObjAddr: 0x7738, symBinAddr: 0x10001FFFC, symSize: 0x4C }
  - { offset: 0x58C1A, size: 0x8, addend: 0x0, symName: '__ZN67_$LT$alloc..vec..Vec$LT$T$GT$$u20$as$u20$core..default..Default$GT$7default17h0b6ac499f470152aE', symObjAddr: 0x7784, symBinAddr: 0x100020048, symSize: 0x14 }
  - { offset: 0x58C3C, size: 0x8, addend: 0x0, symName: '__ZN67_$LT$alloc..vec..Vec$LT$T$GT$$u20$as$u20$core..default..Default$GT$7default17h0b6ac499f470152aE', symObjAddr: 0x7784, symBinAddr: 0x100020048, symSize: 0x14 }
  - { offset: 0x58C57, size: 0x8, addend: 0x0, symName: '__ZN67_$LT$alloc..vec..Vec$LT$T$GT$$u20$as$u20$core..default..Default$GT$7default17h87d50c8bc21bbc8aE', symObjAddr: 0x7798, symBinAddr: 0x10002005C, symSize: 0x14 }
  - { offset: 0x58C79, size: 0x8, addend: 0x0, symName: '__ZN67_$LT$alloc..vec..Vec$LT$T$GT$$u20$as$u20$core..default..Default$GT$7default17h87d50c8bc21bbc8aE', symObjAddr: 0x7798, symBinAddr: 0x10002005C, symSize: 0x14 }
  - { offset: 0x58C94, size: 0x8, addend: 0x0, symName: '__ZN67_$LT$alloc..vec..Vec$LT$T$GT$$u20$as$u20$core..default..Default$GT$7default17hc038dd03ea3f2c5dE', symObjAddr: 0x77AC, symBinAddr: 0x100020070, symSize: 0x14 }
  - { offset: 0x58CB6, size: 0x8, addend: 0x0, symName: '__ZN67_$LT$alloc..vec..Vec$LT$T$GT$$u20$as$u20$core..default..Default$GT$7default17hc038dd03ea3f2c5dE', symObjAddr: 0x77AC, symBinAddr: 0x100020070, symSize: 0x14 }
  - { offset: 0x58CD1, size: 0x8, addend: 0x0, symName: '__ZN67_$LT$alloc..vec..Vec$LT$T$GT$$u20$as$u20$core..default..Default$GT$7default17hd0b4af74b700473aE', symObjAddr: 0x77C0, symBinAddr: 0x100020084, symSize: 0x14 }
  - { offset: 0x58CF3, size: 0x8, addend: 0x0, symName: '__ZN67_$LT$alloc..vec..Vec$LT$T$GT$$u20$as$u20$core..default..Default$GT$7default17hd0b4af74b700473aE', symObjAddr: 0x77C0, symBinAddr: 0x100020084, symSize: 0x14 }
  - { offset: 0x58D14, size: 0x8, addend: 0x0, symName: '__ZN75_$LT$alloc..vec..Vec$LT$T$C$A$GT$$u20$as$u20$core..ops..deref..DerefMut$GT$9deref_mut17h0656518df0cd5986E', symObjAddr: 0x7AAC, symBinAddr: 0x100020370, symSize: 0x20 }
  - { offset: 0x58DD1, size: 0x8, addend: 0x0, symName: '__ZN75_$LT$alloc..vec..Vec$LT$T$C$A$GT$$u20$as$u20$core..ops..deref..DerefMut$GT$9deref_mut17h4214147bc7555deeE', symObjAddr: 0x7ACC, symBinAddr: 0x100020390, symSize: 0x20 }
  - { offset: 0x58E8E, size: 0x8, addend: 0x0, symName: '__ZN75_$LT$alloc..vec..Vec$LT$T$C$A$GT$$u20$as$u20$core..ops..deref..DerefMut$GT$9deref_mut17h6a84e415b95f7e69E', symObjAddr: 0x7AEC, symBinAddr: 0x1000203B0, symSize: 0x20 }
  - { offset: 0x58F4B, size: 0x8, addend: 0x0, symName: '__ZN75_$LT$alloc..vec..Vec$LT$T$C$A$GT$$u20$as$u20$core..ops..deref..DerefMut$GT$9deref_mut17h6f8d872945d72c75E', symObjAddr: 0x7B0C, symBinAddr: 0x1000203D0, symSize: 0x20 }
  - { offset: 0x59008, size: 0x8, addend: 0x0, symName: '__ZN75_$LT$alloc..vec..Vec$LT$T$C$A$GT$$u20$as$u20$core..ops..deref..DerefMut$GT$9deref_mut17h8dc15d213932e1fbE', symObjAddr: 0x7B2C, symBinAddr: 0x1000203F0, symSize: 0x20 }
  - { offset: 0x590C5, size: 0x8, addend: 0x0, symName: '__ZN75_$LT$alloc..vec..Vec$LT$T$C$A$GT$$u20$as$u20$core..ops..deref..DerefMut$GT$9deref_mut17h8e299f34e9138049E', symObjAddr: 0x7B4C, symBinAddr: 0x100020410, symSize: 0x20 }
  - { offset: 0x59182, size: 0x8, addend: 0x0, symName: '__ZN75_$LT$alloc..vec..Vec$LT$T$C$A$GT$$u20$as$u20$core..ops..deref..DerefMut$GT$9deref_mut17hbb1be60af99d5f15E', symObjAddr: 0x7B6C, symBinAddr: 0x100020430, symSize: 0x20 }
  - { offset: 0x59305, size: 0x8, addend: 0x0, symName: '__ZN84_$LT$alloc..vec..Vec$LT$T$C$A$GT$$u20$as$u20$core..ops..index..IndexMut$LT$I$GT$$GT$9index_mut17h0ec04077d3c8a040E', symObjAddr: 0x7E34, symBinAddr: 0x1000206F8, symSize: 0x44 }
  - { offset: 0x5941E, size: 0x8, addend: 0x0, symName: '__ZN84_$LT$alloc..vec..Vec$LT$T$C$A$GT$$u20$as$u20$core..ops..index..IndexMut$LT$I$GT$$GT$9index_mut17h2db859fc65502328E', symObjAddr: 0x7E78, symBinAddr: 0x10002073C, symSize: 0x44 }
  - { offset: 0x59537, size: 0x8, addend: 0x0, symName: '__ZN84_$LT$alloc..vec..Vec$LT$T$C$A$GT$$u20$as$u20$core..ops..index..IndexMut$LT$I$GT$$GT$9index_mut17h7117e3b2b5998506E', symObjAddr: 0x7EBC, symBinAddr: 0x100020780, symSize: 0x44 }
  - { offset: 0x59650, size: 0x8, addend: 0x0, symName: '__ZN84_$LT$alloc..vec..Vec$LT$T$C$A$GT$$u20$as$u20$core..ops..index..IndexMut$LT$I$GT$$GT$9index_mut17hb610cb5c87b064eeE', symObjAddr: 0x7F00, symBinAddr: 0x1000207C4, symSize: 0x44 }
  - { offset: 0x5976F, size: 0x8, addend: 0x0, symName: '__ZN90_$LT$alloc..vec..Vec$LT$T$C$A$GT$$u20$as$u20$core..iter..traits..collect..IntoIterator$GT$9into_iter17h0bb1ddfe8018d3a3E', symObjAddr: 0x7F44, symBinAddr: 0x100020808, symSize: 0xAC }
  - { offset: 0x59966, size: 0x8, addend: 0x0, symName: '__ZN90_$LT$alloc..vec..Vec$LT$T$C$A$GT$$u20$as$u20$core..iter..traits..collect..IntoIterator$GT$9into_iter17h6f6b070ec226c7cfE', symObjAddr: 0x7FF0, symBinAddr: 0x1000208B4, symSize: 0xA4 }
  - { offset: 0x59B5D, size: 0x8, addend: 0x0, symName: '__ZN90_$LT$alloc..vec..Vec$LT$T$C$A$GT$$u20$as$u20$core..iter..traits..collect..IntoIterator$GT$9into_iter17h79c85021a24cc819E', symObjAddr: 0x8094, symBinAddr: 0x100020958, symSize: 0xAC }
  - { offset: 0x59D54, size: 0x8, addend: 0x0, symName: '__ZN90_$LT$alloc..vec..Vec$LT$T$C$A$GT$$u20$as$u20$core..iter..traits..collect..IntoIterator$GT$9into_iter17h96a4e7a64a5734a7E', symObjAddr: 0x8140, symBinAddr: 0x100020A04, symSize: 0xA4 }
  - { offset: 0x59F51, size: 0x8, addend: 0x0, symName: '__ZN93_$LT$alloc..vec..Vec$LT$T$C$A$GT$$u20$as$u20$core..iter..traits..collect..Extend$LT$T$GT$$GT$6extend17h8e25c65eabb9033dE', symObjAddr: 0x81E4, symBinAddr: 0x100020AA8, symSize: 0x58 }
  - { offset: 0x59FAB, size: 0x8, addend: 0x0, symName: '__ZN94_$LT$$RF$alloc..vec..Vec$LT$T$C$A$GT$$u20$as$u20$core..iter..traits..collect..IntoIterator$GT$9into_iter17h3a5894bf7727a050E', symObjAddr: 0x823C, symBinAddr: 0x100020B00, symSize: 0x60 }
  - { offset: 0x5A190, size: 0x8, addend: 0x0, symName: '__ZN94_$LT$$RF$alloc..vec..Vec$LT$T$C$A$GT$$u20$as$u20$core..iter..traits..collect..IntoIterator$GT$9into_iter17h5ca383c4a476628dE', symObjAddr: 0x829C, symBinAddr: 0x100020B60, symSize: 0x68 }
  - { offset: 0x5A375, size: 0x8, addend: 0x0, symName: '__ZN94_$LT$$RF$alloc..vec..Vec$LT$T$C$A$GT$$u20$as$u20$core..iter..traits..collect..IntoIterator$GT$9into_iter17h6718844b8a7dd543E', symObjAddr: 0x8304, symBinAddr: 0x100020BC8, symSize: 0x68 }
  - { offset: 0x5A55A, size: 0x8, addend: 0x0, symName: '__ZN94_$LT$$RF$alloc..vec..Vec$LT$T$C$A$GT$$u20$as$u20$core..iter..traits..collect..IntoIterator$GT$9into_iter17h7172a0cf1e8a073cE', symObjAddr: 0x836C, symBinAddr: 0x100020C30, symSize: 0x60 }
  - { offset: 0x5A73F, size: 0x8, addend: 0x0, symName: '__ZN94_$LT$$RF$alloc..vec..Vec$LT$T$C$A$GT$$u20$as$u20$core..iter..traits..collect..IntoIterator$GT$9into_iter17h9fc9ff54720e6d14E', symObjAddr: 0x83CC, symBinAddr: 0x100020C90, symSize: 0x60 }
  - { offset: 0x5A924, size: 0x8, addend: 0x0, symName: '__ZN94_$LT$$RF$alloc..vec..Vec$LT$T$C$A$GT$$u20$as$u20$core..iter..traits..collect..IntoIterator$GT$9into_iter17ha4fc47669837f2ccE', symObjAddr: 0x842C, symBinAddr: 0x100020CF0, symSize: 0x68 }
  - { offset: 0x5AB09, size: 0x8, addend: 0x0, symName: '__ZN94_$LT$$RF$alloc..vec..Vec$LT$T$C$A$GT$$u20$as$u20$core..iter..traits..collect..IntoIterator$GT$9into_iter17hb454f882aafa6d5bE', symObjAddr: 0x8494, symBinAddr: 0x100020D58, symSize: 0x60 }
  - { offset: 0x5ACEE, size: 0x8, addend: 0x0, symName: '__ZN94_$LT$$RF$alloc..vec..Vec$LT$T$C$A$GT$$u20$as$u20$core..iter..traits..collect..IntoIterator$GT$9into_iter17hc987ecb7e5bf1d63E', symObjAddr: 0x84F4, symBinAddr: 0x100020DB8, symSize: 0x60 }
  - { offset: 0x5AED3, size: 0x8, addend: 0x0, symName: '__ZN94_$LT$$RF$alloc..vec..Vec$LT$T$C$A$GT$$u20$as$u20$core..iter..traits..collect..IntoIterator$GT$9into_iter17he1faf497557bc651E', symObjAddr: 0x8554, symBinAddr: 0x100020E18, symSize: 0x68 }
  - { offset: 0x5B0BE, size: 0x8, addend: 0x0, symName: '__ZN95_$LT$alloc..vec..Vec$LT$T$GT$$u20$as$u20$core..iter..traits..collect..FromIterator$LT$T$GT$$GT$9from_iter17h0be063555891bcddE', symObjAddr: 0x85BC, symBinAddr: 0x100020E80, symSize: 0x38 }
  - { offset: 0x5B0FE, size: 0x8, addend: 0x0, symName: '__ZN95_$LT$alloc..vec..Vec$LT$T$GT$$u20$as$u20$core..iter..traits..collect..FromIterator$LT$T$GT$$GT$9from_iter17h1440f9fdad7e3ab1E', symObjAddr: 0x85F4, symBinAddr: 0x100020EB8, symSize: 0x34 }
  - { offset: 0x5B13F, size: 0x8, addend: 0x0, symName: '__ZN95_$LT$alloc..vec..Vec$LT$T$GT$$u20$as$u20$core..iter..traits..collect..FromIterator$LT$T$GT$$GT$9from_iter17h1c76d7a7288afb7fE', symObjAddr: 0x8628, symBinAddr: 0x100020EEC, symSize: 0x38 }
  - { offset: 0x5B17F, size: 0x8, addend: 0x0, symName: '__ZN95_$LT$alloc..vec..Vec$LT$T$GT$$u20$as$u20$core..iter..traits..collect..FromIterator$LT$T$GT$$GT$9from_iter17h3cac280edbe38140E', symObjAddr: 0x8660, symBinAddr: 0x100020F24, symSize: 0x34 }
  - { offset: 0x5B1C0, size: 0x8, addend: 0x0, symName: '__ZN95_$LT$alloc..vec..Vec$LT$T$GT$$u20$as$u20$core..iter..traits..collect..FromIterator$LT$T$GT$$GT$9from_iter17h58ab942ee0a984bfE', symObjAddr: 0x8694, symBinAddr: 0x100020F58, symSize: 0x34 }
  - { offset: 0x5B201, size: 0x8, addend: 0x0, symName: '__ZN95_$LT$alloc..vec..Vec$LT$T$GT$$u20$as$u20$core..iter..traits..collect..FromIterator$LT$T$GT$$GT$9from_iter17h5b1d4c2579b6c645E', symObjAddr: 0x86C8, symBinAddr: 0x100020F8C, symSize: 0x38 }
  - { offset: 0x5B241, size: 0x8, addend: 0x0, symName: '__ZN95_$LT$alloc..vec..Vec$LT$T$GT$$u20$as$u20$core..iter..traits..collect..FromIterator$LT$T$GT$$GT$9from_iter17h717d02a3456394f8E', symObjAddr: 0x8700, symBinAddr: 0x100020FC4, symSize: 0x34 }
  - { offset: 0x5B282, size: 0x8, addend: 0x0, symName: '__ZN95_$LT$alloc..vec..Vec$LT$T$GT$$u20$as$u20$core..iter..traits..collect..FromIterator$LT$T$GT$$GT$9from_iter17h7718232b8cfe3596E', symObjAddr: 0x8734, symBinAddr: 0x100020FF8, symSize: 0x38 }
  - { offset: 0x5B2C2, size: 0x8, addend: 0x0, symName: '__ZN95_$LT$alloc..vec..Vec$LT$T$GT$$u20$as$u20$core..iter..traits..collect..FromIterator$LT$T$GT$$GT$9from_iter17h999d270cb9946f42E', symObjAddr: 0x876C, symBinAddr: 0x100021030, symSize: 0x34 }
  - { offset: 0x5B303, size: 0x8, addend: 0x0, symName: '__ZN95_$LT$alloc..vec..Vec$LT$T$GT$$u20$as$u20$core..iter..traits..collect..FromIterator$LT$T$GT$$GT$9from_iter17hab2885fac696f1afE', symObjAddr: 0x87A0, symBinAddr: 0x100021064, symSize: 0x34 }
  - { offset: 0x5B344, size: 0x8, addend: 0x0, symName: '__ZN95_$LT$alloc..vec..Vec$LT$T$GT$$u20$as$u20$core..iter..traits..collect..FromIterator$LT$T$GT$$GT$9from_iter17hd25d46d6be31187eE', symObjAddr: 0x87D4, symBinAddr: 0x100021098, symSize: 0x38 }
  - { offset: 0x5B384, size: 0x8, addend: 0x0, symName: '__ZN95_$LT$alloc..vec..Vec$LT$T$GT$$u20$as$u20$core..iter..traits..collect..FromIterator$LT$T$GT$$GT$9from_iter17hde8cf0a79658cf93E', symObjAddr: 0x880C, symBinAddr: 0x1000210D0, symSize: 0x34 }
  - { offset: 0x5B3C5, size: 0x8, addend: 0x0, symName: '__ZN95_$LT$alloc..vec..Vec$LT$T$GT$$u20$as$u20$core..iter..traits..collect..FromIterator$LT$T$GT$$GT$9from_iter17he51152a26410be72E', symObjAddr: 0x8840, symBinAddr: 0x100021104, symSize: 0x34 }
  - { offset: 0x5B406, size: 0x8, addend: 0x0, symName: '__ZN95_$LT$alloc..vec..Vec$LT$T$GT$$u20$as$u20$core..iter..traits..collect..FromIterator$LT$T$GT$$GT$9from_iter17he95af673bd5102f7E', symObjAddr: 0x8874, symBinAddr: 0x100021138, symSize: 0x34 }
  - { offset: 0x5B447, size: 0x8, addend: 0x0, symName: '__ZN95_$LT$alloc..vec..Vec$LT$T$GT$$u20$as$u20$core..iter..traits..collect..FromIterator$LT$T$GT$$GT$9from_iter17hee767f15723ab45cE', symObjAddr: 0x88A8, symBinAddr: 0x10002116C, symSize: 0x34 }
  - { offset: 0x5B488, size: 0x8, addend: 0x0, symName: '__ZN95_$LT$alloc..vec..Vec$LT$T$GT$$u20$as$u20$core..iter..traits..collect..FromIterator$LT$T$GT$$GT$9from_iter17hfa05ae8d4f092660E', symObjAddr: 0x88DC, symBinAddr: 0x1000211A0, symSize: 0x34 }
  - { offset: 0x5B4D4, size: 0x8, addend: 0x0, symName: '__ZN98_$LT$alloc..vec..Vec$LT$T$GT$$u20$as$u20$alloc..vec..spec_from_iter..SpecFromIter$LT$T$C$I$GT$$GT$9from_iter17h1573d04385160b0cE', symObjAddr: 0x8BB0, symBinAddr: 0x100021474, symSize: 0x2C }
  - { offset: 0x5B512, size: 0x8, addend: 0x0, symName: '__ZN98_$LT$alloc..vec..Vec$LT$T$GT$$u20$as$u20$alloc..vec..spec_from_iter..SpecFromIter$LT$T$C$I$GT$$GT$9from_iter17h27871a48a4c134efE', symObjAddr: 0x8BDC, symBinAddr: 0x1000214A0, symSize: 0x14 }
  - { offset: 0x5B551, size: 0x8, addend: 0x0, symName: '__ZN98_$LT$alloc..vec..Vec$LT$T$GT$$u20$as$u20$alloc..vec..spec_from_iter..SpecFromIter$LT$T$C$I$GT$$GT$9from_iter17h338d76ccc2413c29E', symObjAddr: 0x8BF0, symBinAddr: 0x1000214B4, symSize: 0x14 }
  - { offset: 0x5B590, size: 0x8, addend: 0x0, symName: '__ZN98_$LT$alloc..vec..Vec$LT$T$GT$$u20$as$u20$alloc..vec..spec_from_iter..SpecFromIter$LT$T$C$I$GT$$GT$9from_iter17h595974e3eba2b1dfE', symObjAddr: 0x8C04, symBinAddr: 0x1000214C8, symSize: 0x14 }
  - { offset: 0x5B5CF, size: 0x8, addend: 0x0, symName: '__ZN98_$LT$alloc..vec..Vec$LT$T$GT$$u20$as$u20$alloc..vec..spec_from_iter..SpecFromIter$LT$T$C$I$GT$$GT$9from_iter17h603f6cf4d1167796E', symObjAddr: 0x8C18, symBinAddr: 0x1000214DC, symSize: 0x2C }
  - { offset: 0x5B60D, size: 0x8, addend: 0x0, symName: '__ZN98_$LT$alloc..vec..Vec$LT$T$GT$$u20$as$u20$alloc..vec..spec_from_iter..SpecFromIter$LT$T$C$I$GT$$GT$9from_iter17h641b5c06fc18faf9E', symObjAddr: 0x8C44, symBinAddr: 0x100021508, symSize: 0x2C }
  - { offset: 0x5B64B, size: 0x8, addend: 0x0, symName: '__ZN98_$LT$alloc..vec..Vec$LT$T$GT$$u20$as$u20$alloc..vec..spec_from_iter..SpecFromIter$LT$T$C$I$GT$$GT$9from_iter17h66d20700145380d1E', symObjAddr: 0x8C70, symBinAddr: 0x100021534, symSize: 0x14 }
  - { offset: 0x5B68A, size: 0x8, addend: 0x0, symName: '__ZN98_$LT$alloc..vec..Vec$LT$T$GT$$u20$as$u20$alloc..vec..spec_from_iter..SpecFromIter$LT$T$C$I$GT$$GT$9from_iter17h6b9385c9f1c97d5cE', symObjAddr: 0x8C84, symBinAddr: 0x100021548, symSize: 0x14 }
  - { offset: 0x5B6C9, size: 0x8, addend: 0x0, symName: '__ZN98_$LT$alloc..vec..Vec$LT$T$GT$$u20$as$u20$alloc..vec..spec_from_iter..SpecFromIter$LT$T$C$I$GT$$GT$9from_iter17h8901d79e36cc207cE', symObjAddr: 0x8C98, symBinAddr: 0x10002155C, symSize: 0x14 }
  - { offset: 0x5B708, size: 0x8, addend: 0x0, symName: '__ZN98_$LT$alloc..vec..Vec$LT$T$GT$$u20$as$u20$alloc..vec..spec_from_iter..SpecFromIter$LT$T$C$I$GT$$GT$9from_iter17h92f0782b9ef41234E', symObjAddr: 0x8CAC, symBinAddr: 0x100021570, symSize: 0x2C }
  - { offset: 0x5B746, size: 0x8, addend: 0x0, symName: '__ZN98_$LT$alloc..vec..Vec$LT$T$GT$$u20$as$u20$alloc..vec..spec_from_iter..SpecFromIter$LT$T$C$I$GT$$GT$9from_iter17ha1af0c81efed8edeE', symObjAddr: 0x8CD8, symBinAddr: 0x10002159C, symSize: 0x2C }
  - { offset: 0x5B784, size: 0x8, addend: 0x0, symName: '__ZN98_$LT$alloc..vec..Vec$LT$T$GT$$u20$as$u20$alloc..vec..spec_from_iter..SpecFromIter$LT$T$C$I$GT$$GT$9from_iter17hbbc657076bbd882eE', symObjAddr: 0x8D04, symBinAddr: 0x1000215C8, symSize: 0x14 }
  - { offset: 0x5B7C3, size: 0x8, addend: 0x0, symName: '__ZN98_$LT$alloc..vec..Vec$LT$T$GT$$u20$as$u20$alloc..vec..spec_from_iter..SpecFromIter$LT$T$C$I$GT$$GT$9from_iter17hc1699c8133050dddE', symObjAddr: 0x8D18, symBinAddr: 0x1000215DC, symSize: 0x14 }
  - { offset: 0x5B802, size: 0x8, addend: 0x0, symName: '__ZN98_$LT$alloc..vec..Vec$LT$T$GT$$u20$as$u20$alloc..vec..spec_from_iter..SpecFromIter$LT$T$C$I$GT$$GT$9from_iter17hc92140d7128fb47dE', symObjAddr: 0x8D2C, symBinAddr: 0x1000215F0, symSize: 0x14 }
  - { offset: 0x5B841, size: 0x8, addend: 0x0, symName: '__ZN98_$LT$alloc..vec..Vec$LT$T$GT$$u20$as$u20$alloc..vec..spec_from_iter..SpecFromIter$LT$T$C$I$GT$$GT$9from_iter17hf4411b7d9f455f03E', symObjAddr: 0x8D40, symBinAddr: 0x100021604, symSize: 0x14 }
  - { offset: 0x5BADF, size: 0x8, addend: 0x0, symName: '__ZN5alloc5slice99_$LT$impl$u20$core..slice..sort..stable..BufGuard$LT$T$GT$$u20$for$u20$alloc..vec..Vec$LT$T$GT$$GT$13with_capacity17h74e3fdad29bcab4bE', symObjAddr: 0x6F3C, symBinAddr: 0x10001F800, symSize: 0x44 }
  - { offset: 0x5BB80, size: 0x8, addend: 0x0, symName: '__ZN5alloc5slice99_$LT$impl$u20$core..slice..sort..stable..BufGuard$LT$T$GT$$u20$for$u20$alloc..vec..Vec$LT$T$GT$$GT$13with_capacity17h75a8f862d39d4f16E', symObjAddr: 0x6F80, symBinAddr: 0x10001F844, symSize: 0x44 }
  - { offset: 0x5BC21, size: 0x8, addend: 0x0, symName: '__ZN5alloc5slice99_$LT$impl$u20$core..slice..sort..stable..BufGuard$LT$T$GT$$u20$for$u20$alloc..vec..Vec$LT$T$GT$$GT$13with_capacity17h7b0b0a0e6c44a7cbE', symObjAddr: 0x6FC4, symBinAddr: 0x10001F888, symSize: 0x44 }
  - { offset: 0x5BCC2, size: 0x8, addend: 0x0, symName: '__ZN5alloc5slice99_$LT$impl$u20$core..slice..sort..stable..BufGuard$LT$T$GT$$u20$for$u20$alloc..vec..Vec$LT$T$GT$$GT$13with_capacity17he16b2e6c56e42b4aE', symObjAddr: 0x7008, symBinAddr: 0x10001F8CC, symSize: 0x44 }
  - { offset: 0x5BD63, size: 0x8, addend: 0x0, symName: '__ZN5alloc5slice99_$LT$impl$u20$core..slice..sort..stable..BufGuard$LT$T$GT$$u20$for$u20$alloc..vec..Vec$LT$T$GT$$GT$13with_capacity17heb4b13d74569ef0aE', symObjAddr: 0x704C, symBinAddr: 0x10001F910, symSize: 0x44 }
  - { offset: 0x5BE04, size: 0x8, addend: 0x0, symName: '__ZN5alloc5slice99_$LT$impl$u20$core..slice..sort..stable..BufGuard$LT$T$GT$$u20$for$u20$alloc..vec..Vec$LT$T$GT$$GT$19as_uninit_slice_mut17h1c71669dcd18ad75E', symObjAddr: 0x7090, symBinAddr: 0x10001F954, symSize: 0xC4 }
  - { offset: 0x5BF5B, size: 0x8, addend: 0x0, symName: '__ZN5alloc5slice99_$LT$impl$u20$core..slice..sort..stable..BufGuard$LT$T$GT$$u20$for$u20$alloc..vec..Vec$LT$T$GT$$GT$19as_uninit_slice_mut17h52432089e4034728E', symObjAddr: 0x7154, symBinAddr: 0x10001FA18, symSize: 0xC4 }
  - { offset: 0x5C0B2, size: 0x8, addend: 0x0, symName: '__ZN5alloc5slice99_$LT$impl$u20$core..slice..sort..stable..BufGuard$LT$T$GT$$u20$for$u20$alloc..vec..Vec$LT$T$GT$$GT$19as_uninit_slice_mut17h6620c07c5da6cf88E', symObjAddr: 0x7218, symBinAddr: 0x10001FADC, symSize: 0xC8 }
  - { offset: 0x5C209, size: 0x8, addend: 0x0, symName: '__ZN5alloc5slice99_$LT$impl$u20$core..slice..sort..stable..BufGuard$LT$T$GT$$u20$for$u20$alloc..vec..Vec$LT$T$GT$$GT$19as_uninit_slice_mut17hb83a338f6241226eE', symObjAddr: 0x72E0, symBinAddr: 0x10001FBA4, symSize: 0xC8 }
  - { offset: 0x5C360, size: 0x8, addend: 0x0, symName: '__ZN5alloc5slice99_$LT$impl$u20$core..slice..sort..stable..BufGuard$LT$T$GT$$u20$for$u20$alloc..vec..Vec$LT$T$GT$$GT$19as_uninit_slice_mut17hf4735099d7998357E', symObjAddr: 0x73A8, symBinAddr: 0x10001FC6C, symSize: 0xC8 }
  - { offset: 0x5DBAF, size: 0x8, addend: 0x0, symName: '__ZN5alloc3vec12Vec$LT$T$GT$13with_capacity17h048fc02fef4ba6dfE', symObjAddr: 0x190C, symBinAddr: 0x10001A1D0, symSize: 0x44 }
  - { offset: 0x5DC89, size: 0x8, addend: 0x0, symName: '__ZN5alloc3vec12Vec$LT$T$GT$13with_capacity17h1b2875bee4b260c4E', symObjAddr: 0x1950, symBinAddr: 0x10001A214, symSize: 0x44 }
  - { offset: 0x5DD63, size: 0x8, addend: 0x0, symName: '__ZN5alloc3vec12Vec$LT$T$GT$13with_capacity17h469b52e348557ff7E', symObjAddr: 0x1994, symBinAddr: 0x10001A258, symSize: 0x44 }
  - { offset: 0x5DE3D, size: 0x8, addend: 0x0, symName: '__ZN5alloc3vec12Vec$LT$T$GT$13with_capacity17h48ea6a9f52875ba8E', symObjAddr: 0x19D8, symBinAddr: 0x10001A29C, symSize: 0x44 }
  - { offset: 0x5DF17, size: 0x8, addend: 0x0, symName: '__ZN5alloc3vec12Vec$LT$T$GT$13with_capacity17h5ceeda7d00a1a48eE', symObjAddr: 0x1A1C, symBinAddr: 0x10001A2E0, symSize: 0x40 }
  - { offset: 0x5DFF1, size: 0x8, addend: 0x0, symName: '__ZN5alloc3vec12Vec$LT$T$GT$13with_capacity17h7b80879ed71fce59E', symObjAddr: 0x1A5C, symBinAddr: 0x10001A320, symSize: 0x44 }
  - { offset: 0x5E0CB, size: 0x8, addend: 0x0, symName: '__ZN5alloc3vec12Vec$LT$T$GT$13with_capacity17h958da3fa11349b8cE', symObjAddr: 0x1AA0, symBinAddr: 0x10001A364, symSize: 0x40 }
  - { offset: 0x5E1A5, size: 0x8, addend: 0x0, symName: '__ZN5alloc3vec12Vec$LT$T$GT$13with_capacity17hb0daae9d94edd889E', symObjAddr: 0x1AE0, symBinAddr: 0x10001A3A4, symSize: 0x44 }
  - { offset: 0x5E27F, size: 0x8, addend: 0x0, symName: '__ZN5alloc3vec12Vec$LT$T$GT$13with_capacity17hd08e44e0066ca20fE', symObjAddr: 0x1B24, symBinAddr: 0x10001A3E8, symSize: 0x44 }
  - { offset: 0x5E359, size: 0x8, addend: 0x0, symName: '__ZN5alloc3vec12Vec$LT$T$GT$13with_capacity17hed02729a0a055f91E', symObjAddr: 0x1B68, symBinAddr: 0x10001A42C, symSize: 0x44 }
  - { offset: 0x5E3D1, size: 0x8, addend: 0x0, symName: '__ZN5alloc3vec12Vec$LT$T$GT$3new17h008477a2e7c6474fE', symObjAddr: 0x1BAC, symBinAddr: 0x10001A470, symSize: 0x14 }
  - { offset: 0x5E3EE, size: 0x8, addend: 0x0, symName: '__ZN5alloc3vec12Vec$LT$T$GT$3new17h02b3db0eb826b293E', symObjAddr: 0x1BC0, symBinAddr: 0x10001A484, symSize: 0x14 }
  - { offset: 0x5E40B, size: 0x8, addend: 0x0, symName: '__ZN5alloc3vec12Vec$LT$T$GT$3new17h0a75a2f3975fe3c5E', symObjAddr: 0x1BD4, symBinAddr: 0x10001A498, symSize: 0x14 }
  - { offset: 0x5E428, size: 0x8, addend: 0x0, symName: '__ZN5alloc3vec12Vec$LT$T$GT$3new17h2539c5d1186ddbadE', symObjAddr: 0x1BE8, symBinAddr: 0x10001A4AC, symSize: 0x14 }
  - { offset: 0x5E445, size: 0x8, addend: 0x0, symName: '__ZN5alloc3vec12Vec$LT$T$GT$3new17h334b452b63f5f7abE', symObjAddr: 0x1BFC, symBinAddr: 0x10001A4C0, symSize: 0x14 }
  - { offset: 0x5E480, size: 0x8, addend: 0x0, symName: '__ZN5alloc3vec12Vec$LT$T$GT$3new17h368d0b0b260b98d8E', symObjAddr: 0x1C10, symBinAddr: 0x10001A4D4, symSize: 0x14 }
  - { offset: 0x5E4E5, size: 0x8, addend: 0x0, symName: '__ZN5alloc3vec12Vec$LT$T$GT$3new17h4039f30d9b77be62E', symObjAddr: 0x1C24, symBinAddr: 0x10001A4E8, symSize: 0x14 }
  - { offset: 0x5E502, size: 0x8, addend: 0x0, symName: '__ZN5alloc3vec12Vec$LT$T$GT$3new17h52786f0a72a1ada9E', symObjAddr: 0x1C38, symBinAddr: 0x10001A4FC, symSize: 0x14 }
  - { offset: 0x5E51F, size: 0x8, addend: 0x0, symName: '__ZN5alloc3vec12Vec$LT$T$GT$3new17h5f10318eb938b9f3E', symObjAddr: 0x1C4C, symBinAddr: 0x10001A510, symSize: 0x14 }
  - { offset: 0x5E53C, size: 0x8, addend: 0x0, symName: '__ZN5alloc3vec12Vec$LT$T$GT$3new17h62843240fcb8c8d5E', symObjAddr: 0x1C60, symBinAddr: 0x10001A524, symSize: 0x14 }
  - { offset: 0x5E559, size: 0x8, addend: 0x0, symName: '__ZN5alloc3vec12Vec$LT$T$GT$3new17h778eee8e3d229da9E', symObjAddr: 0x1C74, symBinAddr: 0x10001A538, symSize: 0x14 }
  - { offset: 0x5E59F, size: 0x8, addend: 0x0, symName: '__ZN5alloc3vec12Vec$LT$T$GT$3new17h875c314dcb8da423E', symObjAddr: 0x1C88, symBinAddr: 0x10001A54C, symSize: 0x14 }
  - { offset: 0x5E5BC, size: 0x8, addend: 0x0, symName: '__ZN5alloc3vec12Vec$LT$T$GT$3new17hc16dfe27295ecf3aE', symObjAddr: 0x1C9C, symBinAddr: 0x10001A560, symSize: 0x14 }
  - { offset: 0x5E5D9, size: 0x8, addend: 0x0, symName: '__ZN5alloc3vec12Vec$LT$T$GT$3new17hcec949a0b81e4051E', symObjAddr: 0x1CB0, symBinAddr: 0x10001A574, symSize: 0x14 }
  - { offset: 0x5E5F6, size: 0x8, addend: 0x0, symName: '__ZN5alloc3vec12Vec$LT$T$GT$3new17hdb58b4ee087921d8E', symObjAddr: 0x1CC4, symBinAddr: 0x10001A588, symSize: 0x14 }
  - { offset: 0x5E613, size: 0x8, addend: 0x0, symName: '__ZN5alloc3vec12Vec$LT$T$GT$3new17he4550acf48d0270cE', symObjAddr: 0x1CD8, symBinAddr: 0x10001A59C, symSize: 0x14 }
  - { offset: 0x5E67B, size: 0x8, addend: 0x0, symName: '__ZN5alloc3vec16Vec$LT$T$C$A$GT$10as_mut_ptr17h35fb110af9ded8b3E', symObjAddr: 0x1CEC, symBinAddr: 0x10001A5B0, symSize: 0x18 }
  - { offset: 0x5E770, size: 0x8, addend: 0x0, symName: '__ZN5alloc3vec16Vec$LT$T$C$A$GT$10as_mut_ptr17h6a88791c473e1af0E', symObjAddr: 0x1D04, symBinAddr: 0x10001A5C8, symSize: 0x18 }
  - { offset: 0x5E923, size: 0x8, addend: 0x0, symName: '__ZN5alloc3vec16Vec$LT$T$C$A$GT$11extend_with17h03783ce92bc4d1ebE', symObjAddr: 0x1D1C, symBinAddr: 0x10001A5E0, symSize: 0x214 }
  - { offset: 0x5ECC6, size: 0x8, addend: 0x0, symName: '__ZN5alloc3vec16Vec$LT$T$C$A$GT$11extend_with17h266f54a371f2877eE', symObjAddr: 0x1F30, symBinAddr: 0x10001A7F4, symSize: 0x1C4 }
  - { offset: 0x5F053, size: 0x8, addend: 0x0, symName: '__ZN5alloc3vec16Vec$LT$T$C$A$GT$11extend_with17h35664516a9fe2e9aE', symObjAddr: 0x20F4, symBinAddr: 0x10001A9B8, symSize: 0x1C4 }
  - { offset: 0x5F421, size: 0x8, addend: 0x0, symName: '__ZN5alloc3vec16Vec$LT$T$C$A$GT$11extend_with17hb198d2f0989045f1E', symObjAddr: 0x22B8, symBinAddr: 0x10001AB7C, symSize: 0x1F0 }
  - { offset: 0x5F7E2, size: 0x8, addend: 0x0, symName: '__ZN5alloc3vec16Vec$LT$T$C$A$GT$11extend_with17hf1a0acf12bd20766E', symObjAddr: 0x24A8, symBinAddr: 0x10001AD6C, symSize: 0x200 }
  - { offset: 0x5FC34, size: 0x8, addend: 0x0, symName: '__ZN5alloc3vec16Vec$LT$T$C$A$GT$11swap_remove17h8c017fbea1f52c16E', symObjAddr: 0x26A8, symBinAddr: 0x10001AF6C, symSize: 0x158 }
  - { offset: 0x5FF85, size: 0x8, addend: 0x0, symName: '__ZN5alloc3vec16Vec$LT$T$C$A$GT$14extend_trusted17h02600e313c442d22E', symObjAddr: 0x2800, symBinAddr: 0x10001B0C4, symSize: 0x124 }
  - { offset: 0x601AC, size: 0x8, addend: 0x0, symName: '__ZN5alloc3vec16Vec$LT$T$C$A$GT$14extend_trusted17h2158dd40d9818157E', symObjAddr: 0x2924, symBinAddr: 0x10001B1E8, symSize: 0x124 }
  - { offset: 0x6039F, size: 0x8, addend: 0x0, symName: '__ZN5alloc3vec16Vec$LT$T$C$A$GT$14extend_trusted17h40537142830a2b57E', symObjAddr: 0x2A48, symBinAddr: 0x10001B30C, symSize: 0x124 }
  - { offset: 0x605FA, size: 0x8, addend: 0x0, symName: '__ZN5alloc3vec16Vec$LT$T$C$A$GT$14extend_trusted17h54cb6f35dc4f75baE', symObjAddr: 0x2B6C, symBinAddr: 0x10001B430, symSize: 0x130 }
  - { offset: 0x6082F, size: 0x8, addend: 0x0, symName: '__ZN5alloc3vec16Vec$LT$T$C$A$GT$14extend_trusted17h57fb82096f44bc4bE', symObjAddr: 0x2C9C, symBinAddr: 0x10001B560, symSize: 0x130 }
  - { offset: 0x60A64, size: 0x8, addend: 0x0, symName: '__ZN5alloc3vec16Vec$LT$T$C$A$GT$14extend_trusted17h6af4ae6bd690655aE', symObjAddr: 0x2DCC, symBinAddr: 0x10001B690, symSize: 0x130 }
  - { offset: 0x60C65, size: 0x8, addend: 0x0, symName: '__ZN5alloc3vec16Vec$LT$T$C$A$GT$14extend_trusted17h9f9a2679695864c6E', symObjAddr: 0x2EFC, symBinAddr: 0x10001B7C0, symSize: 0x124 }
  - { offset: 0x60E58, size: 0x8, addend: 0x0, symName: '__ZN5alloc3vec16Vec$LT$T$C$A$GT$14extend_trusted17haf6c5b21cdb212b7E', symObjAddr: 0x3020, symBinAddr: 0x10001B8E4, symSize: 0x124 }
  - { offset: 0x6104B, size: 0x8, addend: 0x0, symName: '__ZN5alloc3vec16Vec$LT$T$C$A$GT$14extend_trusted17hc26d058fa8dac973E', symObjAddr: 0x3144, symBinAddr: 0x10001BA08, symSize: 0x130 }
  - { offset: 0x61273, size: 0x8, addend: 0x0, symName: '__ZN5alloc3vec16Vec$LT$T$C$A$GT$14extend_trusted17hd32d6e577eec6464E', symObjAddr: 0x3274, symBinAddr: 0x10001BB38, symSize: 0x130 }
  - { offset: 0x6149B, size: 0x8, addend: 0x0, symName: '__ZN5alloc3vec16Vec$LT$T$C$A$GT$14extend_trusted17he8aa11338a2c662fE', symObjAddr: 0x33A4, symBinAddr: 0x10001BC68, symSize: 0x130 }
  - { offset: 0x61740, size: 0x8, addend: 0x0, symName: '__ZN5alloc3vec16Vec$LT$T$C$A$GT$15append_elements17h2630ad894ca2310fE', symObjAddr: 0x3764, symBinAddr: 0x10001C028, symSize: 0xE0 }
  - { offset: 0x61A2D, size: 0x8, addend: 0x0, symName: '__ZN5alloc3vec16Vec$LT$T$C$A$GT$16extend_desugared17h0a2ea9776105b5d1E', symObjAddr: 0x3844, symBinAddr: 0x10001C108, symSize: 0x1AC }
  - { offset: 0x62025, size: 0x8, addend: 0x0, symName: '__ZN5alloc3vec16Vec$LT$T$C$A$GT$16extend_desugared17h0b59263305ae2422E', symObjAddr: 0x39F0, symBinAddr: 0x10001C2B4, symSize: 0x1C4 }
  - { offset: 0x62449, size: 0x8, addend: 0x0, symName: '__ZN5alloc3vec16Vec$LT$T$C$A$GT$16extend_desugared17h75398c1a131b8246E', symObjAddr: 0x3BB4, symBinAddr: 0x10001C478, symSize: 0x1F0 }
  - { offset: 0x62825, size: 0x8, addend: 0x0, symName: '__ZN5alloc3vec16Vec$LT$T$C$A$GT$16extend_desugared17hc87d0643b9c9fde6E', symObjAddr: 0x3DA4, symBinAddr: 0x10001C668, symSize: 0x1C0 }
  - { offset: 0x62C1C, size: 0x8, addend: 0x0, symName: '__ZN5alloc3vec16Vec$LT$T$C$A$GT$16extend_desugared17he67bea044a23cf64E', symObjAddr: 0x3F64, symBinAddr: 0x10001C828, symSize: 0x1A8 }
  - { offset: 0x63294, size: 0x8, addend: 0x0, symName: '__ZN5alloc3vec16Vec$LT$T$C$A$GT$16into_boxed_slice17h0648b03d7369c565E', symObjAddr: 0x410C, symBinAddr: 0x10001C9D0, symSize: 0x1E4 }
  - { offset: 0x63717, size: 0x8, addend: 0x0, symName: '__ZN5alloc3vec16Vec$LT$T$C$A$GT$17extend_from_slice17hd39735650969c231E', symObjAddr: 0x42F0, symBinAddr: 0x10001CBB4, symSize: 0x6C }
  - { offset: 0x6386E, size: 0x8, addend: 0x0, symName: '__ZN5alloc3vec16Vec$LT$T$C$A$GT$3len17h1c172c8b1cf296d9E', symObjAddr: 0x435C, symBinAddr: 0x10001CC20, symSize: 0x18 }
  - { offset: 0x638B0, size: 0x8, addend: 0x0, symName: '__ZN5alloc3vec16Vec$LT$T$C$A$GT$3len17h250ad8d096388fb2E', symObjAddr: 0x4374, symBinAddr: 0x10001CC38, symSize: 0x18 }
  - { offset: 0x638E5, size: 0x8, addend: 0x0, symName: '__ZN5alloc3vec16Vec$LT$T$C$A$GT$3len17h2f1e7f5fbbc004c9E', symObjAddr: 0x438C, symBinAddr: 0x10001CC50, symSize: 0x18 }
  - { offset: 0x63927, size: 0x8, addend: 0x0, symName: '__ZN5alloc3vec16Vec$LT$T$C$A$GT$3len17h47a61f9398eea099E', symObjAddr: 0x43A4, symBinAddr: 0x10001CC68, symSize: 0x18 }
  - { offset: 0x6395C, size: 0x8, addend: 0x0, symName: '__ZN5alloc3vec16Vec$LT$T$C$A$GT$3len17h6aee57a808a16d59E', symObjAddr: 0x43BC, symBinAddr: 0x10001CC80, symSize: 0x18 }
  - { offset: 0x63991, size: 0x8, addend: 0x0, symName: '__ZN5alloc3vec16Vec$LT$T$C$A$GT$3len17h6f87cce08ac4b045E', symObjAddr: 0x43D4, symBinAddr: 0x10001CC98, symSize: 0x18 }
  - { offset: 0x639C6, size: 0x8, addend: 0x0, symName: '__ZN5alloc3vec16Vec$LT$T$C$A$GT$3len17ha06416000557dd70E', symObjAddr: 0x43EC, symBinAddr: 0x10001CCB0, symSize: 0x18 }
  - { offset: 0x63A08, size: 0x8, addend: 0x0, symName: '__ZN5alloc3vec16Vec$LT$T$C$A$GT$3len17ha898bcd8315b4e64E', symObjAddr: 0x4404, symBinAddr: 0x10001CCC8, symSize: 0x18 }
  - { offset: 0x63A4A, size: 0x8, addend: 0x0, symName: '__ZN5alloc3vec16Vec$LT$T$C$A$GT$3len17hb294db992d12479aE', symObjAddr: 0x441C, symBinAddr: 0x10001CCE0, symSize: 0x18 }
  - { offset: 0x63A7F, size: 0x8, addend: 0x0, symName: '__ZN5alloc3vec16Vec$LT$T$C$A$GT$3len17hb3accf27152d09f2E', symObjAddr: 0x4434, symBinAddr: 0x10001CCF8, symSize: 0x18 }
  - { offset: 0x63AC1, size: 0x8, addend: 0x0, symName: '__ZN5alloc3vec16Vec$LT$T$C$A$GT$3len17hc5c90f507e5675d2E', symObjAddr: 0x444C, symBinAddr: 0x10001CD10, symSize: 0x18 }
  - { offset: 0x63B03, size: 0x8, addend: 0x0, symName: '__ZN5alloc3vec16Vec$LT$T$C$A$GT$3len17hdac54e6b718f492aE', symObjAddr: 0x4464, symBinAddr: 0x10001CD28, symSize: 0x18 }
  - { offset: 0x63B38, size: 0x8, addend: 0x0, symName: '__ZN5alloc3vec16Vec$LT$T$C$A$GT$3len17he5afa195c25a1a32E', symObjAddr: 0x447C, symBinAddr: 0x10001CD40, symSize: 0x18 }
  - { offset: 0x63B7A, size: 0x8, addend: 0x0, symName: '__ZN5alloc3vec16Vec$LT$T$C$A$GT$3len17he6e68b312d5fec2dE', symObjAddr: 0x4494, symBinAddr: 0x10001CD58, symSize: 0x18 }
  - { offset: 0x63BBC, size: 0x8, addend: 0x0, symName: '__ZN5alloc3vec16Vec$LT$T$C$A$GT$3len17hec874f0cf427c659E', symObjAddr: 0x44AC, symBinAddr: 0x10001CD70, symSize: 0x18 }
  - { offset: 0x63BF1, size: 0x8, addend: 0x0, symName: '__ZN5alloc3vec16Vec$LT$T$C$A$GT$3len17hfd48c3d8599fb2c2E', symObjAddr: 0x44C4, symBinAddr: 0x10001CD88, symSize: 0x18 }
  - { offset: 0x63D4D, size: 0x8, addend: 0x0, symName: '__ZN5alloc3vec16Vec$LT$T$C$A$GT$3pop17h41896c1c249f1923E', symObjAddr: 0x44DC, symBinAddr: 0x10001CDA0, symSize: 0xE8 }
  - { offset: 0x63FD3, size: 0x8, addend: 0x0, symName: '__ZN5alloc3vec16Vec$LT$T$C$A$GT$3pop17h7e1b9cdf532df161E', symObjAddr: 0x45C4, symBinAddr: 0x10001CE88, symSize: 0xE0 }
  - { offset: 0x6413F, size: 0x8, addend: 0x0, symName: '__ZN5alloc3vec16Vec$LT$T$C$A$GT$4push17h365cc1acf5dab924E', symObjAddr: 0x46A4, symBinAddr: 0x10001CF68, symSize: 0x3C }
  - { offset: 0x64183, size: 0x8, addend: 0x0, symName: '__ZN5alloc3vec16Vec$LT$T$C$A$GT$4push17h451ca79f2053854aE', symObjAddr: 0x46E0, symBinAddr: 0x10001CFA4, symSize: 0x24 }
  - { offset: 0x641D5, size: 0x8, addend: 0x0, symName: '__ZN5alloc3vec16Vec$LT$T$C$A$GT$4push17h458c32d593721e1eE', symObjAddr: 0x4704, symBinAddr: 0x10001CFC8, symSize: 0x34 }
  - { offset: 0x64226, size: 0x8, addend: 0x0, symName: '__ZN5alloc3vec16Vec$LT$T$C$A$GT$4push17h46d932916564bc0cE', symObjAddr: 0x4738, symBinAddr: 0x10001CFFC, symSize: 0x24 }
  - { offset: 0x6426B, size: 0x8, addend: 0x0, symName: '__ZN5alloc3vec16Vec$LT$T$C$A$GT$4push17h4b8b9398632731b7E', symObjAddr: 0x475C, symBinAddr: 0x10001D020, symSize: 0x24 }
  - { offset: 0x642BD, size: 0x8, addend: 0x0, symName: '__ZN5alloc3vec16Vec$LT$T$C$A$GT$4push17h5cc4a2f967416422E', symObjAddr: 0x4780, symBinAddr: 0x10001D044, symSize: 0x24 }
  - { offset: 0x64302, size: 0x8, addend: 0x0, symName: '__ZN5alloc3vec16Vec$LT$T$C$A$GT$4push17h67e651f6892baf9aE', symObjAddr: 0x47A4, symBinAddr: 0x10001D068, symSize: 0x28 }
  - { offset: 0x64353, size: 0x8, addend: 0x0, symName: '__ZN5alloc3vec16Vec$LT$T$C$A$GT$4push17h762da8f76e2787b4E', symObjAddr: 0x47CC, symBinAddr: 0x10001D090, symSize: 0x24 }
  - { offset: 0x643A5, size: 0x8, addend: 0x0, symName: '__ZN5alloc3vec16Vec$LT$T$C$A$GT$4push17h83c951e75f8fd5e3E', symObjAddr: 0x47F0, symBinAddr: 0x10001D0B4, symSize: 0x28 }
  - { offset: 0x643F6, size: 0x8, addend: 0x0, symName: '__ZN5alloc3vec16Vec$LT$T$C$A$GT$4push17h88c23f90a314957bE', symObjAddr: 0x4818, symBinAddr: 0x10001D0DC, symSize: 0x24 }
  - { offset: 0x64448, size: 0x8, addend: 0x0, symName: '__ZN5alloc3vec16Vec$LT$T$C$A$GT$4push17h8b3153f4c632023cE', symObjAddr: 0x483C, symBinAddr: 0x10001D100, symSize: 0x30 }
  - { offset: 0x64499, size: 0x8, addend: 0x0, symName: '__ZN5alloc3vec16Vec$LT$T$C$A$GT$4push17hb3d36ed581f19ce3E', symObjAddr: 0x486C, symBinAddr: 0x10001D130, symSize: 0x24 }
  - { offset: 0x644EB, size: 0x8, addend: 0x0, symName: '__ZN5alloc3vec16Vec$LT$T$C$A$GT$4push17hbff07c19a313975dE', symObjAddr: 0x4890, symBinAddr: 0x10001D154, symSize: 0x24 }
  - { offset: 0x64530, size: 0x8, addend: 0x0, symName: '__ZN5alloc3vec16Vec$LT$T$C$A$GT$4push17hce4a5154cec4530bE', symObjAddr: 0x48B4, symBinAddr: 0x10001D178, symSize: 0x2C }
  - { offset: 0x64581, size: 0x8, addend: 0x0, symName: '__ZN5alloc3vec16Vec$LT$T$C$A$GT$4push17hd12361a927266a34E', symObjAddr: 0x48E0, symBinAddr: 0x10001D1A4, symSize: 0x24 }
  - { offset: 0x645D3, size: 0x8, addend: 0x0, symName: '__ZN5alloc3vec16Vec$LT$T$C$A$GT$4push17hd1fd3dcb7eb0e816E', symObjAddr: 0x4904, symBinAddr: 0x10001D1C8, symSize: 0x24 }
  - { offset: 0x64618, size: 0x8, addend: 0x0, symName: '__ZN5alloc3vec16Vec$LT$T$C$A$GT$4push17hd777187c734da70fE', symObjAddr: 0x4928, symBinAddr: 0x10001D1EC, symSize: 0x24 }
  - { offset: 0x6466A, size: 0x8, addend: 0x0, symName: '__ZN5alloc3vec16Vec$LT$T$C$A$GT$4push17he22c603cacc5fdf2E', symObjAddr: 0x494C, symBinAddr: 0x10001D210, symSize: 0x24 }
  - { offset: 0x646BC, size: 0x8, addend: 0x0, symName: '__ZN5alloc3vec16Vec$LT$T$C$A$GT$4push17he81728a21371130aE', symObjAddr: 0x4970, symBinAddr: 0x10001D234, symSize: 0x24 }
  - { offset: 0x64701, size: 0x8, addend: 0x0, symName: '__ZN5alloc3vec16Vec$LT$T$C$A$GT$4push17hf07bdcfa376f0993E', symObjAddr: 0x4994, symBinAddr: 0x10001D258, symSize: 0x28 }
  - { offset: 0x64745, size: 0x8, addend: 0x0, symName: '__ZN5alloc3vec16Vec$LT$T$C$A$GT$4push17hf26860bde26c970bE', symObjAddr: 0x49BC, symBinAddr: 0x10001D280, symSize: 0x2C }
  - { offset: 0x64789, size: 0x8, addend: 0x0, symName: '__ZN5alloc3vec16Vec$LT$T$C$A$GT$5dedup17hed994eb9341cb2b6E', symObjAddr: 0x49E8, symBinAddr: 0x10001D2AC, symSize: 0x24 }
  - { offset: 0x64816, size: 0x8, addend: 0x0, symName: '__ZN5alloc3vec16Vec$LT$T$C$A$GT$6as_ptr17h660587a38b1615f5E', symObjAddr: 0x4A48, symBinAddr: 0x10001D30C, symSize: 0x18 }
  - { offset: 0x648D7, size: 0x8, addend: 0x0, symName: '__ZN5alloc3vec16Vec$LT$T$C$A$GT$6as_ptr17hb5908cd4cf2fd7a2E', symObjAddr: 0x4A60, symBinAddr: 0x10001D324, symSize: 0x18 }
  - { offset: 0x64A68, size: 0x8, addend: 0x0, symName: '__ZN5alloc3vec16Vec$LT$T$C$A$GT$6resize17he7e3016f91b7842cE', symObjAddr: 0x4A78, symBinAddr: 0x10001D33C, symSize: 0x104 }
  - { offset: 0x64D32, size: 0x8, addend: 0x0, symName: '__ZN5alloc3vec16Vec$LT$T$C$A$GT$7reserve17h196b3c3e5f8e3870E', symObjAddr: 0x4B7C, symBinAddr: 0x10001D440, symSize: 0xA8 }
  - { offset: 0x64F96, size: 0x8, addend: 0x0, symName: '__ZN5alloc3vec16Vec$LT$T$C$A$GT$7reserve17h207ce3d92b30da52E', symObjAddr: 0x4C24, symBinAddr: 0x10001D4E8, symSize: 0xA0 }
  - { offset: 0x651FA, size: 0x8, addend: 0x0, symName: '__ZN5alloc3vec16Vec$LT$T$C$A$GT$7reserve17h3373cbac890c77f8E', symObjAddr: 0x4CC4, symBinAddr: 0x10001D588, symSize: 0xA8 }
  - { offset: 0x6545E, size: 0x8, addend: 0x0, symName: '__ZN5alloc3vec16Vec$LT$T$C$A$GT$7reserve17h35aa77374d565f28E', symObjAddr: 0x4D6C, symBinAddr: 0x10001D630, symSize: 0xA0 }
  - { offset: 0x656C2, size: 0x8, addend: 0x0, symName: '__ZN5alloc3vec16Vec$LT$T$C$A$GT$7reserve17h3eee5d69b851b9fcE', symObjAddr: 0x4E0C, symBinAddr: 0x10001D6D0, symSize: 0xA8 }
  - { offset: 0x65926, size: 0x8, addend: 0x0, symName: '__ZN5alloc3vec16Vec$LT$T$C$A$GT$7reserve17h4b116ce3832437c8E', symObjAddr: 0x4EB4, symBinAddr: 0x10001D778, symSize: 0xA0 }
  - { offset: 0x65B8A, size: 0x8, addend: 0x0, symName: '__ZN5alloc3vec16Vec$LT$T$C$A$GT$7reserve17h695f386cbd8f9f1aE', symObjAddr: 0x4F54, symBinAddr: 0x10001D818, symSize: 0xA8 }
  - { offset: 0x65DEE, size: 0x8, addend: 0x0, symName: '__ZN5alloc3vec16Vec$LT$T$C$A$GT$7reserve17h6c789cd3c40e6160E', symObjAddr: 0x4FFC, symBinAddr: 0x10001D8C0, symSize: 0xA0 }
  - { offset: 0x66045, size: 0x8, addend: 0x0, symName: '__ZN5alloc3vec16Vec$LT$T$C$A$GT$7reserve17h6ed8ddedf761fa03E', symObjAddr: 0x509C, symBinAddr: 0x10001D960, symSize: 0xA0 }
  - { offset: 0x662A9, size: 0x8, addend: 0x0, symName: '__ZN5alloc3vec16Vec$LT$T$C$A$GT$7reserve17h8b3fc0dce5f3bca1E', symObjAddr: 0x513C, symBinAddr: 0x10001DA00, symSize: 0xA8 }
  - { offset: 0x6650D, size: 0x8, addend: 0x0, symName: '__ZN5alloc3vec16Vec$LT$T$C$A$GT$7reserve17h91e3e55dae50e993E', symObjAddr: 0x51E4, symBinAddr: 0x10001DAA8, symSize: 0xA8 }
  - { offset: 0x66771, size: 0x8, addend: 0x0, symName: '__ZN5alloc3vec16Vec$LT$T$C$A$GT$7reserve17haaca2237fe374992E', symObjAddr: 0x528C, symBinAddr: 0x10001DB50, symSize: 0xA8 }
  - { offset: 0x669D5, size: 0x8, addend: 0x0, symName: '__ZN5alloc3vec16Vec$LT$T$C$A$GT$7reserve17hb1be4ebb85ff8605E', symObjAddr: 0x5334, symBinAddr: 0x10001DBF8, symSize: 0xA0 }
  - { offset: 0x66C39, size: 0x8, addend: 0x0, symName: '__ZN5alloc3vec16Vec$LT$T$C$A$GT$7reserve17hc95262a67e8aa5f3E', symObjAddr: 0x53D4, symBinAddr: 0x10001DC98, symSize: 0xA8 }
  - { offset: 0x66E9D, size: 0x8, addend: 0x0, symName: '__ZN5alloc3vec16Vec$LT$T$C$A$GT$7reserve17hd6a9575e919b74f3E', symObjAddr: 0x547C, symBinAddr: 0x10001DD40, symSize: 0xA8 }
  - { offset: 0x670B6, size: 0x8, addend: 0x0, symName: '__ZN5alloc3vec16Vec$LT$T$C$A$GT$8as_slice17h15735b297761e0bfE', symObjAddr: 0x5524, symBinAddr: 0x10001DDE8, symSize: 0x20 }
  - { offset: 0x67215, size: 0x8, addend: 0x0, symName: '__ZN5alloc3vec16Vec$LT$T$C$A$GT$8as_slice17h2b295ab5d99b8a73E', symObjAddr: 0x5544, symBinAddr: 0x10001DE08, symSize: 0x20 }
  - { offset: 0x6734D, size: 0x8, addend: 0x0, symName: '__ZN5alloc3vec16Vec$LT$T$C$A$GT$8as_slice17hdd4b870a21af4e45E', symObjAddr: 0x5564, symBinAddr: 0x10001DE28, symSize: 0x20 }
  - { offset: 0x6753C, size: 0x8, addend: 0x0, symName: '__ZN5alloc3vec16Vec$LT$T$C$A$GT$8dedup_by17h8d2cabc6363b389bE', symObjAddr: 0x5584, symBinAddr: 0x10001DE48, symSize: 0x314 }
  - { offset: 0x678EE, size: 0x8, addend: 0x0, symName: '__ZN5alloc3vec16Vec$LT$T$C$A$GT$8is_empty17h0bb34a28e7db561fE', symObjAddr: 0x5898, symBinAddr: 0x10001E15C, symSize: 0x20 }
  - { offset: 0x67966, size: 0x8, addend: 0x0, symName: '__ZN5alloc3vec16Vec$LT$T$C$A$GT$8is_empty17h20ba23beaa0ce04bE', symObjAddr: 0x58B8, symBinAddr: 0x10001E17C, symSize: 0x20 }
  - { offset: 0x679DE, size: 0x8, addend: 0x0, symName: '__ZN5alloc3vec16Vec$LT$T$C$A$GT$8is_empty17h3b6b5b194332fc56E', symObjAddr: 0x58D8, symBinAddr: 0x10001E19C, symSize: 0x20 }
  - { offset: 0x67A56, size: 0x8, addend: 0x0, symName: '__ZN5alloc3vec16Vec$LT$T$C$A$GT$8is_empty17h3e246b296c357adbE', symObjAddr: 0x58F8, symBinAddr: 0x10001E1BC, symSize: 0x20 }
  - { offset: 0x67ACE, size: 0x8, addend: 0x0, symName: '__ZN5alloc3vec16Vec$LT$T$C$A$GT$8is_empty17h480867577113e4b9E', symObjAddr: 0x5918, symBinAddr: 0x10001E1DC, symSize: 0x20 }
  - { offset: 0x67B46, size: 0x8, addend: 0x0, symName: '__ZN5alloc3vec16Vec$LT$T$C$A$GT$8is_empty17h4d04c1ce59c82780E', symObjAddr: 0x5938, symBinAddr: 0x10001E1FC, symSize: 0x20 }
  - { offset: 0x67BCB, size: 0x8, addend: 0x0, symName: '__ZN5alloc3vec16Vec$LT$T$C$A$GT$8is_empty17h89dbde8e364c265dE', symObjAddr: 0x5958, symBinAddr: 0x10001E21C, symSize: 0x20 }
  - { offset: 0x67C43, size: 0x8, addend: 0x0, symName: '__ZN5alloc3vec16Vec$LT$T$C$A$GT$8is_empty17ha1f2dce4d3c667bdE', symObjAddr: 0x5978, symBinAddr: 0x10001E23C, symSize: 0x20 }
  - { offset: 0x67CC8, size: 0x8, addend: 0x0, symName: '__ZN5alloc3vec16Vec$LT$T$C$A$GT$8is_empty17hab4344625e213557E', symObjAddr: 0x5998, symBinAddr: 0x10001E25C, symSize: 0x20 }
  - { offset: 0x67D40, size: 0x8, addend: 0x0, symName: '__ZN5alloc3vec16Vec$LT$T$C$A$GT$8is_empty17hdc063656e80d31f8E', symObjAddr: 0x59B8, symBinAddr: 0x10001E27C, symSize: 0x20 }
  - { offset: 0x67E80, size: 0x8, addend: 0x0, symName: '__ZN5alloc3vec16Vec$LT$T$C$A$GT$8push_mut17h0198a1aea029a237E', symObjAddr: 0x59D8, symBinAddr: 0x10001E29C, symSize: 0xD8 }
  - { offset: 0x68116, size: 0x8, addend: 0x0, symName: '__ZN5alloc3vec16Vec$LT$T$C$A$GT$8push_mut17h0ce1846df713a1caE', symObjAddr: 0x5AB0, symBinAddr: 0x10001E374, symSize: 0x108 }
  - { offset: 0x68386, size: 0x8, addend: 0x0, symName: '__ZN5alloc3vec16Vec$LT$T$C$A$GT$8push_mut17h0f67b1533b5e1da9E', symObjAddr: 0x5BB8, symBinAddr: 0x10001E47C, symSize: 0xDC }
  - { offset: 0x685F8, size: 0x8, addend: 0x0, symName: '__ZN5alloc3vec16Vec$LT$T$C$A$GT$8push_mut17h1ee3b56490b38205E', symObjAddr: 0x5C94, symBinAddr: 0x10001E558, symSize: 0x100 }
  - { offset: 0x68869, size: 0x8, addend: 0x0, symName: '__ZN5alloc3vec16Vec$LT$T$C$A$GT$8push_mut17h2f47f2a411de6266E', symObjAddr: 0x5D94, symBinAddr: 0x10001E658, symSize: 0xF4 }
  - { offset: 0x68ADB, size: 0x8, addend: 0x0, symName: '__ZN5alloc3vec16Vec$LT$T$C$A$GT$8push_mut17h364eb63656da69b8E', symObjAddr: 0x5E88, symBinAddr: 0x10001E74C, symSize: 0xD4 }
  - { offset: 0x68D4A, size: 0x8, addend: 0x0, symName: '__ZN5alloc3vec16Vec$LT$T$C$A$GT$8push_mut17h3c91851f3a330a6aE', symObjAddr: 0x5F5C, symBinAddr: 0x10001E820, symSize: 0xF4 }
  - { offset: 0x68FAF, size: 0x8, addend: 0x0, symName: '__ZN5alloc3vec16Vec$LT$T$C$A$GT$8push_mut17h47ac63cb47c76229E', symObjAddr: 0x6050, symBinAddr: 0x10001E914, symSize: 0xCC }
  - { offset: 0x69245, size: 0x8, addend: 0x0, symName: '__ZN5alloc3vec16Vec$LT$T$C$A$GT$8push_mut17h553edd1d45ed0085E', symObjAddr: 0x611C, symBinAddr: 0x10001E9E0, symSize: 0xE0 }
  - { offset: 0x694CF, size: 0x8, addend: 0x0, symName: '__ZN5alloc3vec16Vec$LT$T$C$A$GT$8push_mut17h5c500693868233b7E', symObjAddr: 0x61FC, symBinAddr: 0x10001EAC0, symSize: 0xF8 }
  - { offset: 0x69767, size: 0x8, addend: 0x0, symName: '__ZN5alloc3vec16Vec$LT$T$C$A$GT$8push_mut17h5f510e974684dc37E', symObjAddr: 0x62F4, symBinAddr: 0x10001EBB8, symSize: 0xE4 }
  - { offset: 0x699D7, size: 0x8, addend: 0x0, symName: '__ZN5alloc3vec16Vec$LT$T$C$A$GT$8push_mut17h6a28c1d94f62d2c2E', symObjAddr: 0x63D8, symBinAddr: 0x10001EC9C, symSize: 0xC8 }
  - { offset: 0x69C46, size: 0x8, addend: 0x0, symName: '__ZN5alloc3vec16Vec$LT$T$C$A$GT$8push_mut17h9039c05ec0ee63afE', symObjAddr: 0x64A0, symBinAddr: 0x10001ED64, symSize: 0xDC }
  - { offset: 0x69EC3, size: 0x8, addend: 0x0, symName: '__ZN5alloc3vec16Vec$LT$T$C$A$GT$8push_mut17ha67c9f20e2c76964E', symObjAddr: 0x657C, symBinAddr: 0x10001EE40, symSize: 0xF4 }
  - { offset: 0x6A128, size: 0x8, addend: 0x0, symName: '__ZN5alloc3vec16Vec$LT$T$C$A$GT$8push_mut17ha82c5a291fcf7824E', symObjAddr: 0x6670, symBinAddr: 0x10001EF34, symSize: 0xF4 }
  - { offset: 0x6A3C1, size: 0x8, addend: 0x0, symName: '__ZN5alloc3vec16Vec$LT$T$C$A$GT$8push_mut17hae44d38d77798da4E', symObjAddr: 0x6764, symBinAddr: 0x10001F028, symSize: 0x100 }
  - { offset: 0x6A659, size: 0x8, addend: 0x0, symName: '__ZN5alloc3vec16Vec$LT$T$C$A$GT$8push_mut17hae91350fb1972cacE', symObjAddr: 0x6864, symBinAddr: 0x10001F128, symSize: 0xCC }
  - { offset: 0x6A8EF, size: 0x8, addend: 0x0, symName: '__ZN5alloc3vec16Vec$LT$T$C$A$GT$8push_mut17hb087f66198c7d2d3E', symObjAddr: 0x6930, symBinAddr: 0x10001F1F4, symSize: 0x108 }
  - { offset: 0x6AB60, size: 0x8, addend: 0x0, symName: '__ZN5alloc3vec16Vec$LT$T$C$A$GT$8push_mut17hbdae21c54bbe0974E', symObjAddr: 0x6A38, symBinAddr: 0x10001F2FC, symSize: 0x108 }
  - { offset: 0x6ADF7, size: 0x8, addend: 0x0, symName: '__ZN5alloc3vec16Vec$LT$T$C$A$GT$8push_mut17he24e40896b5db46eE', symObjAddr: 0x6B40, symBinAddr: 0x10001F404, symSize: 0x108 }
  - { offset: 0x6B08F, size: 0x8, addend: 0x0, symName: '__ZN5alloc3vec16Vec$LT$T$C$A$GT$8push_mut17he4eb40b01423c43cE', symObjAddr: 0x6C48, symBinAddr: 0x10001F50C, symSize: 0xE4 }
  - { offset: 0x6B2BB, size: 0x8, addend: 0x0, symName: '__ZN5alloc3vec16Vec$LT$T$C$A$GT$8truncate17h192e30b971b91a46E', symObjAddr: 0x6D2C, symBinAddr: 0x10001F5F0, symSize: 0x68 }
  - { offset: 0x6B4B8, size: 0x8, addend: 0x0, symName: '__ZN5alloc3vec16Vec$LT$T$C$A$GT$8truncate17h2ff430453f985d04E', symObjAddr: 0x6D94, symBinAddr: 0x10001F658, symSize: 0x68 }
  - { offset: 0x6B6B5, size: 0x8, addend: 0x0, symName: '__ZN5alloc3vec16Vec$LT$T$C$A$GT$8truncate17he71b2006b1831f09E', symObjAddr: 0x6DFC, symBinAddr: 0x10001F6C0, symSize: 0x68 }
  - { offset: 0x6F753, size: 0x8, addend: 0x0, symName: '__ZN82_$LT$gcrust_rt..gc..roots..RootSet$u20$as$u20$gcrust_rt..gc..roots..RootSource$GT$10scan_roots17ha76d25058151de0bE', symObjAddr: 0x0, symBinAddr: 0x100021618, symSize: 0x84 }
  - { offset: 0x7053B, size: 0x8, addend: 0x0, symName: '__ZN9gcrust_rt2gc5roots12ACTIVE_CHAIN29_$u7b$$u7b$constant$u7d$$u7d$28_$u7b$$u7b$closure$u7d$$u7d$23__RUST_STD_INTERNAL_VAL17h53c4f326a84e22deE', symObjAddr: 0x1A0A, symBinAddr: 0x100184A40, symSize: 0x0 }
  - { offset: 0x7055D, size: 0x8, addend: 0x0, symName: '__ZN9gcrust_rt2gc5roots12ACTIVE_CHAIN29_$u7b$$u7b$constant$u7d$$u7d$28_$u7b$$u7b$closure$u7d$$u7d$23__RUST_STD_INTERNAL_VAL17hf4ef8b8af71f6b0aE', symObjAddr: 0x1A22, symBinAddr: 0x100184A58, symSize: 0x0 }
  - { offset: 0x70623, size: 0x8, addend: 0x0, symName: '__ZN82_$LT$gcrust_rt..gc..roots..RootSet$u20$as$u20$gcrust_rt..gc..roots..RootSource$GT$10scan_roots17ha76d25058151de0bE', symObjAddr: 0x0, symBinAddr: 0x100021618, symSize: 0x84 }
  - { offset: 0x7069E, size: 0x8, addend: 0x0, symName: '__ZN85_$LT$gcrust_rt..gc..roots..FrameChain$u20$as$u20$gcrust_rt..gc..roots..RootSource$GT$10scan_roots17h69316e16da1254faE', symObjAddr: 0x84, symBinAddr: 0x10002169C, symSize: 0x190 }
  - { offset: 0x707AC, size: 0x8, addend: 0x0, symName: '__ZN88_$LT$gcrust_rt..gc..roots..AtomicRootSet$u20$as$u20$gcrust_rt..gc..roots..RootSource$GT$10scan_roots17h58f04af5c873ec66E', symObjAddr: 0x214, symBinAddr: 0x10002182C, symSize: 0x110 }
  - { offset: 0x70A16, size: 0x8, addend: 0x0, symName: __ZN9gcrust_rt2gc5roots13install_chain17h3cffcbab389020b0E, symObjAddr: 0x1128, symBinAddr: 0x100022740, symSize: 0x38 }
  - { offset: 0x70BC0, size: 0x8, addend: 0x0, symName: __ZN9gcrust_rt2gc5roots10FrameChain18push_raw_unguarded17h1e1332c1503e6a42E, symObjAddr: 0x324, symBinAddr: 0x10002193C, symSize: 0x8C }
  - { offset: 0x70BF0, size: 0x8, addend: 0x0, symName: __ZN9gcrust_rt2gc5roots10FrameChain3new17h3b7f28dfdd32d503E, symObjAddr: 0x3B0, symBinAddr: 0x1000219C8, symSize: 0x18 }
  - { offset: 0x70C03, size: 0x8, addend: 0x0, symName: __ZN9gcrust_rt2gc5roots10FrameChain5depth17h4d24338a72e7f69bE, symObjAddr: 0x3C8, symBinAddr: 0x1000219E0, symSize: 0xCC }
  - { offset: 0x70C4F, size: 0x8, addend: 0x0, symName: __ZN9gcrust_rt2gc5roots10FrameChain7pop_raw17haa57705fc2f76d5bE, symObjAddr: 0x494, symBinAddr: 0x100021AAC, symSize: 0xB8 }
  - { offset: 0x70C86, size: 0x8, addend: 0x0, symName: __ZN9gcrust_rt2gc5roots10FrameChain8push_raw17h8183072b3423e4c9E, symObjAddr: 0x54C, symBinAddr: 0x100021B64, symSize: 0x90 }
  - { offset: 0x70CB6, size: 0x8, addend: 0x0, symName: __ZN9gcrust_rt2gc5roots11FrameHeader3new17h4fa4ea077b637000E, symObjAddr: 0x5DC, symBinAddr: 0x100021BF4, symSize: 0x2C }
  - { offset: 0x70CE5, size: 0x8, addend: 0x0, symName: __ZN9gcrust_rt2gc5roots12DynRootFrame10header_ptr17h07b227d9fac312a6E, symObjAddr: 0x608, symBinAddr: 0x100021C20, symSize: 0x24 }
  - { offset: 0x70D08, size: 0x8, addend: 0x0, symName: __ZN9gcrust_rt2gc5roots12DynRootFrame10slot_count17h95449350f3727fb8E, symObjAddr: 0x62C, symBinAddr: 0x100021C44, symSize: 0x18 }
  - { offset: 0x70DC9, size: 0x8, addend: 0x0, symName: __ZN9gcrust_rt2gc5roots12DynRootFrame3get17he1793f89e7085b02E, symObjAddr: 0x644, symBinAddr: 0x100021C5C, symSize: 0x11C }
  - { offset: 0x70EB0, size: 0x8, addend: 0x0, symName: __ZN9gcrust_rt2gc5roots12DynRootFrame3new17h82aeaa3853a9ba51E, symObjAddr: 0x760, symBinAddr: 0x100021D78, symSize: 0x170 }
  - { offset: 0x70FD0, size: 0x8, addend: 0x0, symName: __ZN9gcrust_rt2gc5roots12DynRootFrame3set17h010813da0619ad00E, symObjAddr: 0x8D0, symBinAddr: 0x100021EE8, symSize: 0x128 }
  - { offset: 0x710C7, size: 0x8, addend: 0x0, symName: __ZN9gcrust_rt2gc5roots12DynRootFrame4slot17h184229dfed0e3cc6E, symObjAddr: 0x9F8, symBinAddr: 0x100022010, symSize: 0x114 }
  - { offset: 0x7118F, size: 0x8, addend: 0x0, symName: __ZN9gcrust_rt2gc5roots12DynRootFrame9clear_all17h50eace35286fa25cE, symObjAddr: 0xB0C, symBinAddr: 0x100022124, symSize: 0x70 }
  - { offset: 0x711EE, size: 0x8, addend: 0x0, symName: __ZN9gcrust_rt2gc5roots12DynRootFrame9push_onto17h6505f0d56d8407fcE, symObjAddr: 0xB7C, symBinAddr: 0x100022194, symSize: 0x38 }
  - { offset: 0x71270, size: 0x8, addend: 0x0, symName: __ZN9gcrust_rt2gc5roots13AtomicRootSet3add17h79253bafa805fb94E, symObjAddr: 0xBB4, symBinAddr: 0x1000221CC, symSize: 0x1FC }
  - { offset: 0x71313, size: 0x8, addend: 0x0, symName: __ZN9gcrust_rt2gc5roots13AtomicRootSet3get17hc4d197a7012c4e0cE, symObjAddr: 0xDB0, symBinAddr: 0x1000223C8, symSize: 0x14C }
  - { offset: 0x71395, size: 0x8, addend: 0x0, symName: __ZN9gcrust_rt2gc5roots13AtomicRootSet3len17h976296b2019b7089E, symObjAddr: 0xEFC, symBinAddr: 0x100022514, symSize: 0x28 }
  - { offset: 0x713B8, size: 0x8, addend: 0x0, symName: __ZN9gcrust_rt2gc5roots13AtomicRootSet3new17h74530933377406b6E, symObjAddr: 0xF24, symBinAddr: 0x10002253C, symSize: 0x88 }
  - { offset: 0x713CB, size: 0x8, addend: 0x0, symName: __ZN9gcrust_rt2gc5roots13AtomicRootSet3set17h38c2f37f9fa6ce2eE, symObjAddr: 0xFAC, symBinAddr: 0x1000225C4, symSize: 0x150 }
  - { offset: 0x7145E, size: 0x8, addend: 0x0, symName: __ZN9gcrust_rt2gc5roots13AtomicRootSet8is_empty17h03d1284f75937da0E, symObjAddr: 0x10FC, symBinAddr: 0x100022714, symSize: 0x2C }
  - { offset: 0x7148E, size: 0x8, addend: 0x0, symName: __ZN9gcrust_rt2gc5roots7RootSet3add17h8f9ee40d503e1078E, symObjAddr: 0x1160, symBinAddr: 0x100022778, symSize: 0x54 }
  - { offset: 0x714EB, size: 0x8, addend: 0x0, symName: __ZN9gcrust_rt2gc5roots7RootSet3get17h9a0d7863a6b9a9a1E, symObjAddr: 0x11B4, symBinAddr: 0x1000227CC, symSize: 0x34 }
  - { offset: 0x7151D, size: 0x8, addend: 0x0, symName: __ZN9gcrust_rt2gc5roots7RootSet3len17he53f90cc4530b42fE, symObjAddr: 0x11E8, symBinAddr: 0x100022800, symSize: 0x24 }
  - { offset: 0x71540, size: 0x8, addend: 0x0, symName: __ZN9gcrust_rt2gc5roots7RootSet3new17h16c91c042cc4c596E, symObjAddr: 0x120C, symBinAddr: 0x100022824, symSize: 0x38 }
  - { offset: 0x71553, size: 0x8, addend: 0x0, symName: __ZN9gcrust_rt2gc5roots7RootSet3set17hc374e8f072c6dd08E, symObjAddr: 0x1244, symBinAddr: 0x10002285C, symSize: 0x40 }
  - { offset: 0x71594, size: 0x8, addend: 0x0, symName: __ZN9gcrust_rt2gc5roots7RootSet8is_empty17h692378686f6e8555E, symObjAddr: 0x1284, symBinAddr: 0x10002289C, symSize: 0x24 }
  - { offset: 0x715D1, size: 0x8, addend: 0x0, symName: __ZN9gcrust_rt2gc5roots9RootScope3new17h2adb354b62499fb9E, symObjAddr: 0x12A8, symBinAddr: 0x1000228C0, symSize: 0x1CC }
  - { offset: 0x71677, size: 0x8, addend: 0x0, symName: __ZN9gcrust_rt2gc5roots9RootScope4used17haaa41b886bdb07dbE, symObjAddr: 0x1474, symBinAddr: 0x100022A8C, symSize: 0x24 }
  - { offset: 0x7169A, size: 0x8, addend: 0x0, symName: __ZN9gcrust_rt2gc5roots9RootScope8capacity17hb6bd66cb1d485c71E, symObjAddr: 0x1498, symBinAddr: 0x100022AB0, symSize: 0x74 }
  - { offset: 0x717FB, size: 0x8, addend: 0x0, symName: __ZN4core5slice4sort6stable14driftsort_main17h1573200dbbcf6061E, symObjAddr: 0x0, symBinAddr: 0x100022B24, symSize: 0x1EC }
  - { offset: 0x71C6F, size: 0x8, addend: 0x0, symName: __ZN4core5slice4sort6stable14driftsort_main17h1573200dbbcf6061E, symObjAddr: 0x0, symBinAddr: 0x100022B24, symSize: 0x1EC }
  - { offset: 0x71E75, size: 0x8, addend: 0x0, symName: __ZN4core5slice4sort6stable14driftsort_main17h2ca8c4a7a47fa370E, symObjAddr: 0x1EC, symBinAddr: 0x100022D10, symSize: 0x1EC }
  - { offset: 0x72019, size: 0x8, addend: 0x0, symName: __ZN4core5slice4sort6stable14driftsort_main17hd22fa60c99b6a8aaE, symObjAddr: 0x3D8, symBinAddr: 0x100022EFC, symSize: 0x1EC }
  - { offset: 0x7221F, size: 0x8, addend: 0x0, symName: __ZN4core5slice4sort6stable14driftsort_main17hd30fb23955f4903eE, symObjAddr: 0x5C4, symBinAddr: 0x1000230E8, symSize: 0x1EC }
  - { offset: 0x72425, size: 0x8, addend: 0x0, symName: __ZN4core5slice4sort6stable14driftsort_main17hdf25284548c1a689E, symObjAddr: 0x7B0, symBinAddr: 0x1000232D4, symSize: 0x1EC }
  - { offset: 0x7262B, size: 0x8, addend: 0x0, symName: __ZN4core5slice4sort6stable14driftsort_main17he568457ee1b4d8fbE, symObjAddr: 0x99C, symBinAddr: 0x1000234C0, symSize: 0x1EC }
  - { offset: 0x73410, size: 0x8, addend: 0x0, symName: '__ZN4core5slice4sort6stable27AlignedStorage$LT$T$C$_$GT$19as_uninit_slice_mut17h137b678258dc9b2cE', symObjAddr: 0xB88, symBinAddr: 0x1000236AC, symSize: 0x84 }
  - { offset: 0x734F8, size: 0x8, addend: 0x0, symName: '__ZN4core5slice4sort6stable27AlignedStorage$LT$T$C$_$GT$19as_uninit_slice_mut17h1a96419eb05a14d6E', symObjAddr: 0xC0C, symBinAddr: 0x100023730, symSize: 0x84 }
  - { offset: 0x735E0, size: 0x8, addend: 0x0, symName: '__ZN4core5slice4sort6stable27AlignedStorage$LT$T$C$_$GT$19as_uninit_slice_mut17h730037282335e380E', symObjAddr: 0xC90, symBinAddr: 0x1000237B4, symSize: 0x84 }
  - { offset: 0x736C8, size: 0x8, addend: 0x0, symName: '__ZN4core5slice4sort6stable27AlignedStorage$LT$T$C$_$GT$19as_uninit_slice_mut17h9d37ff4c710d34fdE', symObjAddr: 0xD14, symBinAddr: 0x100023838, symSize: 0x84 }
  - { offset: 0x737B0, size: 0x8, addend: 0x0, symName: '__ZN4core5slice4sort6stable27AlignedStorage$LT$T$C$_$GT$19as_uninit_slice_mut17ha25f14fb2a941a83E', symObjAddr: 0xD98, symBinAddr: 0x1000238BC, symSize: 0x84 }
  - { offset: 0x739DB, size: 0x8, addend: 0x0, symName: '__ZN185_$LT$core..ops..control_flow..ControlFlow$LT$B$C$C$GT$$u20$as$u20$core..ops..try_trait..FromResidual$LT$core..ops..control_flow..ControlFlow$LT$B$C$core..convert..Infallible$GT$$GT$$GT$13from_residual17h0485aa53c3827a30E', symObjAddr: 0x0, symBinAddr: 0x100023940, symSize: 0x14 }
  - { offset: 0x739FC, size: 0x8, addend: 0x0, symName: '__ZN185_$LT$core..ops..control_flow..ControlFlow$LT$B$C$C$GT$$u20$as$u20$core..ops..try_trait..FromResidual$LT$core..ops..control_flow..ControlFlow$LT$B$C$core..convert..Infallible$GT$$GT$$GT$13from_residual17h0485aa53c3827a30E', symObjAddr: 0x0, symBinAddr: 0x100023940, symSize: 0x14 }
  - { offset: 0x73A3A, size: 0x8, addend: 0x0, symName: '__ZN185_$LT$core..ops..control_flow..ControlFlow$LT$B$C$C$GT$$u20$as$u20$core..ops..try_trait..FromResidual$LT$core..ops..control_flow..ControlFlow$LT$B$C$core..convert..Infallible$GT$$GT$$GT$13from_residual17h15f7708fad9d8bdcE', symObjAddr: 0x14, symBinAddr: 0x100023954, symSize: 0x2C }
  - { offset: 0x73A78, size: 0x8, addend: 0x0, symName: '__ZN185_$LT$core..ops..control_flow..ControlFlow$LT$B$C$C$GT$$u20$as$u20$core..ops..try_trait..FromResidual$LT$core..ops..control_flow..ControlFlow$LT$B$C$core..convert..Infallible$GT$$GT$$GT$13from_residual17h4f16f56ce82ddabeE', symObjAddr: 0x40, symBinAddr: 0x100023980, symSize: 0x1C }
  - { offset: 0x73ABC, size: 0x8, addend: 0x0, symName: '__ZN90_$LT$core..ops..control_flow..ControlFlow$LT$B$C$C$GT$$u20$as$u20$core..cmp..PartialEq$GT$2eq17hfb5171684ea5a7b1E', symObjAddr: 0x5C, symBinAddr: 0x10002399C, symSize: 0xCC }
  - { offset: 0x73BB8, size: 0x8, addend: 0x0, symName: '__ZN95_$LT$core..ops..control_flow..ControlFlow$LT$B$C$C$GT$$u20$as$u20$core..ops..try_trait..Try$GT$11from_output17h01998031eda85416E', symObjAddr: 0x128, symBinAddr: 0x100023A68, symSize: 0x10 }
  - { offset: 0x73BF6, size: 0x8, addend: 0x0, symName: '__ZN95_$LT$core..ops..control_flow..ControlFlow$LT$B$C$C$GT$$u20$as$u20$core..ops..try_trait..Try$GT$11from_output17h2511c01f328a0772E', symObjAddr: 0x138, symBinAddr: 0x100023A78, symSize: 0x10 }
  - { offset: 0x73C34, size: 0x8, addend: 0x0, symName: '__ZN95_$LT$core..ops..control_flow..ControlFlow$LT$B$C$C$GT$$u20$as$u20$core..ops..try_trait..Try$GT$11from_output17hab42f83b0bb0c7fbE', symObjAddr: 0x148, symBinAddr: 0x100023A88, symSize: 0x14 }
  - { offset: 0x73C72, size: 0x8, addend: 0x0, symName: '__ZN95_$LT$core..ops..control_flow..ControlFlow$LT$B$C$C$GT$$u20$as$u20$core..ops..try_trait..Try$GT$6branch17h9ea67b0bdb47b86bE', symObjAddr: 0x15C, symBinAddr: 0x100023A9C, symSize: 0x58 }
  - { offset: 0x73CEB, size: 0x8, addend: 0x0, symName: '__ZN95_$LT$core..ops..control_flow..ControlFlow$LT$B$C$C$GT$$u20$as$u20$core..ops..try_trait..Try$GT$6branch17ha6af739c24b45a8aE', symObjAddr: 0x1B4, symBinAddr: 0x100023AF4, symSize: 0x48 }
  - { offset: 0x73D63, size: 0x8, addend: 0x0, symName: '__ZN95_$LT$core..ops..control_flow..ControlFlow$LT$B$C$C$GT$$u20$as$u20$core..ops..try_trait..Try$GT$6branch17he606661d3408645fE', symObjAddr: 0x1FC, symBinAddr: 0x100023B3C, symSize: 0x38 }
  - { offset: 0x74330, size: 0x8, addend: 0x0, symName: '__ZN4core4iter8adapters7step_by15StepBy$LT$I$GT$3new17he083fc30acd5bf67E', symObjAddr: 0x0, symBinAddr: 0x100023B74, symSize: 0xE0 }
  - { offset: 0x743F2, size: 0x8, addend: 0x0, symName: '__ZN4core4iter8adapters7step_by15StepBy$LT$I$GT$3new17he083fc30acd5bf67E', symObjAddr: 0x0, symBinAddr: 0x100023B74, symSize: 0xE0 }
  - { offset: 0x74466, size: 0x8, addend: 0x0, symName: __ZN4core5slice20copy_from_slice_impl17h48d798e24c2b2eb9E, symObjAddr: 0x0, symBinAddr: 0x100023C54, symSize: 0xAC }
  - { offset: 0x745E8, size: 0x8, addend: 0x0, symName: '__ZN4core5slice29_$LT$impl$u20$$u5b$T$u5d$$GT$12split_at_mut17h4b13c9ff1571bf18E', symObjAddr: 0xAC, symBinAddr: 0x100023D00, symSize: 0xAC }
  - { offset: 0x7467F, size: 0x8, addend: 0x0, symName: '__ZN4core5slice29_$LT$impl$u20$$u5b$T$u5d$$GT$12split_at_mut17h4bd0c42cf6a4b74fE', symObjAddr: 0x158, symBinAddr: 0x100023DAC, symSize: 0xAC }
  - { offset: 0x74716, size: 0x8, addend: 0x0, symName: '__ZN4core5slice29_$LT$impl$u20$$u5b$T$u5d$$GT$12split_at_mut17h9e9590275d77a518E', symObjAddr: 0x204, symBinAddr: 0x100023E58, symSize: 0xAC }
  - { offset: 0x7477A, size: 0x8, addend: 0x0, symName: '__ZN4core5slice29_$LT$impl$u20$$u5b$T$u5d$$GT$13sort_unstable17h9d357082ccb85c52E', symObjAddr: 0x2B0, symBinAddr: 0x100023F04, symSize: 0xA8 }
  - { offset: 0x74827, size: 0x8, addend: 0x0, symName: '__ZN4core5slice29_$LT$impl$u20$$u5b$T$u5d$$GT$13sort_unstable17hb7830380dffa0c0eE', symObjAddr: 0x358, symBinAddr: 0x100023FAC, symSize: 0xA8 }
  - { offset: 0x748FB, size: 0x8, addend: 0x0, symName: '__ZN4core5slice29_$LT$impl$u20$$u5b$T$u5d$$GT$14swap_unchecked17h34d02534b715a21dE', symObjAddr: 0x400, symBinAddr: 0x100024054, symSize: 0x74 }
  - { offset: 0x749FB, size: 0x8, addend: 0x0, symName: '__ZN4core5slice29_$LT$impl$u20$$u5b$T$u5d$$GT$14swap_unchecked17hf714b371a5240fa8E', symObjAddr: 0x474, symBinAddr: 0x1000240C8, symSize: 0x74 }
  - { offset: 0x74AD4, size: 0x8, addend: 0x0, symName: '__ZN4core5slice29_$LT$impl$u20$$u5b$T$u5d$$GT$15copy_from_slice17hf17472a9e6057db4E', symObjAddr: 0x4E8, symBinAddr: 0x10002413C, symSize: 0x34 }
  - { offset: 0x74B3D, size: 0x8, addend: 0x0, symName: '__ZN4core5slice29_$LT$impl$u20$$u5b$T$u5d$$GT$22split_at_mut_unchecked17h38acad92e8c6bb37E', symObjAddr: 0x51C, symBinAddr: 0x100024170, symSize: 0xE8 }
  - { offset: 0x74C76, size: 0x8, addend: 0x0, symName: '__ZN4core5slice29_$LT$impl$u20$$u5b$T$u5d$$GT$22split_at_mut_unchecked17h6dee8bb664b427e4E', symObjAddr: 0x604, symBinAddr: 0x100024258, symSize: 0xE8 }
  - { offset: 0x74DAF, size: 0x8, addend: 0x0, symName: '__ZN4core5slice29_$LT$impl$u20$$u5b$T$u5d$$GT$22split_at_mut_unchecked17h78febe97260ea059E', symObjAddr: 0x6EC, symBinAddr: 0x100024340, symSize: 0xF0 }
  - { offset: 0x74EC1, size: 0x8, addend: 0x0, symName: '__ZN4core5slice29_$LT$impl$u20$$u5b$T$u5d$$GT$4iter17h4b85ab559bcdbb5dE', symObjAddr: 0x7DC, symBinAddr: 0x100024430, symSize: 0x28 }
  - { offset: 0x74EF8, size: 0x8, addend: 0x0, symName: '__ZN4core5slice29_$LT$impl$u20$$u5b$T$u5d$$GT$4iter17h5f05b7305d4e0376E', symObjAddr: 0x804, symBinAddr: 0x100024458, symSize: 0x28 }
  - { offset: 0x74F2F, size: 0x8, addend: 0x0, symName: '__ZN4core5slice29_$LT$impl$u20$$u5b$T$u5d$$GT$4iter17h75566de81a6db1ddE', symObjAddr: 0x82C, symBinAddr: 0x100024480, symSize: 0x28 }
  - { offset: 0x74F66, size: 0x8, addend: 0x0, symName: '__ZN4core5slice29_$LT$impl$u20$$u5b$T$u5d$$GT$4iter17h8ab3bf5767e1d480E', symObjAddr: 0x854, symBinAddr: 0x1000244A8, symSize: 0x28 }
  - { offset: 0x74F9D, size: 0x8, addend: 0x0, symName: '__ZN4core5slice29_$LT$impl$u20$$u5b$T$u5d$$GT$4iter17hf2c199448842dc60E', symObjAddr: 0x87C, symBinAddr: 0x1000244D0, symSize: 0x28 }
  - { offset: 0x74FD4, size: 0x8, addend: 0x0, symName: '__ZN4core5slice29_$LT$impl$u20$$u5b$T$u5d$$GT$4last17h9336af6af037c529E', symObjAddr: 0x8A4, symBinAddr: 0x1000244F8, symSize: 0x50 }
  - { offset: 0x7506F, size: 0x8, addend: 0x0, symName: '__ZN4core5slice29_$LT$impl$u20$$u5b$T$u5d$$GT$7reverse17h764d2602ea3d040cE', symObjAddr: 0x8F4, symBinAddr: 0x100024548, symSize: 0xF8 }
  - { offset: 0x75249, size: 0x8, addend: 0x0, symName: '__ZN4core5slice29_$LT$impl$u20$$u5b$T$u5d$$GT$7reverse17hf93f5014db7e734fE', symObjAddr: 0x9EC, symBinAddr: 0x100024640, symSize: 0xF0 }
  - { offset: 0x75423, size: 0x8, addend: 0x0, symName: '__ZN4core5slice29_$LT$impl$u20$$u5b$T$u5d$$GT$7reverse17hfc37a3dc624b6955E', symObjAddr: 0xADC, symBinAddr: 0x100024730, symSize: 0xF0 }
  - { offset: 0x755B4, size: 0x8, addend: 0x0, symName: '__ZN4core5slice29_$LT$impl$u20$$u5b$T$u5d$$GT$7reverse7revswap17h47971c16907c3e2fE', symObjAddr: 0xBCC, symBinAddr: 0x100024820, symSize: 0x1AC }
  - { offset: 0x75674, size: 0x8, addend: 0x0, symName: '__ZN4core5slice29_$LT$impl$u20$$u5b$T$u5d$$GT$7reverse7revswap17h4991401d49e694edE', symObjAddr: 0xD78, symBinAddr: 0x1000249CC, symSize: 0x1AC }
  - { offset: 0x75734, size: 0x8, addend: 0x0, symName: '__ZN4core5slice29_$LT$impl$u20$$u5b$T$u5d$$GT$7reverse7revswap17h6551dd52337ab473E', symObjAddr: 0xF24, symBinAddr: 0x100024B78, symSize: 0x1AC }
  - { offset: 0x757F5, size: 0x8, addend: 0x0, symName: '__ZN4core5slice29_$LT$impl$u20$$u5b$T$u5d$$GT$7reverse7revswap17h6b99d88af4aa5cd2E', symObjAddr: 0x10D0, symBinAddr: 0x100024D24, symSize: 0x188 }
  - { offset: 0x758B2, size: 0x8, addend: 0x0, symName: '__ZN4core5slice29_$LT$impl$u20$$u5b$T$u5d$$GT$7reverse7revswap17h8ffdd056e313abbeE', symObjAddr: 0x1258, symBinAddr: 0x100024EAC, symSize: 0x174 }
  - { offset: 0x7596F, size: 0x8, addend: 0x0, symName: '__ZN4core5slice29_$LT$impl$u20$$u5b$T$u5d$$GT$7reverse7revswap17hd53666be313b2ceeE', symObjAddr: 0x13CC, symBinAddr: 0x100025020, symSize: 0x174 }
  - { offset: 0x75A2C, size: 0x8, addend: 0x0, symName: '__ZN4core5slice29_$LT$impl$u20$$u5b$T$u5d$$GT$7reverse7revswap17hdeeccaf3e40a2582E', symObjAddr: 0x1540, symBinAddr: 0x100025194, symSize: 0x188 }
  - { offset: 0x75AEA, size: 0x8, addend: 0x0, symName: '__ZN4core5slice29_$LT$impl$u20$$u5b$T$u5d$$GT$8last_mut17h399b6cb72973de5fE', symObjAddr: 0x16C8, symBinAddr: 0x10002531C, symSize: 0x50 }
  - { offset: 0x75B38, size: 0x8, addend: 0x0, symName: __ZN4core5slice20copy_from_slice_impl17h48d798e24c2b2eb9E, symObjAddr: 0x0, symBinAddr: 0x100023C54, symSize: 0xAC }
  - { offset: 0x76E38, size: 0x8, addend: 0x0, symName: '__ZN5alloc3str56_$LT$impl$u20$alloc..borrow..ToOwned$u20$for$u20$str$GT$8to_owned17h1a02a18433ca1401E', symObjAddr: 0x0, symBinAddr: 0x10002536C, symSize: 0x50 }
  - { offset: 0x770EE, size: 0x8, addend: 0x0, symName: '__ZN5alloc3str56_$LT$impl$u20$alloc..borrow..ToOwned$u20$for$u20$str$GT$8to_owned17h1a02a18433ca1401E', symObjAddr: 0x0, symBinAddr: 0x10002536C, symSize: 0x50 }
  - { offset: 0x771F6, size: 0x8, addend: 0x0, symName: '__ZN3std3sys12thread_local6native4lazy20Storage$LT$T$C$D$GT$11get_or_init17he6e86231191dd443E', symObjAddr: 0x0, symBinAddr: 0x1000253BC, symSize: 0x94 }
  - { offset: 0x7785B, size: 0x8, addend: 0x0, symName: '__ZN78_$LT$$u21$$u20$as$u20$std..sys..thread_local..native..lazy..DestroyedState$GT$13register_dtor17h35ea7d3644ba6ae0E', symObjAddr: 0x278, symBinAddr: 0x100025450, symSize: 0x10 }
  - { offset: 0x77960, size: 0x8, addend: 0x0, symName: '__ZN3std3sys12thread_local6native4lazy20Storage$LT$T$C$D$GT$11get_or_init17he6e86231191dd443E', symObjAddr: 0x0, symBinAddr: 0x1000253BC, symSize: 0x94 }
  - { offset: 0x77BC1, size: 0x8, addend: 0x0, symName: '__ZN3std3sys12thread_local6native4lazy20Storage$LT$T$C$D$GT$16get_or_init_slow17hf966cb042f337d17E', symObjAddr: 0x94, symBinAddr: 0x1001052B8, symSize: 0x1E4 }
  - { offset: 0x77EB2, size: 0x8, addend: 0x0, symName: __ZN4core3mem9alignment9Alignment13new_unchecked18precondition_check17h27ad023e44792016E, symObjAddr: 0x0, symBinAddr: 0x100025460, symSize: 0x70 }
  - { offset: 0x77F1E, size: 0x8, addend: 0x0, symName: __ZN4core3mem9alignment9Alignment13new_unchecked18precondition_check17h27ad023e44792016E, symObjAddr: 0x0, symBinAddr: 0x100025460, symSize: 0x70 }
  - { offset: 0x78004, size: 0x8, addend: 0x0, symName: '__ZN4core3ptr9const_ptr33_$LT$impl$u20$$BP$const$u20$T$GT$6as_ref17h0ed42dcda94bc758E', symObjAddr: 0x0, symBinAddr: 0x1000254D0, symSize: 0x34 }
  - { offset: 0x7881F, size: 0x8, addend: 0x0, symName: '__ZN4core3ptr9const_ptr33_$LT$impl$u20$$BP$const$u20$T$GT$6as_ref17h0ed42dcda94bc758E', symObjAddr: 0x0, symBinAddr: 0x1000254D0, symSize: 0x34 }
  - { offset: 0x7967C, size: 0x8, addend: 0x0, symName: '__ZN4core4cell13Cell$LT$T$GT$3get17h01619c551e30bee1E', symObjAddr: 0x34, symBinAddr: 0x100025504, symSize: 0x18 }
  - { offset: 0x796B5, size: 0x8, addend: 0x0, symName: '__ZN4core4cell13Cell$LT$T$GT$3get17h081b12b732c43565E', symObjAddr: 0x4C, symBinAddr: 0x10002551C, symSize: 0x18 }
  - { offset: 0x796F5, size: 0x8, addend: 0x0, symName: '__ZN4core4cell13Cell$LT$T$GT$3get17h2195451a0ceebb94E', symObjAddr: 0x64, symBinAddr: 0x100025534, symSize: 0x18 }
  - { offset: 0x7972E, size: 0x8, addend: 0x0, symName: '__ZN4core4cell13Cell$LT$T$GT$3get17hbda7b30a0c31ff31E', symObjAddr: 0x7C, symBinAddr: 0x10002554C, symSize: 0x18 }
  - { offset: 0x7A6FB, size: 0x8, addend: 0x0, symName: '__ZN4core4cell13Cell$LT$T$GT$3get17hd25f9c3f67b251cfE', symObjAddr: 0x94, symBinAddr: 0x100025564, symSize: 0x18 }
  - { offset: 0x7A727, size: 0x8, addend: 0x0, symName: '__ZN4core4cell13Cell$LT$T$GT$3new17h7007ce72e63be820E', symObjAddr: 0xAC, symBinAddr: 0x10002557C, symSize: 0x14 }
  - { offset: 0x7A753, size: 0x8, addend: 0x0, symName: '__ZN4core4cell13Cell$LT$T$GT$3new17hbd378a55d3448f60E', symObjAddr: 0xC0, symBinAddr: 0x100025590, symSize: 0x10 }
  - { offset: 0x7A77F, size: 0x8, addend: 0x0, symName: '__ZN4core4cell13Cell$LT$T$GT$3new17hf1b72825c2a148d5E', symObjAddr: 0xD0, symBinAddr: 0x1000255A0, symSize: 0x10 }
  - { offset: 0x7A7D3, size: 0x8, addend: 0x0, symName: '__ZN4core4cell13Cell$LT$T$GT$3set17h1e54a3c121cf6294E', symObjAddr: 0xE0, symBinAddr: 0x1000255B0, symSize: 0x20 }
  - { offset: 0x7A871, size: 0x8, addend: 0x0, symName: '__ZN4core4cell13Cell$LT$T$GT$3set17h2d2dfaaf02f8f728E', symObjAddr: 0x100, symBinAddr: 0x1000255D0, symSize: 0x1C }
  - { offset: 0x7A90F, size: 0x8, addend: 0x0, symName: '__ZN4core4cell13Cell$LT$T$GT$3set17habf02dd4af8b56adE', symObjAddr: 0x11C, symBinAddr: 0x1000255EC, symSize: 0x20 }
  - { offset: 0x7A9AD, size: 0x8, addend: 0x0, symName: '__ZN4core4cell13Cell$LT$T$GT$3set17hb73c7a41d1513ef5E', symObjAddr: 0x13C, symBinAddr: 0x10002560C, symSize: 0x20 }
  - { offset: 0x7AA4B, size: 0x8, addend: 0x0, symName: '__ZN4core4cell13Cell$LT$T$GT$3set17hc92372b82967189fE', symObjAddr: 0x15C, symBinAddr: 0x10002562C, symSize: 0x1C }
  - { offset: 0x7AACE, size: 0x8, addend: 0x0, symName: '__ZN4core4cell13Cell$LT$T$GT$6as_ptr17h2c5afc64e07c919cE', symObjAddr: 0x178, symBinAddr: 0x100025648, symSize: 0x14 }
  - { offset: 0x7AB25, size: 0x8, addend: 0x0, symName: __ZN3std2io5Write9write_all17hfdd23bafd7456b15E, symObjAddr: 0x0, symBinAddr: 0x10002565C, symSize: 0x248 }
  - { offset: 0x7AEB2, size: 0x8, addend: 0x0, symName: __ZN3std2io5Write9write_all17hfdd23bafd7456b15E, symObjAddr: 0x0, symBinAddr: 0x10002565C, symSize: 0x248 }
  - { offset: 0x7B098, size: 0x8, addend: 0x0, symName: __ZN3std2io5Write9write_fmt17hb4d7262826484af1E, symObjAddr: 0x248, symBinAddr: 0x1000258A4, symSize: 0x8C }
  - { offset: 0x7B751, size: 0x8, addend: 0x0, symName: __ZN4core3str11validations15next_code_point17h46a8ff69daf8afe1E, symObjAddr: 0x0, symBinAddr: 0x100025930, symSize: 0x224 }
  - { offset: 0x7B7BC, size: 0x8, addend: 0x0, symName: __ZN4core3str11validations15next_code_point17h46a8ff69daf8afe1E, symObjAddr: 0x0, symBinAddr: 0x100025930, symSize: 0x224 }
  - { offset: 0x7BA72, size: 0x8, addend: 0x0, symName: __ZN4core3str11validations23next_code_point_reverse17haf525d02176e1d98E, symObjAddr: 0x224, symBinAddr: 0x100025B54, symSize: 0x22C }
  - { offset: 0x7C221, size: 0x8, addend: 0x0, symName: '__ZN45_$LT$$LP$$RP$$u20$as$u20$core..fmt..Debug$GT$3fmt17he892ab26decea394E', symObjAddr: 0x0, symBinAddr: 0x100025D80, symSize: 0x40 }
  - { offset: 0x7C23D, size: 0x8, addend: 0x0, symName: '__ZN45_$LT$$LP$$RP$$u20$as$u20$core..fmt..Debug$GT$3fmt17he892ab26decea394E', symObjAddr: 0x0, symBinAddr: 0x100025D80, symSize: 0x40 }
  - { offset: 0x7C3C7, size: 0x8, addend: 0x0, symName: '__ZN53_$LT$core..fmt..Error$u20$as$u20$core..fmt..Debug$GT$3fmt17hf08623e7037aead2E', symObjAddr: 0x164, symBinAddr: 0x100025EE4, symSize: 0x40 }
  - { offset: 0x7C77B, size: 0x8, addend: 0x0, symName: __ZN4core3fmt9Arguments23as_statically_known_str17h7837f3a166bf69aaE, symObjAddr: 0x40, symBinAddr: 0x100025DC0, symSize: 0x104 }
  - { offset: 0x7C855, size: 0x8, addend: 0x0, symName: __ZN4core3fmt9Arguments8from_str17haaa0b9b438de27a3E, symObjAddr: 0x144, symBinAddr: 0x100025EC4, symSize: 0x20 }
  - { offset: 0x7C8A3, size: 0x8, addend: 0x0, symName: '__ZN115_$LT$core..iter..adapters..filter_map..FilterMap$LT$I$C$F$GT$$u20$as$u20$core..iter..traits..iterator..Iterator$GT$4next17h1146ffc9262b2425E', symObjAddr: 0x0, symBinAddr: 0x100025F24, symSize: 0x2C }
  - { offset: 0x7C8C9, size: 0x8, addend: 0x0, symName: '__ZN115_$LT$core..iter..adapters..filter_map..FilterMap$LT$I$C$F$GT$$u20$as$u20$core..iter..traits..iterator..Iterator$GT$4next17h1146ffc9262b2425E', symObjAddr: 0x0, symBinAddr: 0x100025F24, symSize: 0x2C }
  - { offset: 0x7C910, size: 0x8, addend: 0x0, symName: '__ZN115_$LT$core..iter..adapters..filter_map..FilterMap$LT$I$C$F$GT$$u20$as$u20$core..iter..traits..iterator..Iterator$GT$4next17h1a9031521d082667E', symObjAddr: 0x2C, symBinAddr: 0x100025F50, symSize: 0x2C }
  - { offset: 0x7C957, size: 0x8, addend: 0x0, symName: '__ZN115_$LT$core..iter..adapters..filter_map..FilterMap$LT$I$C$F$GT$$u20$as$u20$core..iter..traits..iterator..Iterator$GT$9size_hint17hc6e6089a61a72f3bE', symObjAddr: 0x58, symBinAddr: 0x100025F7C, symSize: 0x4C }
  - { offset: 0x7CA63, size: 0x8, addend: 0x0, symName: __ZN4core4iter6traits8iterator8Iterator7collect17hf3cb06681a2eb9b8E, symObjAddr: 0xA4, symBinAddr: 0x100025FC8, symSize: 0x2C }
  - { offset: 0x7CAAF, size: 0x8, addend: 0x0, symName: '__ZN63_$LT$I$u20$as$u20$core..iter..traits..collect..IntoIterator$GT$9into_iter17h2d0869dfbdbd358fE', symObjAddr: 0xD0, symBinAddr: 0x100025FF4, symSize: 0x14 }
  - { offset: 0x7CAE6, size: 0x8, addend: 0x0, symName: '__ZN63_$LT$I$u20$as$u20$core..iter..traits..collect..IntoIterator$GT$9into_iter17h4e4d67f6f5912896E', symObjAddr: 0xE4, symBinAddr: 0x100026008, symSize: 0x1C }
  - { offset: 0x7D89D, size: 0x8, addend: 0x0, symName: '__ZN55_$LT$$RF$T$u20$as$u20$core..convert..AsRef$LT$U$GT$$GT$6as_ref17h5cfeaa07b69c58ffE', symObjAddr: 0x0, symBinAddr: 0x100026024, symSize: 0x28 }
  - { offset: 0x7D8B9, size: 0x8, addend: 0x0, symName: '__ZN55_$LT$$RF$T$u20$as$u20$core..convert..AsRef$LT$U$GT$$GT$6as_ref17h5cfeaa07b69c58ffE', symObjAddr: 0x0, symBinAddr: 0x100026024, symSize: 0x28 }
  - { offset: 0x7DB58, size: 0x8, addend: 0x0, symName: '__ZN106_$LT$core..slice..iter..Iter$LT$T$GT$$u20$as$u20$core..iter..traits..double_ended..DoubleEndedIterator$GT$9next_back17h2f69fb86c28b01a2E', symObjAddr: 0x0, symBinAddr: 0x10002604C, symSize: 0xE8 }
  - { offset: 0x7E34C, size: 0x8, addend: 0x0, symName: '__ZN106_$LT$core..slice..iter..Iter$LT$T$GT$$u20$as$u20$core..iter..traits..double_ended..DoubleEndedIterator$GT$9next_back17h2f69fb86c28b01a2E', symObjAddr: 0x0, symBinAddr: 0x10002604C, symSize: 0xE8 }
  - { offset: 0x7E4AF, size: 0x8, addend: 0x0, symName: '__ZN106_$LT$core..slice..iter..Iter$LT$T$GT$$u20$as$u20$core..iter..traits..double_ended..DoubleEndedIterator$GT$9next_back17h5cb213ced2e39ec6E', symObjAddr: 0xE8, symBinAddr: 0x100026134, symSize: 0xE8 }
  - { offset: 0x7EC41, size: 0x8, addend: 0x0, symName: '__ZN4core5slice4iter87_$LT$impl$u20$core..iter..traits..collect..IntoIterator$u20$for$u20$$RF$$u5b$T$u5d$$GT$9into_iter17h037335eb56d7066fE', symObjAddr: 0xEC4, symBinAddr: 0x100026F10, symSize: 0x50 }
  - { offset: 0x7ED7E, size: 0x8, addend: 0x0, symName: '__ZN4core5slice4iter87_$LT$impl$u20$core..iter..traits..collect..IntoIterator$u20$for$u20$$RF$$u5b$T$u5d$$GT$9into_iter17h33d3c7ed23d2c181E', symObjAddr: 0xF14, symBinAddr: 0x100026F60, symSize: 0x50 }
  - { offset: 0x7EF64, size: 0x8, addend: 0x0, symName: '__ZN91_$LT$core..slice..iter..Iter$LT$T$GT$$u20$as$u20$core..iter..traits..iterator..Iterator$GT$4find17h179872399498958cE', symObjAddr: 0x101C, symBinAddr: 0x100027068, symSize: 0xE4 }
  - { offset: 0x7F08D, size: 0x8, addend: 0x0, symName: '__ZN91_$LT$core..slice..iter..Iter$LT$T$GT$$u20$as$u20$core..iter..traits..iterator..Iterator$GT$4find17h5e794a5ccd769ef8E', symObjAddr: 0x1100, symBinAddr: 0x10002714C, symSize: 0xE4 }
  - { offset: 0x7F1B6, size: 0x8, addend: 0x0, symName: '__ZN91_$LT$core..slice..iter..Iter$LT$T$GT$$u20$as$u20$core..iter..traits..iterator..Iterator$GT$4find17h63e2dbe6dea8258fE', symObjAddr: 0x11E4, symBinAddr: 0x100027230, symSize: 0xE4 }
  - { offset: 0x7F290, size: 0x8, addend: 0x0, symName: '__ZN91_$LT$core..slice..iter..Iter$LT$T$GT$$u20$as$u20$core..iter..traits..iterator..Iterator$GT$4fold17h3add462e02b11adcE', symObjAddr: 0x12C8, symBinAddr: 0x100027314, symSize: 0x1C8 }
  - { offset: 0x7F459, size: 0x8, addend: 0x0, symName: '__ZN91_$LT$core..slice..iter..Iter$LT$T$GT$$u20$as$u20$core..iter..traits..iterator..Iterator$GT$4fold17h3b5a4485f6004b34E', symObjAddr: 0x1490, symBinAddr: 0x1000274DC, symSize: 0x1C8 }
  - { offset: 0x7F622, size: 0x8, addend: 0x0, symName: '__ZN91_$LT$core..slice..iter..Iter$LT$T$GT$$u20$as$u20$core..iter..traits..iterator..Iterator$GT$4fold17h402320fcd6af89c0E', symObjAddr: 0x1658, symBinAddr: 0x1000276A4, symSize: 0x1C4 }
  - { offset: 0x7F7E5, size: 0x8, addend: 0x0, symName: '__ZN91_$LT$core..slice..iter..Iter$LT$T$GT$$u20$as$u20$core..iter..traits..iterator..Iterator$GT$4fold17h823a5e97ad1fd537E', symObjAddr: 0x181C, symBinAddr: 0x100027868, symSize: 0x198 }
  - { offset: 0x7F9A7, size: 0x8, addend: 0x0, symName: '__ZN91_$LT$core..slice..iter..Iter$LT$T$GT$$u20$as$u20$core..iter..traits..iterator..Iterator$GT$4fold17h9f83f2c43c6c5533E', symObjAddr: 0x19B4, symBinAddr: 0x100027A00, symSize: 0x1C4 }
  - { offset: 0x7FB6A, size: 0x8, addend: 0x0, symName: '__ZN91_$LT$core..slice..iter..Iter$LT$T$GT$$u20$as$u20$core..iter..traits..iterator..Iterator$GT$4fold17ha239cd0b0efed110E', symObjAddr: 0x1B78, symBinAddr: 0x100027BC4, symSize: 0x1C4 }
  - { offset: 0x7FD2D, size: 0x8, addend: 0x0, symName: '__ZN91_$LT$core..slice..iter..Iter$LT$T$GT$$u20$as$u20$core..iter..traits..iterator..Iterator$GT$4fold17ha6c4705e3c335492E', symObjAddr: 0x1D3C, symBinAddr: 0x100027D88, symSize: 0x1C4 }
  - { offset: 0x7FEF0, size: 0x8, addend: 0x0, symName: '__ZN91_$LT$core..slice..iter..Iter$LT$T$GT$$u20$as$u20$core..iter..traits..iterator..Iterator$GT$4fold17ha93855c75d8d73cbE', symObjAddr: 0x1F00, symBinAddr: 0x100027F4C, symSize: 0x1DC }
  - { offset: 0x800B9, size: 0x8, addend: 0x0, symName: '__ZN91_$LT$core..slice..iter..Iter$LT$T$GT$$u20$as$u20$core..iter..traits..iterator..Iterator$GT$4fold17haef05fb62106a245E', symObjAddr: 0x20DC, symBinAddr: 0x100028128, symSize: 0x1D0 }
  - { offset: 0x80282, size: 0x8, addend: 0x0, symName: '__ZN91_$LT$core..slice..iter..Iter$LT$T$GT$$u20$as$u20$core..iter..traits..iterator..Iterator$GT$4fold17hccd08a12ab32dd36E', symObjAddr: 0x22AC, symBinAddr: 0x1000282F8, symSize: 0x1C4 }
  - { offset: 0x80445, size: 0x8, addend: 0x0, symName: '__ZN91_$LT$core..slice..iter..Iter$LT$T$GT$$u20$as$u20$core..iter..traits..iterator..Iterator$GT$4fold17hd25bd26b6ed2f2b7E', symObjAddr: 0x2470, symBinAddr: 0x1000284BC, symSize: 0x1C4 }
  - { offset: 0x80608, size: 0x8, addend: 0x0, symName: '__ZN91_$LT$core..slice..iter..Iter$LT$T$GT$$u20$as$u20$core..iter..traits..iterator..Iterator$GT$4fold17hece5cde7cdcae645E', symObjAddr: 0x2634, symBinAddr: 0x100028680, symSize: 0x1C4 }
  - { offset: 0x807CB, size: 0x8, addend: 0x0, symName: '__ZN91_$LT$core..slice..iter..Iter$LT$T$GT$$u20$as$u20$core..iter..traits..iterator..Iterator$GT$4fold17hf14518904213ceb6E', symObjAddr: 0x27F8, symBinAddr: 0x100028844, symSize: 0x1DC }
  - { offset: 0x80994, size: 0x8, addend: 0x0, symName: '__ZN91_$LT$core..slice..iter..Iter$LT$T$GT$$u20$as$u20$core..iter..traits..iterator..Iterator$GT$4fold17hf25b5fb37af20d18E', symObjAddr: 0x29D4, symBinAddr: 0x100028A20, symSize: 0x1DC }
  - { offset: 0x80B5D, size: 0x8, addend: 0x0, symName: '__ZN91_$LT$core..slice..iter..Iter$LT$T$GT$$u20$as$u20$core..iter..traits..iterator..Iterator$GT$4next17h0041dca26e332378E', symObjAddr: 0x2BB0, symBinAddr: 0x100028BFC, symSize: 0x80 }
  - { offset: 0x80C13, size: 0x8, addend: 0x0, symName: '__ZN91_$LT$core..slice..iter..Iter$LT$T$GT$$u20$as$u20$core..iter..traits..iterator..Iterator$GT$4next17h09e32efc292991edE', symObjAddr: 0x2C30, symBinAddr: 0x100028C7C, symSize: 0x80 }
  - { offset: 0x80CC9, size: 0x8, addend: 0x0, symName: '__ZN91_$LT$core..slice..iter..Iter$LT$T$GT$$u20$as$u20$core..iter..traits..iterator..Iterator$GT$4next17h10bf81a7adadbed4E', symObjAddr: 0x2CB0, symBinAddr: 0x100028CFC, symSize: 0x80 }
  - { offset: 0x80D7F, size: 0x8, addend: 0x0, symName: '__ZN91_$LT$core..slice..iter..Iter$LT$T$GT$$u20$as$u20$core..iter..traits..iterator..Iterator$GT$4next17h10df8b5a1c01538dE', symObjAddr: 0x2D30, symBinAddr: 0x100028D7C, symSize: 0x80 }
  - { offset: 0x80E35, size: 0x8, addend: 0x0, symName: '__ZN91_$LT$core..slice..iter..Iter$LT$T$GT$$u20$as$u20$core..iter..traits..iterator..Iterator$GT$4next17h162981b8b791cfd3E', symObjAddr: 0x2DB0, symBinAddr: 0x100028DFC, symSize: 0x80 }
  - { offset: 0x80EEB, size: 0x8, addend: 0x0, symName: '__ZN91_$LT$core..slice..iter..Iter$LT$T$GT$$u20$as$u20$core..iter..traits..iterator..Iterator$GT$4next17h2867588139085150E', symObjAddr: 0x2E30, symBinAddr: 0x100028E7C, symSize: 0x80 }
  - { offset: 0x80FA1, size: 0x8, addend: 0x0, symName: '__ZN91_$LT$core..slice..iter..Iter$LT$T$GT$$u20$as$u20$core..iter..traits..iterator..Iterator$GT$4next17h2c1d49192e695665E', symObjAddr: 0x2EB0, symBinAddr: 0x100028EFC, symSize: 0x80 }
  - { offset: 0x81057, size: 0x8, addend: 0x0, symName: '__ZN91_$LT$core..slice..iter..Iter$LT$T$GT$$u20$as$u20$core..iter..traits..iterator..Iterator$GT$4next17h323aa24738ee9984E', symObjAddr: 0x2F30, symBinAddr: 0x100028F7C, symSize: 0x80 }
  - { offset: 0x8110D, size: 0x8, addend: 0x0, symName: '__ZN91_$LT$core..slice..iter..Iter$LT$T$GT$$u20$as$u20$core..iter..traits..iterator..Iterator$GT$4next17h34b25ebdd08efe60E', symObjAddr: 0x2FB0, symBinAddr: 0x100028FFC, symSize: 0x80 }
  - { offset: 0x811C3, size: 0x8, addend: 0x0, symName: '__ZN91_$LT$core..slice..iter..Iter$LT$T$GT$$u20$as$u20$core..iter..traits..iterator..Iterator$GT$4next17h3a3c3b652dec7827E', symObjAddr: 0x3030, symBinAddr: 0x10002907C, symSize: 0x80 }
  - { offset: 0x81279, size: 0x8, addend: 0x0, symName: '__ZN91_$LT$core..slice..iter..Iter$LT$T$GT$$u20$as$u20$core..iter..traits..iterator..Iterator$GT$4next17h47c4d23dba9e788dE', symObjAddr: 0x30B0, symBinAddr: 0x1000290FC, symSize: 0x80 }
  - { offset: 0x8132F, size: 0x8, addend: 0x0, symName: '__ZN91_$LT$core..slice..iter..Iter$LT$T$GT$$u20$as$u20$core..iter..traits..iterator..Iterator$GT$4next17h4e8d57693fdbf066E', symObjAddr: 0x3130, symBinAddr: 0x10002917C, symSize: 0x80 }
  - { offset: 0x813E5, size: 0x8, addend: 0x0, symName: '__ZN91_$LT$core..slice..iter..Iter$LT$T$GT$$u20$as$u20$core..iter..traits..iterator..Iterator$GT$4next17h575f05a3e940c095E', symObjAddr: 0x31B0, symBinAddr: 0x1000291FC, symSize: 0x80 }
  - { offset: 0x8149B, size: 0x8, addend: 0x0, symName: '__ZN91_$LT$core..slice..iter..Iter$LT$T$GT$$u20$as$u20$core..iter..traits..iterator..Iterator$GT$4next17h6cbf4b6ed1affa83E', symObjAddr: 0x3230, symBinAddr: 0x10002927C, symSize: 0x80 }
  - { offset: 0x81551, size: 0x8, addend: 0x0, symName: '__ZN91_$LT$core..slice..iter..Iter$LT$T$GT$$u20$as$u20$core..iter..traits..iterator..Iterator$GT$4next17h6e0a29fa87afe1bfE', symObjAddr: 0x32B0, symBinAddr: 0x1000292FC, symSize: 0x80 }
  - { offset: 0x81607, size: 0x8, addend: 0x0, symName: '__ZN91_$LT$core..slice..iter..Iter$LT$T$GT$$u20$as$u20$core..iter..traits..iterator..Iterator$GT$4next17h762bec2cb642da2eE', symObjAddr: 0x3330, symBinAddr: 0x10002937C, symSize: 0x80 }
  - { offset: 0x816BD, size: 0x8, addend: 0x0, symName: '__ZN91_$LT$core..slice..iter..Iter$LT$T$GT$$u20$as$u20$core..iter..traits..iterator..Iterator$GT$4next17h7d557334b7810c57E', symObjAddr: 0x33B0, symBinAddr: 0x1000293FC, symSize: 0x80 }
  - { offset: 0x81773, size: 0x8, addend: 0x0, symName: '__ZN91_$LT$core..slice..iter..Iter$LT$T$GT$$u20$as$u20$core..iter..traits..iterator..Iterator$GT$4next17h7f1254d7130b0fefE', symObjAddr: 0x3430, symBinAddr: 0x10002947C, symSize: 0x80 }
  - { offset: 0x81829, size: 0x8, addend: 0x0, symName: '__ZN91_$LT$core..slice..iter..Iter$LT$T$GT$$u20$as$u20$core..iter..traits..iterator..Iterator$GT$4next17h82b64ee384038c83E', symObjAddr: 0x34B0, symBinAddr: 0x1000294FC, symSize: 0x80 }
  - { offset: 0x818DF, size: 0x8, addend: 0x0, symName: '__ZN91_$LT$core..slice..iter..Iter$LT$T$GT$$u20$as$u20$core..iter..traits..iterator..Iterator$GT$4next17hb07bc185a063cb55E', symObjAddr: 0x3530, symBinAddr: 0x10002957C, symSize: 0x80 }
  - { offset: 0x81995, size: 0x8, addend: 0x0, symName: '__ZN91_$LT$core..slice..iter..Iter$LT$T$GT$$u20$as$u20$core..iter..traits..iterator..Iterator$GT$4next17hbd0c62f5678c7354E', symObjAddr: 0x35B0, symBinAddr: 0x1000295FC, symSize: 0x80 }
  - { offset: 0x81A4B, size: 0x8, addend: 0x0, symName: '__ZN91_$LT$core..slice..iter..Iter$LT$T$GT$$u20$as$u20$core..iter..traits..iterator..Iterator$GT$4next17hc9091448def7b743E', symObjAddr: 0x3630, symBinAddr: 0x10002967C, symSize: 0x80 }
  - { offset: 0x81B01, size: 0x8, addend: 0x0, symName: '__ZN91_$LT$core..slice..iter..Iter$LT$T$GT$$u20$as$u20$core..iter..traits..iterator..Iterator$GT$4next17hd62f83e57b5e0085E', symObjAddr: 0x36B0, symBinAddr: 0x1000296FC, symSize: 0x80 }
  - { offset: 0x81BB7, size: 0x8, addend: 0x0, symName: '__ZN91_$LT$core..slice..iter..Iter$LT$T$GT$$u20$as$u20$core..iter..traits..iterator..Iterator$GT$4next17hdd1a2ce656771d89E', symObjAddr: 0x3730, symBinAddr: 0x10002977C, symSize: 0x80 }
  - { offset: 0x81C6D, size: 0x8, addend: 0x0, symName: '__ZN91_$LT$core..slice..iter..Iter$LT$T$GT$$u20$as$u20$core..iter..traits..iterator..Iterator$GT$4next17headf66148248a768E', symObjAddr: 0x37B0, symBinAddr: 0x1000297FC, symSize: 0x80 }
  - { offset: 0x81D72, size: 0x8, addend: 0x0, symName: '__ZN91_$LT$core..slice..iter..Iter$LT$T$GT$$u20$as$u20$core..iter..traits..iterator..Iterator$GT$8find_map17h8e289562bb8dc19aE', symObjAddr: 0x3830, symBinAddr: 0x10002987C, symSize: 0xF8 }
  - { offset: 0x81EBB, size: 0x8, addend: 0x0, symName: '__ZN91_$LT$core..slice..iter..Iter$LT$T$GT$$u20$as$u20$core..iter..traits..iterator..Iterator$GT$8position17h11636af4e3125cd5E', symObjAddr: 0x3928, symBinAddr: 0x100029974, symSize: 0x1B8 }
  - { offset: 0x820D7, size: 0x8, addend: 0x0, symName: '__ZN91_$LT$core..slice..iter..Iter$LT$T$GT$$u20$as$u20$core..iter..traits..iterator..Iterator$GT$8position17h981e62a9ff4f2dcaE', symObjAddr: 0x3AE0, symBinAddr: 0x100029B2C, symSize: 0x1B8 }
  - { offset: 0x822A4, size: 0x8, addend: 0x0, symName: '__ZN91_$LT$core..slice..iter..Iter$LT$T$GT$$u20$as$u20$core..iter..traits..iterator..Iterator$GT$9size_hint17h2bfa400959229045E', symObjAddr: 0x3C98, symBinAddr: 0x100029CE4, symSize: 0xB4 }
  - { offset: 0x82394, size: 0x8, addend: 0x0, symName: '__ZN91_$LT$core..slice..iter..Iter$LT$T$GT$$u20$as$u20$core..iter..traits..iterator..Iterator$GT$9size_hint17h337c916bae77f921E', symObjAddr: 0x3D4C, symBinAddr: 0x100029D98, symSize: 0xB4 }
  - { offset: 0x82484, size: 0x8, addend: 0x0, symName: '__ZN91_$LT$core..slice..iter..Iter$LT$T$GT$$u20$as$u20$core..iter..traits..iterator..Iterator$GT$9size_hint17h3a45f7a799466802E', symObjAddr: 0x3E00, symBinAddr: 0x100029E4C, symSize: 0xB4 }
  - { offset: 0x82574, size: 0x8, addend: 0x0, symName: '__ZN91_$LT$core..slice..iter..Iter$LT$T$GT$$u20$as$u20$core..iter..traits..iterator..Iterator$GT$9size_hint17h69f4c7a82e12f655E', symObjAddr: 0x3EB4, symBinAddr: 0x100029F00, symSize: 0xB4 }
  - { offset: 0x82664, size: 0x8, addend: 0x0, symName: '__ZN91_$LT$core..slice..iter..Iter$LT$T$GT$$u20$as$u20$core..iter..traits..iterator..Iterator$GT$9size_hint17h79458e704db0a73aE', symObjAddr: 0x3F68, symBinAddr: 0x100029FB4, symSize: 0xB4 }
  - { offset: 0x82754, size: 0x8, addend: 0x0, symName: '__ZN91_$LT$core..slice..iter..Iter$LT$T$GT$$u20$as$u20$core..iter..traits..iterator..Iterator$GT$9size_hint17hcb0ba04d950855fcE', symObjAddr: 0x401C, symBinAddr: 0x10002A068, symSize: 0xB4 }
  - { offset: 0x82844, size: 0x8, addend: 0x0, symName: '__ZN91_$LT$core..slice..iter..Iter$LT$T$GT$$u20$as$u20$core..iter..traits..iterator..Iterator$GT$9size_hint17hf526ef8dca34cae0E', symObjAddr: 0x40D0, symBinAddr: 0x10002A11C, symSize: 0xB4 }
  - { offset: 0x85D30, size: 0x8, addend: 0x0, symName: __ZN4core4iter6traits12double_ended19DoubleEndedIterator5rfold17h213ccb302541145aE, symObjAddr: 0x1D0, symBinAddr: 0x10002621C, symSize: 0xD4 }
  - { offset: 0x85DCC, size: 0x8, addend: 0x0, symName: __ZN4core4iter6traits8iterator8Iterator10filter_map17h99d186218748e27fE, symObjAddr: 0x2A4, symBinAddr: 0x1000262F0, symSize: 0x1C }
  - { offset: 0x85E24, size: 0x8, addend: 0x0, symName: __ZN4core4iter6traits8iterator8Iterator3map17h0780f57e893041b5E, symObjAddr: 0x2C0, symBinAddr: 0x10002630C, symSize: 0x1C }
  - { offset: 0x85E7C, size: 0x8, addend: 0x0, symName: __ZN4core4iter6traits8iterator8Iterator3map17h294dac0e872da61fE, symObjAddr: 0x2DC, symBinAddr: 0x100026328, symSize: 0x30 }
  - { offset: 0x85EE9, size: 0x8, addend: 0x0, symName: __ZN4core4iter6traits8iterator8Iterator3map17h31452e37f6a675a2E, symObjAddr: 0x30C, symBinAddr: 0x100026358, symSize: 0x1C }
  - { offset: 0x85F41, size: 0x8, addend: 0x0, symName: __ZN4core4iter6traits8iterator8Iterator3map17h5c3566d21b6d417fE, symObjAddr: 0x328, symBinAddr: 0x100026374, symSize: 0x1C }
  - { offset: 0x85F99, size: 0x8, addend: 0x0, symName: __ZN4core4iter6traits8iterator8Iterator3map17h72a59545caeea7eeE, symObjAddr: 0x344, symBinAddr: 0x100026390, symSize: 0x1C }
  - { offset: 0x85FF1, size: 0x8, addend: 0x0, symName: __ZN4core4iter6traits8iterator8Iterator3map17h8f350a9383155ef0E, symObjAddr: 0x360, symBinAddr: 0x1000263AC, symSize: 0x1C }
  - { offset: 0x86049, size: 0x8, addend: 0x0, symName: __ZN4core4iter6traits8iterator8Iterator3map17haaf0775ab4a0bd4dE, symObjAddr: 0x37C, symBinAddr: 0x1000263C8, symSize: 0x1C }
  - { offset: 0x860A1, size: 0x8, addend: 0x0, symName: __ZN4core4iter6traits8iterator8Iterator3map17he32b3bedabf01d3aE, symObjAddr: 0x398, symBinAddr: 0x1000263E4, symSize: 0x1C }
  - { offset: 0x860F9, size: 0x8, addend: 0x0, symName: __ZN4core4iter6traits8iterator8Iterator3rev17h974fe0c76a1a9ee5E, symObjAddr: 0x3B4, symBinAddr: 0x100026400, symSize: 0x1C }
  - { offset: 0x86130, size: 0x8, addend: 0x0, symName: __ZN4core4iter6traits8iterator8Iterator6cloned17h6bc991c667b8629dE, symObjAddr: 0x3D0, symBinAddr: 0x10002641C, symSize: 0x1C }
  - { offset: 0x86170, size: 0x8, addend: 0x0, symName: __ZN4core4iter6traits8iterator8Iterator6copied17h258bd45bcb268659E, symObjAddr: 0x3EC, symBinAddr: 0x100026438, symSize: 0x1C }
  - { offset: 0x861B0, size: 0x8, addend: 0x0, symName: __ZN4core4iter6traits8iterator8Iterator6filter17h8a884915b7bcbdaaE, symObjAddr: 0x408, symBinAddr: 0x100026454, symSize: 0x30 }
  - { offset: 0x86214, size: 0x8, addend: 0x0, symName: __ZN4core4iter6traits8iterator8Iterator6filter17h9ef51cb499b041ecE, symObjAddr: 0x438, symBinAddr: 0x100026484, symSize: 0x30 }
  - { offset: 0x86278, size: 0x8, addend: 0x0, symName: __ZN4core4iter6traits8iterator8Iterator6filter17hebf2273b6c5e9f34E, symObjAddr: 0x468, symBinAddr: 0x1000264B4, symSize: 0x30 }
  - { offset: 0x862DC, size: 0x8, addend: 0x0, symName: __ZN4core4iter6traits8iterator8Iterator6filter17hf2531a85d06ebb5dE, symObjAddr: 0x498, symBinAddr: 0x1000264E4, symSize: 0x1C }
  - { offset: 0x8632B, size: 0x8, addend: 0x0, symName: __ZN4core4iter6traits8iterator8Iterator8try_fold17h09c3a6ebbd254dc3E, symObjAddr: 0x4B4, symBinAddr: 0x100026500, symSize: 0x154 }
  - { offset: 0x863DF, size: 0x8, addend: 0x0, symName: __ZN4core4iter6traits8iterator8Iterator8try_fold17hea5b92b48678d78bE, symObjAddr: 0x608, symBinAddr: 0x100026654, symSize: 0x104 }
  - { offset: 0x86499, size: 0x8, addend: 0x0, symName: __ZN4core4iter6traits8iterator8Iterator9enumerate17h2469e1b99fbf1dc3E, symObjAddr: 0x70C, symBinAddr: 0x100026758, symSize: 0x28 }
  - { offset: 0x864E5, size: 0x8, addend: 0x0, symName: __ZN4core4iter6traits8iterator8Iterator9enumerate17h35d4451236eef312E, symObjAddr: 0x734, symBinAddr: 0x100026780, symSize: 0x28 }
  - { offset: 0x86531, size: 0x8, addend: 0x0, symName: __ZN4core4iter6traits8iterator8Iterator9enumerate17h3ae98463441a54ecE, symObjAddr: 0x75C, symBinAddr: 0x1000267A8, symSize: 0x28 }
  - { offset: 0x8657D, size: 0x8, addend: 0x0, symName: __ZN4core4iter6traits8iterator8Iterator9enumerate17h3c763a6bdac44236E, symObjAddr: 0x784, symBinAddr: 0x1000267D0, symSize: 0x28 }
  - { offset: 0x865C9, size: 0x8, addend: 0x0, symName: __ZN4core4iter6traits8iterator8Iterator9enumerate17h51824017403b6ce7E, symObjAddr: 0x7AC, symBinAddr: 0x1000267F8, symSize: 0x28 }
  - { offset: 0x86615, size: 0x8, addend: 0x0, symName: __ZN4core4iter6traits8iterator8Iterator9enumerate17h7411d20eca6cc7deE, symObjAddr: 0x7D4, symBinAddr: 0x100026820, symSize: 0x28 }
  - { offset: 0x86661, size: 0x8, addend: 0x0, symName: __ZN4core4iter6traits8iterator8Iterator9enumerate17h89adc8e5bd24c80eE, symObjAddr: 0x7FC, symBinAddr: 0x100026848, symSize: 0x28 }
  - { offset: 0x866AD, size: 0x8, addend: 0x0, symName: __ZN4core4iter6traits8iterator8Iterator9enumerate17hb38728d3d6f3da0cE, symObjAddr: 0x824, symBinAddr: 0x100026870, symSize: 0x28 }
  - { offset: 0x866F9, size: 0x8, addend: 0x0, symName: __ZN4core4iter6traits8iterator8Iterator9enumerate17hdb61c86ae7977016E, symObjAddr: 0x84C, symBinAddr: 0x100026898, symSize: 0x28 }
  - { offset: 0x86745, size: 0x8, addend: 0x0, symName: __ZN4core4iter6traits8iterator8Iterator9enumerate17hf69537bb62b228cbE, symObjAddr: 0x874, symBinAddr: 0x1000268C0, symSize: 0x28 }
  - { offset: 0x86873, size: 0x8, addend: 0x0, symName: '__ZN63_$LT$I$u20$as$u20$core..iter..traits..collect..IntoIterator$GT$9into_iter17h1149017832e1db29E', symObjAddr: 0xF64, symBinAddr: 0x100026FB0, symSize: 0x1C }
  - { offset: 0x868AA, size: 0x8, addend: 0x0, symName: '__ZN63_$LT$I$u20$as$u20$core..iter..traits..collect..IntoIterator$GT$9into_iter17h4f5614a75e577ba8E', symObjAddr: 0xF80, symBinAddr: 0x100026FCC, symSize: 0x1C }
  - { offset: 0x868E1, size: 0x8, addend: 0x0, symName: '__ZN63_$LT$I$u20$as$u20$core..iter..traits..collect..IntoIterator$GT$9into_iter17he030fdbaf5876ddbE', symObjAddr: 0xF9C, symBinAddr: 0x100026FE8, symSize: 0x1C }
  - { offset: 0x86918, size: 0x8, addend: 0x0, symName: '__ZN63_$LT$I$u20$as$u20$core..iter..traits..collect..IntoIterator$GT$9into_iter17hea3c4a9bd611f161E', symObjAddr: 0xFB8, symBinAddr: 0x100027004, symSize: 0x1C }
  - { offset: 0x86E22, size: 0x8, addend: 0x0, symName: '__ZN67_$LT$I$u20$as$u20$core..iter..adapters..filter..SpecAssumeCount$GT$27assume_count_le_upper_bound17h4e96898ea6daa2cbE', symObjAddr: 0xFD4, symBinAddr: 0x100027020, symSize: 0x48 }
  - { offset: 0x88F1F, size: 0x8, addend: 0x0, symName: '__ZN4core5slice4iter13Iter$LT$T$GT$3new17h185e3d6c95d9adb1E', symObjAddr: 0x89C, symBinAddr: 0x1000268E8, symSize: 0x50 }
  - { offset: 0x890F0, size: 0x8, addend: 0x0, symName: '__ZN4core5slice4iter13Iter$LT$T$GT$3new17h3b1d60712d71bb48E', symObjAddr: 0x8EC, symBinAddr: 0x100026938, symSize: 0x58 }
  - { offset: 0x892A0, size: 0x8, addend: 0x0, symName: '__ZN4core5slice4iter13Iter$LT$T$GT$3new17h3c0b6b7fc10a7293E', symObjAddr: 0x944, symBinAddr: 0x100026990, symSize: 0x58 }
  - { offset: 0x89450, size: 0x8, addend: 0x0, symName: '__ZN4core5slice4iter13Iter$LT$T$GT$3new17h4124a57732e32d9cE', symObjAddr: 0x99C, symBinAddr: 0x1000269E8, symSize: 0x58 }
  - { offset: 0x89600, size: 0x8, addend: 0x0, symName: '__ZN4core5slice4iter13Iter$LT$T$GT$3new17h5397898aa9f97637E', symObjAddr: 0x9F4, symBinAddr: 0x100026A40, symSize: 0x50 }
  - { offset: 0x89A48, size: 0x8, addend: 0x0, symName: '__ZN4core5slice4iter13Iter$LT$T$GT$3new17h68aad4bb3bfc0626E', symObjAddr: 0xA44, symBinAddr: 0x100026A90, symSize: 0x50 }
  - { offset: 0x89BF8, size: 0x8, addend: 0x0, symName: '__ZN4core5slice4iter13Iter$LT$T$GT$3new17h709a4a47a3eec757E', symObjAddr: 0xA94, symBinAddr: 0x100026AE0, symSize: 0x58 }
  - { offset: 0x89E0A, size: 0x8, addend: 0x0, symName: '__ZN4core5slice4iter13Iter$LT$T$GT$3new17h79b7bb3dac7217e2E', symObjAddr: 0xAEC, symBinAddr: 0x100026B38, symSize: 0x50 }
  - { offset: 0x89FF2, size: 0x8, addend: 0x0, symName: '__ZN4core5slice4iter13Iter$LT$T$GT$3new17h805f69cf8a7ddc0dE', symObjAddr: 0xB3C, symBinAddr: 0x100026B88, symSize: 0x50 }
  - { offset: 0x8A1A2, size: 0x8, addend: 0x0, symName: '__ZN4core5slice4iter13Iter$LT$T$GT$3new17h92fdc2bdd5e52559E', symObjAddr: 0xB8C, symBinAddr: 0x100026BD8, symSize: 0x58 }
  - { offset: 0x8A397, size: 0x8, addend: 0x0, symName: '__ZN4core5slice4iter13Iter$LT$T$GT$3new17h9b72251be18c3762E', symObjAddr: 0xBE4, symBinAddr: 0x100026C30, symSize: 0x50 }
  - { offset: 0x8A561, size: 0x8, addend: 0x0, symName: '__ZN4core5slice4iter13Iter$LT$T$GT$3new17ha5e4b55e09aa9bfcE', symObjAddr: 0xC34, symBinAddr: 0x100026C80, symSize: 0x58 }
  - { offset: 0x8A711, size: 0x8, addend: 0x0, symName: '__ZN4core5slice4iter13Iter$LT$T$GT$3new17ha7973813b17fc72bE', symObjAddr: 0xC8C, symBinAddr: 0x100026CD8, symSize: 0x50 }
  - { offset: 0x8A8DB, size: 0x8, addend: 0x0, symName: '__ZN4core5slice4iter13Iter$LT$T$GT$3new17hbab6c80441f073a8E', symObjAddr: 0xCDC, symBinAddr: 0x100026D28, symSize: 0x58 }
  - { offset: 0x8AA8B, size: 0x8, addend: 0x0, symName: '__ZN4core5slice4iter13Iter$LT$T$GT$3new17hc2adafaf4446a69bE', symObjAddr: 0xD34, symBinAddr: 0x100026D80, symSize: 0x50 }
  - { offset: 0x8AC3B, size: 0x8, addend: 0x0, symName: '__ZN4core5slice4iter13Iter$LT$T$GT$3new17hc60bf4ee34700009E', symObjAddr: 0xD84, symBinAddr: 0x100026DD0, symSize: 0x50 }
  - { offset: 0x8ADDE, size: 0x8, addend: 0x0, symName: '__ZN4core5slice4iter13Iter$LT$T$GT$3new17heaee78abd7aef6a5E', symObjAddr: 0xDD4, symBinAddr: 0x100026E20, symSize: 0x50 }
  - { offset: 0x8AF81, size: 0x8, addend: 0x0, symName: '__ZN4core5slice4iter13Iter$LT$T$GT$3new17hf104ca6e40292ed4E', symObjAddr: 0xE24, symBinAddr: 0x100026E70, symSize: 0x50 }
  - { offset: 0x8B131, size: 0x8, addend: 0x0, symName: '__ZN4core5slice4iter13Iter$LT$T$GT$3new17hf7467df0bb938d64E', symObjAddr: 0xE74, symBinAddr: 0x100026EC0, symSize: 0x50 }
  - { offset: 0x8C646, size: 0x8, addend: 0x0, symName: '__ZN4core5slice29_$LT$impl$u20$$u5b$T$u5d$$GT$12split_at_mut17h1c835a1e244ce6afE', symObjAddr: 0x0, symBinAddr: 0x10002A1D0, symSize: 0xAC }
  - { offset: 0x8CE04, size: 0x8, addend: 0x0, symName: '__ZN5alloc5slice29_$LT$impl$u20$$u5b$T$u5d$$GT$11sort_by_key17h1faad91bf709bdecE', symObjAddr: 0x2F0, symBinAddr: 0x10002A4C0, symSize: 0x48 }
  - { offset: 0x8CE5F, size: 0x8, addend: 0x0, symName: '__ZN87_$LT$T$u20$as$u20$alloc..slice..$LT$impl$u20$$u5b$T$u5d$$GT$..to_vec_in..ConvertVec$GT$6to_vec17hf632eefa135a0afaE', symObjAddr: 0x344, symBinAddr: 0x10002A514, symSize: 0x360 }
  - { offset: 0x8D44E, size: 0x8, addend: 0x0, symName: '__ZN9gcrust_rt2gc8statemap14StatemapTracer8write_to28_$u7b$$u7b$closure$u7d$$u7d$17he719213f12852dbdE', symObjAddr: 0xF28, symBinAddr: 0x10002B0F8, symSize: 0x1C }
  - { offset: 0x8D9BD, size: 0x8, addend: 0x0, symName: '__ZN4core5slice29_$LT$impl$u20$$u5b$T$u5d$$GT$12split_at_mut17h1c835a1e244ce6afE', symObjAddr: 0x0, symBinAddr: 0x10002A1D0, symSize: 0xAC }
  - { offset: 0x8DA48, size: 0x8, addend: 0x0, symName: '__ZN4core5slice29_$LT$impl$u20$$u5b$T$u5d$$GT$22split_at_mut_unchecked17h8169a0ba4a39207dE', symObjAddr: 0xAC, symBinAddr: 0x10002A27C, symSize: 0xF8 }
  - { offset: 0x8DB5A, size: 0x8, addend: 0x0, symName: '__ZN4core5slice29_$LT$impl$u20$$u5b$T$u5d$$GT$4iter17h52243e685bb4e770E', symObjAddr: 0x1A4, symBinAddr: 0x10002A374, symSize: 0x28 }
  - { offset: 0x8DB91, size: 0x8, addend: 0x0, symName: '__ZN4core5slice29_$LT$impl$u20$$u5b$T$u5d$$GT$4iter17haa574932ae2af653E', symObjAddr: 0x1CC, symBinAddr: 0x10002A39C, symSize: 0x28 }
  - { offset: 0x8DC16, size: 0x8, addend: 0x0, symName: '__ZN4core5slice29_$LT$impl$u20$$u5b$T$u5d$$GT$7reverse17h7f19b3c1a019f26bE', symObjAddr: 0x1F4, symBinAddr: 0x10002A3C4, symSize: 0xFC }
  - { offset: 0x8DE74, size: 0x8, addend: 0x0, symName: '__ZN68_$LT$T$u20$as$u20$core..slice..sort..stable..quicksort..IsFreeze$GT$9is_freeze17h75e6b26c488aaee6E', symObjAddr: 0x338, symBinAddr: 0x10002A508, symSize: 0xC }
  - { offset: 0x8ED07, size: 0x8, addend: 0x0, symName: __ZN9gcrust_rt2gc8statemap14StatemapTracer8write_to17h2f1945021fefa766E, symObjAddr: 0x6A4, symBinAddr: 0x10002A874, symSize: 0x884 }
  - { offset: 0x8F1F2, size: 0x8, addend: 0x0, symName: '__ZN77_$LT$gcrust_rt..gc..type_info..VarLenKind$u20$as$u20$core..cmp..PartialEq$GT$2eq17h3e4985cd02fd36ddE', symObjAddr: 0x0, symBinAddr: 0x10002B114, symSize: 0x34 }
  - { offset: 0x8F231, size: 0x8, addend: 0x0, symName: '__ZN77_$LT$gcrust_rt..gc..type_info..VarLenKind$u20$as$u20$core..cmp..PartialEq$GT$2eq17h3e4985cd02fd36ddE', symObjAddr: 0x0, symBinAddr: 0x10002B114, symSize: 0x34 }
  - { offset: 0x8F2A6, size: 0x8, addend: 0x0, symName: __ZN9gcrust_rt2gc9type_info6align817h671e64493a7c1e36E, symObjAddr: 0x34, symBinAddr: 0x10002B148, symSize: 0x44 }
  - { offset: 0x8F4B1, size: 0x8, addend: 0x0, symName: __ZN9gcrust_rt2gc9type_info8TypeInfo10for_header17h152e8a6d15b95e2bE, symObjAddr: 0x78, symBinAddr: 0x10002B18C, symSize: 0x3C }
  - { offset: 0x8F4D3, size: 0x8, addend: 0x0, symName: __ZN9gcrust_rt2gc9type_info8TypeInfo11with_fields17h68ceea8c5026b211E, symObjAddr: 0xB4, symBinAddr: 0x10002B1C8, symSize: 0x24 }
  - { offset: 0x8F503, size: 0x8, addend: 0x0, symName: __ZN9gcrust_rt2gc9type_info8TypeInfo12with_type_id17h5282cd02464191b9E, symObjAddr: 0xD8, symBinAddr: 0x10002B1EC, symSize: 0x24 }
  - { offset: 0x8F533, size: 0x8, addend: 0x0, symName: __ZN9gcrust_rt2gc9type_info8TypeInfo14with_raw_bytes17hb09231d8138ef2efE, symObjAddr: 0xFC, symBinAddr: 0x10002B210, symSize: 0x24 }
  - { offset: 0x8F570, size: 0x8, addend: 0x0, symName: __ZN9gcrust_rt2gc9type_info8TypeInfo15allocation_size17h8a60a5ef245379bdE, symObjAddr: 0x120, symBinAddr: 0x10002B234, symSize: 0x234 }
  - { offset: 0x8F5CA, size: 0x8, addend: 0x0, symName: __ZN9gcrust_rt2gc9type_info8TypeInfo15raw_data_offset17h52c78eb73c5531c2E, symObjAddr: 0x354, symBinAddr: 0x10002B468, symSize: 0x80 }
  - { offset: 0x8F5EC, size: 0x8, addend: 0x0, symName: __ZN9gcrust_rt2gc9type_info8TypeInfo15with_align_log217h27b42565579907b0E, symObjAddr: 0x3D4, symBinAddr: 0x10002B4E8, symSize: 0x78 }
  - { offset: 0x8F61D, size: 0x8, addend: 0x0, symName: __ZN9gcrust_rt2gc9type_info8TypeInfo17with_varlen_bytes17hddf7a020ae86d749E, symObjAddr: 0x44C, symBinAddr: 0x10002B560, symSize: 0x2C }
  - { offset: 0x8F64D, size: 0x8, addend: 0x0, symName: __ZN9gcrust_rt2gc9type_info8TypeInfo18value_field_offset17hc056854d690a6431E, symObjAddr: 0x478, symBinAddr: 0x10002B58C, symSize: 0x88 }
  - { offset: 0x8F67D, size: 0x8, addend: 0x0, symName: __ZN9gcrust_rt2gc9type_info8TypeInfo18with_interior_ptrs17hbdbf7e180cc4c6ccE, symObjAddr: 0x500, symBinAddr: 0x10002B614, symSize: 0x30 }
  - { offset: 0x8F6AD, size: 0x8, addend: 0x0, symName: __ZN9gcrust_rt2gc9type_info8TypeInfo18with_varlen_values17h5d6e8103a5ad4794E, symObjAddr: 0x530, symBinAddr: 0x10002B644, symSize: 0x2C }
  - { offset: 0x8F6DD, size: 0x8, addend: 0x0, symName: __ZN9gcrust_rt2gc9type_info8TypeInfo19varlen_count_offset17hb019e54b72e4dfd1E, symObjAddr: 0x55C, symBinAddr: 0x10002B670, symSize: 0x58 }
  - { offset: 0x8F6FF, size: 0x8, addend: 0x0, symName: __ZN9gcrust_rt2gc9type_info8TypeInfo21varlen_element_offset17h4776ea21957dad86E, symObjAddr: 0x5B4, symBinAddr: 0x10002B6C8, symSize: 0x138 }
  - { offset: 0x8F77D, size: 0x8, addend: 0x0, symName: '__ZN5alloc5boxed12Box$LT$T$GT$8from_raw17hd56c7e28f9303cb4E', symObjAddr: 0x0, symBinAddr: 0x10002B800, symSize: 0x3C }
  - { offset: 0x9049D, size: 0x8, addend: 0x0, symName: '__ZN5alloc5boxed16Box$LT$T$C$A$GT$4leak17h37e3e0e45533d3faE', symObjAddr: 0x78, symBinAddr: 0x10002B878, symSize: 0x18 }
  - { offset: 0x904E3, size: 0x8, addend: 0x0, symName: '__ZN5alloc5boxed12Box$LT$T$GT$8from_raw17hd56c7e28f9303cb4E', symObjAddr: 0x0, symBinAddr: 0x10002B800, symSize: 0x3C }
  - { offset: 0x9057B, size: 0x8, addend: 0x0, symName: '__ZN5alloc5boxed12Box$LT$T$GT$8into_raw17h412e4e7036507af8E', symObjAddr: 0x3C, symBinAddr: 0x10002B83C, symSize: 0x14 }
  - { offset: 0x905B2, size: 0x8, addend: 0x0, symName: '__ZN5alloc5boxed12Box$LT$T$GT$8into_raw17h5559e8878dc47ec0E', symObjAddr: 0x50, symBinAddr: 0x10002B850, symSize: 0x14 }
  - { offset: 0x905E9, size: 0x8, addend: 0x0, symName: '__ZN5alloc5boxed12Box$LT$T$GT$8into_raw17hb82834a0022c358aE', symObjAddr: 0x64, symBinAddr: 0x10002B864, symSize: 0x14 }
  - { offset: 0x908DA, size: 0x8, addend: 0x0, symName: '__ZN105_$LT$std..collections..hash..map..Iter$LT$K$C$V$GT$$u20$as$u20$core..iter..traits..iterator..Iterator$GT$4next17h0bd675b9c131de2cE', symObjAddr: 0x0, symBinAddr: 0x10002B890, symSize: 0x24 }
  - { offset: 0x9116C, size: 0x8, addend: 0x0, symName: __ZN4core4iter6traits8iterator8Iterator3map17hb9ea39d79d2c3770E, symObjAddr: 0x964, symBinAddr: 0x10002C1F4, symSize: 0x30 }
  - { offset: 0x911DA, size: 0x8, addend: 0x0, symName: __ZN4core4iter6traits8iterator8Iterator7collect17hb4f6303145f44ab2E, symObjAddr: 0x994, symBinAddr: 0x10002C224, symSize: 0x14 }
  - { offset: 0x91227, size: 0x8, addend: 0x0, symName: '__ZN63_$LT$I$u20$as$u20$core..iter..traits..collect..IntoIterator$GT$9into_iter17hc8caa3f40bf5aa1aE', symObjAddr: 0x9A8, symBinAddr: 0x10002C238, symSize: 0x30 }
  - { offset: 0x9130B, size: 0x8, addend: 0x0, symName: '__ZN105_$LT$std..collections..hash..map..Iter$LT$K$C$V$GT$$u20$as$u20$core..iter..traits..iterator..Iterator$GT$4next17h0bd675b9c131de2cE', symObjAddr: 0x0, symBinAddr: 0x10002B890, symSize: 0x24 }
  - { offset: 0x9134B, size: 0x8, addend: 0x0, symName: '__ZN105_$LT$std..collections..hash..map..Iter$LT$K$C$V$GT$$u20$as$u20$core..iter..traits..iterator..Iterator$GT$9size_hint17ha8c9d07e731b1861E', symObjAddr: 0x24, symBinAddr: 0x10002B8B4, symSize: 0x2C }
  - { offset: 0x913BC, size: 0x8, addend: 0x0, symName: '__ZN113_$LT$std..collections..hash..map..IntoIter$LT$K$C$V$C$A$GT$$u20$as$u20$core..iter..traits..iterator..Iterator$GT$4next17hc65fe9a976c22d24E', symObjAddr: 0x50, symBinAddr: 0x10002B8E0, symSize: 0x20 }
  - { offset: 0x91422, size: 0x8, addend: 0x0, symName: '__ZN113_$LT$std..collections..hash..map..IntoIter$LT$K$C$V$C$A$GT$$u20$as$u20$core..iter..traits..iterator..Iterator$GT$9size_hint17h60869f102ca70f1fE', symObjAddr: 0x70, symBinAddr: 0x10002B900, symSize: 0x2C }
  - { offset: 0x914B2, size: 0x8, addend: 0x0, symName: '__ZN119_$LT$std..collections..hash..map..HashMap$LT$K$C$V$C$S$C$A$GT$$u20$as$u20$core..iter..traits..collect..IntoIterator$GT$9into_iter17h508ad29037a6c00aE', symObjAddr: 0x9C, symBinAddr: 0x10002B92C, symSize: 0x58 }
  - { offset: 0x9167D, size: 0x8, addend: 0x0, symName: '__ZN136_$LT$std..collections..hash..map..HashMap$LT$K$C$V$C$S$GT$$u20$as$u20$core..iter..traits..collect..FromIterator$LT$$LP$K$C$V$RP$$GT$$GT$9from_iter17h653a8739fb6bd5d0E', symObjAddr: 0xF4, symBinAddr: 0x10002B984, symSize: 0x11C }
  - { offset: 0x92F1E, size: 0x8, addend: 0x0, symName: '__ZN3std11collections4hash3map20HashMap$LT$K$C$V$GT$3new17h1bedb61461289491E', symObjAddr: 0x210, symBinAddr: 0x10002BAA0, symSize: 0x7C }
  - { offset: 0x93033, size: 0x8, addend: 0x0, symName: '__ZN3std11collections4hash3map20HashMap$LT$K$C$V$GT$3new17h21cd36fed546408eE', symObjAddr: 0x28C, symBinAddr: 0x10002BB1C, symSize: 0x7C }
  - { offset: 0x93148, size: 0x8, addend: 0x0, symName: '__ZN3std11collections4hash3map20HashMap$LT$K$C$V$GT$3new17h46dc3d9bbc4c70e8E', symObjAddr: 0x308, symBinAddr: 0x10002BB98, symSize: 0x7C }
  - { offset: 0x9328F, size: 0x8, addend: 0x0, symName: '__ZN3std11collections4hash3map20HashMap$LT$K$C$V$GT$3new17hf26b2994b937eefeE', symObjAddr: 0x384, symBinAddr: 0x10002BC14, symSize: 0x7C }
  - { offset: 0x934C3, size: 0x8, addend: 0x0, symName: '__ZN3std11collections4hash3map22Entry$LT$K$C$V$C$A$GT$9or_insert17h6e6cd138729e45acE', symObjAddr: 0x400, symBinAddr: 0x10002BC90, symSize: 0x15C }
  - { offset: 0x93865, size: 0x8, addend: 0x0, symName: '__ZN3std11collections4hash3map22Entry$LT$K$C$V$C$A$GT$9or_insert17h8bde11996939369aE', symObjAddr: 0x55C, symBinAddr: 0x10002BDEC, symSize: 0x170 }
  - { offset: 0x93AAB, size: 0x8, addend: 0x0, symName: '__ZN3std11collections4hash3map28HashMap$LT$K$C$V$C$S$C$A$GT$3get17h1b372a8f0e7ec253E', symObjAddr: 0x6CC, symBinAddr: 0x10002BF5C, symSize: 0x2C }
  - { offset: 0x93D00, size: 0x8, addend: 0x0, symName: '__ZN3std11collections4hash3map28HashMap$LT$K$C$V$C$S$C$A$GT$4iter17he3c4ee0dd9130828E', symObjAddr: 0x6F8, symBinAddr: 0x10002BF88, symSize: 0xC0 }
  - { offset: 0x93EC4, size: 0x8, addend: 0x0, symName: '__ZN3std11collections4hash3map28HashMap$LT$K$C$V$C$S$C$A$GT$5entry17h3b43776666219d1fE', symObjAddr: 0x7B8, symBinAddr: 0x10002C048, symSize: 0xB0 }
  - { offset: 0x93F7B, size: 0x8, addend: 0x0, symName: '__ZN3std11collections4hash3map28HashMap$LT$K$C$V$C$S$C$A$GT$5entry17ha8d5277c7875f79fE', symObjAddr: 0x868, symBinAddr: 0x10002C0F8, symSize: 0xB0 }
  - { offset: 0x94025, size: 0x8, addend: 0x0, symName: '__ZN3std11collections4hash3map28HashMap$LT$K$C$V$C$S$C$A$GT$6insert17h9ce26f6590b02eeaE', symObjAddr: 0x918, symBinAddr: 0x10002C1A8, symSize: 0x2C }
  - { offset: 0x94100, size: 0x8, addend: 0x0, symName: '__ZN3std11collections4hash3map28HashMap$LT$K$C$V$C$S$C$A$GT$8is_empty17h9697fe6e37f4f04aE', symObjAddr: 0x944, symBinAddr: 0x10002C1D4, symSize: 0x20 }
  - { offset: 0x9421C, size: 0x8, addend: 0x0, symName: '__ZN153_$LT$core..result..Result$LT$T$C$F$GT$$u20$as$u20$core..ops..try_trait..FromResidual$LT$core..result..Result$LT$core..convert..Infallible$C$E$GT$$GT$$GT$13from_residual17h9b0aced46468806cE', symObjAddr: 0x0, symBinAddr: 0x10002C268, symSize: 0x24 }
  - { offset: 0x94FB2, size: 0x8, addend: 0x0, symName: '__ZN153_$LT$core..result..Result$LT$T$C$F$GT$$u20$as$u20$core..ops..try_trait..FromResidual$LT$core..result..Result$LT$core..convert..Infallible$C$E$GT$$GT$$GT$13from_residual17h9b0aced46468806cE', symObjAddr: 0x0, symBinAddr: 0x10002C268, symSize: 0x24 }
  - { offset: 0x94FFB, size: 0x8, addend: 0x0, symName: '__ZN153_$LT$core..result..Result$LT$T$C$F$GT$$u20$as$u20$core..ops..try_trait..FromResidual$LT$core..result..Result$LT$core..convert..Infallible$C$E$GT$$GT$$GT$13from_residual17hcc94cb16de94c2caE', symObjAddr: 0x24, symBinAddr: 0x10002C28C, symSize: 0x8 }
  - { offset: 0x958CF, size: 0x8, addend: 0x0, symName: '__ZN79_$LT$core..result..Result$LT$T$C$E$GT$$u20$as$u20$core..ops..try_trait..Try$GT$11from_output17h2e40ac1e91f093b8E', symObjAddr: 0x704, symBinAddr: 0x10002C96C, symSize: 0x1C }
  - { offset: 0x9590F, size: 0x8, addend: 0x0, symName: '__ZN79_$LT$core..result..Result$LT$T$C$E$GT$$u20$as$u20$core..ops..try_trait..Try$GT$6branch17h29b09c28fe7fb7b4E', symObjAddr: 0x720, symBinAddr: 0x10002C988, symSize: 0x64 }
  - { offset: 0x9598C, size: 0x8, addend: 0x0, symName: '__ZN79_$LT$core..result..Result$LT$T$C$E$GT$$u20$as$u20$core..ops..try_trait..Try$GT$6branch17hcb96c6af050c2547E', symObjAddr: 0x784, symBinAddr: 0x10002C9EC, symSize: 0x3C }
  - { offset: 0x959EA, size: 0x8, addend: 0x0, symName: '__ZN79_$LT$core..result..Result$LT$T$C$E$GT$$u20$as$u20$core..ops..try_trait..Try$GT$6branch17he57e94cffbdd8e0eE', symObjAddr: 0x7C0, symBinAddr: 0x10002CA28, symSize: 0x40 }
  - { offset: 0x969E5, size: 0x8, addend: 0x0, symName: '__ZN4core6result19Result$LT$T$C$E$GT$17unwrap_or_default17h6d701546357c5163E', symObjAddr: 0x2C, symBinAddr: 0x10002C294, symSize: 0xDC }
  - { offset: 0x96A1B, size: 0x8, addend: 0x0, symName: '__ZN4core6result19Result$LT$T$C$E$GT$17unwrap_or_default17h952bd0c207200492E', symObjAddr: 0x108, symBinAddr: 0x10002C370, symSize: 0xDC }
  - { offset: 0x96A58, size: 0x8, addend: 0x0, symName: '__ZN4core6result19Result$LT$T$C$E$GT$2ok17h043b3a12f9717f39E', symObjAddr: 0x1E4, symBinAddr: 0x10002C44C, symSize: 0x68 }
  - { offset: 0x96AAB, size: 0x8, addend: 0x0, symName: '__ZN4core6result19Result$LT$T$C$E$GT$2ok17h7b778747aa3345ceE', symObjAddr: 0x24C, symBinAddr: 0x10002C4B4, symSize: 0x84 }
  - { offset: 0x96AFF, size: 0x8, addend: 0x0, symName: '__ZN4core6result19Result$LT$T$C$E$GT$2ok17h92c6f9d75555461bE', symObjAddr: 0x2D0, symBinAddr: 0x10002C538, symSize: 0x5C }
  - { offset: 0x96B53, size: 0x8, addend: 0x0, symName: '__ZN4core6result19Result$LT$T$C$E$GT$3map17h8c2a8efa4a946da5E', symObjAddr: 0x32C, symBinAddr: 0x10002C594, symSize: 0xA4 }
  - { offset: 0x96BF3, size: 0x8, addend: 0x0, symName: '__ZN4core6result19Result$LT$T$C$E$GT$5is_ok17hfc92711136c634cdE', symObjAddr: 0x3D0, symBinAddr: 0x10002C638, symSize: 0x20 }
  - { offset: 0x96D01, size: 0x8, addend: 0x0, symName: '__ZN4core6result19Result$LT$T$C$E$GT$6expect17h86a8c0a1dfd5eabcE', symObjAddr: 0x3F0, symBinAddr: 0x10002C658, symSize: 0xBC }
  - { offset: 0x96D64, size: 0x8, addend: 0x0, symName: '__ZN4core6result19Result$LT$T$C$E$GT$6expect17h8b552ae00d274633E', symObjAddr: 0x4AC, symBinAddr: 0x10002C714, symSize: 0x78 }
  - { offset: 0x96DC6, size: 0x8, addend: 0x0, symName: '__ZN4core6result19Result$LT$T$C$E$GT$6expect17hb1b6293b401c8d9cE', symObjAddr: 0x524, symBinAddr: 0x10002C78C, symSize: 0x98 }
  - { offset: 0x96E29, size: 0x8, addend: 0x0, symName: '__ZN4core6result19Result$LT$T$C$E$GT$9unwrap_or17h5d19b7cc7f723d4dE', symObjAddr: 0x5BC, symBinAddr: 0x10002C824, symSize: 0x7C }
  - { offset: 0x96E75, size: 0x8, addend: 0x0, symName: '__ZN4core6result19Result$LT$T$C$E$GT$9unwrap_or17h92a487cfa295eba5E', symObjAddr: 0x638, symBinAddr: 0x10002C8A0, symSize: 0x58 }
  - { offset: 0x96EBA, size: 0x8, addend: 0x0, symName: '__ZN4core6result19Result$LT$T$C$E$GT$9unwrap_or17hdb031689e502839fE', symObjAddr: 0x690, symBinAddr: 0x10002C8F8, symSize: 0x74 }
  - { offset: 0x96F78, size: 0x8, addend: 0x0, symName: '__ZN102_$LT$core..iter..adapters..filter..Filter$LT$I$C$P$GT$$u20$as$u20$core..iter..adapters..SourceIter$GT$8as_inner17h7b76ec176982561eE', symObjAddr: 0x0, symBinAddr: 0x10002CA68, symSize: 0x24 }
  - { offset: 0x971D3, size: 0x8, addend: 0x0, symName: '__ZN102_$LT$core..iter..adapters..filter..Filter$LT$I$C$P$GT$$u20$as$u20$core..iter..adapters..SourceIter$GT$8as_inner17h7b76ec176982561eE', symObjAddr: 0x0, symBinAddr: 0x10002CA68, symSize: 0x24 }
  - { offset: 0x97217, size: 0x8, addend: 0x0, symName: '__ZN108_$LT$core..iter..adapters..filter..Filter$LT$I$C$P$GT$$u20$as$u20$core..iter..traits..iterator..Iterator$GT$4fold17h25c17ac496567635E', symObjAddr: 0x24, symBinAddr: 0x10002CA8C, symSize: 0x38 }
  - { offset: 0x97284, size: 0x8, addend: 0x0, symName: '__ZN108_$LT$core..iter..adapters..filter..Filter$LT$I$C$P$GT$$u20$as$u20$core..iter..traits..iterator..Iterator$GT$4fold17h5680a41c3430a468E', symObjAddr: 0x5C, symBinAddr: 0x10002CAC4, symSize: 0x38 }
  - { offset: 0x972F1, size: 0x8, addend: 0x0, symName: '__ZN108_$LT$core..iter..adapters..filter..Filter$LT$I$C$P$GT$$u20$as$u20$core..iter..traits..iterator..Iterator$GT$4next17h905b5f4e2452d0abE', symObjAddr: 0x94, symBinAddr: 0x10002CAFC, symSize: 0x2C }
  - { offset: 0x9734C, size: 0x8, addend: 0x0, symName: '__ZN108_$LT$core..iter..adapters..filter..Filter$LT$I$C$P$GT$$u20$as$u20$core..iter..traits..iterator..Iterator$GT$5count8to_usize28_$u7b$$u7b$closure$u7d$$u7d$17h85a366a238242de5E', symObjAddr: 0x1D8, symBinAddr: 0x10002CC40, symSize: 0x5C }
  - { offset: 0x9739C, size: 0x8, addend: 0x0, symName: '__ZN108_$LT$core..iter..adapters..filter..Filter$LT$I$C$P$GT$$u20$as$u20$core..iter..traits..iterator..Iterator$GT$5count17h73095d4276aab0e1E', symObjAddr: 0xC0, symBinAddr: 0x10002CB28, symSize: 0x118 }
  - { offset: 0x97479, size: 0x8, addend: 0x0, symName: '__ZN108_$LT$core..iter..adapters..filter..Filter$LT$I$C$P$GT$$u20$as$u20$core..iter..traits..iterator..Iterator$GT$8try_fold17he96981d551283e5eE', symObjAddr: 0x234, symBinAddr: 0x10002CC9C, symSize: 0x4C }
  - { offset: 0x974EE, size: 0x8, addend: 0x0, symName: '__ZN108_$LT$core..iter..adapters..filter..Filter$LT$I$C$P$GT$$u20$as$u20$core..iter..traits..iterator..Iterator$GT$9size_hint17hcaa69bd22e7dc27cE', symObjAddr: 0x280, symBinAddr: 0x10002CCE8, symSize: 0x4C }
  - { offset: 0x975E8, size: 0x8, addend: 0x0, symName: '__ZN4core4iter8adapters6filter11filter_fold28_$u7b$$u7b$closure$u7d$$u7d$17h591e5bc001788631E', symObjAddr: 0x340, symBinAddr: 0x10002CDA8, symSize: 0xD4 }
  - { offset: 0x97668, size: 0x8, addend: 0x0, symName: '__ZN4core4iter8adapters6filter11filter_fold28_$u7b$$u7b$closure$u7d$$u7d$17hf413fb5a1c823f43E', symObjAddr: 0x414, symBinAddr: 0x10002CE7C, symSize: 0xD4 }
  - { offset: 0x976EE, size: 0x8, addend: 0x0, symName: '__ZN4core4iter8adapters6filter15filter_try_fold28_$u7b$$u7b$closure$u7d$$u7d$17hfd1531df1629dbe9E', symObjAddr: 0x4E8, symBinAddr: 0x10002CF50, symSize: 0x150 }
  - { offset: 0x97A77, size: 0x8, addend: 0x0, symName: __ZN4core4iter6traits8iterator8Iterator3map17h03f9bd2ef30e580cE, symObjAddr: 0x2CC, symBinAddr: 0x10002CD34, symSize: 0x20 }
  - { offset: 0x97AE4, size: 0x8, addend: 0x0, symName: __ZN4core4iter6traits8iterator8Iterator3map17h43f855fc56f1b44aE, symObjAddr: 0x2EC, symBinAddr: 0x10002CD54, symSize: 0x20 }
  - { offset: 0x97B51, size: 0x8, addend: 0x0, symName: __ZN4core4iter6traits8iterator8Iterator3map17hda7a55eb75a4c50aE, symObjAddr: 0x30C, symBinAddr: 0x10002CD74, symSize: 0x20 }
  - { offset: 0x97BBE, size: 0x8, addend: 0x0, symName: __ZN4core4iter6traits8iterator8Iterator7collect17h0539481f46e9dcecE, symObjAddr: 0x32C, symBinAddr: 0x10002CD94, symSize: 0x14 }
  - { offset: 0x97C0B, size: 0x8, addend: 0x0, symName: '__ZN63_$LT$I$u20$as$u20$core..iter..traits..collect..IntoIterator$GT$9into_iter17h409a9c093a9442cbE', symObjAddr: 0x638, symBinAddr: 0x10002D0A0, symSize: 0x30 }
  - { offset: 0x985FC, size: 0x8, addend: 0x0, symName: '__ZN83_$LT$I$u20$as$u20$alloc..vec..in_place_collect..SpecInPlaceCollect$LT$T$C$I$GT$$GT$16collect_in_place17h47767c4b0543545aE', symObjAddr: 0x668, symBinAddr: 0x10002D0D0, symSize: 0xB8 }
  - { offset: 0x98BEF, size: 0x8, addend: 0x0, symName: '__ZN4core3cmp5impls48_$LT$impl$u20$core..cmp..Ord$u20$for$u20$i64$GT$5clamp17h5d157ce2689f8f77E', symObjAddr: 0x0, symBinAddr: 0x10002D188, symSize: 0x110 }
  - { offset: 0x98C9F, size: 0x8, addend: 0x0, symName: '__ZN4core3cmp5impls48_$LT$impl$u20$core..cmp..Ord$u20$for$u20$i64$GT$5clamp17h5d157ce2689f8f77E', symObjAddr: 0x0, symBinAddr: 0x10002D188, symSize: 0x110 }
  - { offset: 0x98DB3, size: 0x8, addend: 0x0, symName: '__ZN4core3cmp5impls48_$LT$impl$u20$core..cmp..Ord$u20$for$u20$u64$GT$3cmp17h64788fb47fac29a1E', symObjAddr: 0x110, symBinAddr: 0x10002D298, symSize: 0x38 }
  - { offset: 0x98DF6, size: 0x8, addend: 0x0, symName: '__ZN4core3cmp5impls50_$LT$impl$u20$core..cmp..Ord$u20$for$u20$usize$GT$3cmp17hdee22e21c0aeb074E', symObjAddr: 0x148, symBinAddr: 0x10002D2D0, symSize: 0x38 }
  - { offset: 0x98E39, size: 0x8, addend: 0x0, symName: '__ZN4core3cmp5impls56_$LT$impl$u20$core..cmp..PartialEq$u20$for$u20$usize$GT$2eq17h60431a35eb5a9aaeE', symObjAddr: 0x180, symBinAddr: 0x10002D308, symSize: 0x2C }
  - { offset: 0x98E7C, size: 0x8, addend: 0x0, symName: '__ZN4core3cmp5impls59_$LT$impl$u20$core..cmp..PartialEq$u20$for$u20$$LP$$RP$$GT$2eq17hfeff706f1c985bb1E', symObjAddr: 0x1AC, symBinAddr: 0x10002D334, symSize: 0x1C }
  - { offset: 0x992C3, size: 0x8, addend: 0x0, symName: __ZN5alloc5slice11stable_sort17h01e9b9dbb946473fE, symObjAddr: 0x0, symBinAddr: 0x10002D350, symSize: 0xC8 }
  - { offset: 0x99C89, size: 0x8, addend: 0x0, symName: '__ZN5alloc5slice29_$LT$impl$u20$$u5b$T$u5d$$GT$7sort_by28_$u7b$$u7b$closure$u7d$$u7d$17h2d13953268c00680E', symObjAddr: 0x63C, symBinAddr: 0x10002D98C, symSize: 0x50 }
  - { offset: 0x99CFB, size: 0x8, addend: 0x0, symName: '__ZN5alloc5slice29_$LT$impl$u20$$u5b$T$u5d$$GT$7sort_by28_$u7b$$u7b$closure$u7d$$u7d$17hb9e4783a635b7d05E', symObjAddr: 0x68C, symBinAddr: 0x10002D9DC, symSize: 0x50 }
  - { offset: 0x99D6D, size: 0x8, addend: 0x0, symName: '__ZN5alloc5slice29_$LT$impl$u20$$u5b$T$u5d$$GT$7sort_by28_$u7b$$u7b$closure$u7d$$u7d$17hdaf0dd43364185ebE', symObjAddr: 0x6DC, symBinAddr: 0x10002DA2C, symSize: 0x50 }
  - { offset: 0x99DDF, size: 0x8, addend: 0x0, symName: '__ZN5alloc5slice29_$LT$impl$u20$$u5b$T$u5d$$GT$7sort_by28_$u7b$$u7b$closure$u7d$$u7d$17he7554c95873e3a09E', symObjAddr: 0x72C, symBinAddr: 0x10002DA7C, symSize: 0x50 }
  - { offset: 0x99E51, size: 0x8, addend: 0x0, symName: '__ZN5alloc5slice29_$LT$impl$u20$$u5b$T$u5d$$GT$7sort_by28_$u7b$$u7b$closure$u7d$$u7d$17hfe027220c46d545cE', symObjAddr: 0x77C, symBinAddr: 0x10002DACC, symSize: 0x50 }
  - { offset: 0x99EDC, size: 0x8, addend: 0x0, symName: '__ZN5alloc5slice29_$LT$impl$u20$$u5b$T$u5d$$GT$11sort_by_key28_$u7b$$u7b$closure$u7d$$u7d$17h570973d0ee3dbccdE', symObjAddr: 0x4B0, symBinAddr: 0x10002D800, symSize: 0xAC }
  - { offset: 0x99FA5, size: 0x8, addend: 0x0, symName: '__ZN5alloc5slice29_$LT$impl$u20$$u5b$T$u5d$$GT$6to_vec17h27b7c687c5e8a860E', symObjAddr: 0x55C, symBinAddr: 0x10002D8AC, symSize: 0x28 }
  - { offset: 0x9A03F, size: 0x8, addend: 0x0, symName: '__ZN5alloc5slice29_$LT$impl$u20$$u5b$T$u5d$$GT$6to_vec17hc5e28919bb5cdde7E', symObjAddr: 0x584, symBinAddr: 0x10002D8D4, symSize: 0x28 }
  - { offset: 0x9A09C, size: 0x8, addend: 0x0, symName: '__ZN5alloc5slice29_$LT$impl$u20$$u5b$T$u5d$$GT$7sort_by17h7b068950a96f180aE', symObjAddr: 0x5AC, symBinAddr: 0x10002D8FC, symSize: 0x48 }
  - { offset: 0x9A0E4, size: 0x8, addend: 0x0, symName: '__ZN5alloc5slice29_$LT$impl$u20$$u5b$T$u5d$$GT$7sort_by17hccd814695684967bE', symObjAddr: 0x5F4, symBinAddr: 0x10002D944, symSize: 0x48 }
  - { offset: 0x9A136, size: 0x8, addend: 0x0, symName: '__ZN87_$LT$T$u20$as$u20$alloc..slice..$LT$impl$u20$$u5b$T$u5d$$GT$..to_vec_in..ConvertVec$GT$6to_vec17h151a02cbf75f7540E', symObjAddr: 0x7CC, symBinAddr: 0x10002DB1C, symSize: 0x10C }
  - { offset: 0x9A364, size: 0x8, addend: 0x0, symName: '__ZN87_$LT$T$u20$as$u20$alloc..slice..$LT$impl$u20$$u5b$T$u5d$$GT$..to_vec_in..ConvertVec$GT$6to_vec17h33b7206fa3e9f443E', symObjAddr: 0x8D8, symBinAddr: 0x10002DC28, symSize: 0x10C }
  - { offset: 0x9A592, size: 0x8, addend: 0x0, symName: '__ZN87_$LT$T$u20$as$u20$alloc..slice..$LT$impl$u20$$u5b$T$u5d$$GT$..to_vec_in..ConvertVec$GT$6to_vec17hb76bcebda76ea096E', symObjAddr: 0x9E4, symBinAddr: 0x10002DD34, symSize: 0x10C }
  - { offset: 0x9A7C3, size: 0x8, addend: 0x0, symName: __ZN5alloc5slice11stable_sort17h01e9b9dbb946473fE, symObjAddr: 0x0, symBinAddr: 0x10002D350, symSize: 0xC8 }
  - { offset: 0x9A878, size: 0x8, addend: 0x0, symName: __ZN5alloc5slice11stable_sort17h0a376f5d18827a86E, symObjAddr: 0xC8, symBinAddr: 0x10002D418, symSize: 0xC8 }
  - { offset: 0x9A92D, size: 0x8, addend: 0x0, symName: __ZN5alloc5slice11stable_sort17h1734b3e56c6b0100E, symObjAddr: 0x190, symBinAddr: 0x10002D4E0, symSize: 0xC8 }
  - { offset: 0x9A9E2, size: 0x8, addend: 0x0, symName: __ZN5alloc5slice11stable_sort17h84dad9fd5f91d26fE, symObjAddr: 0x258, symBinAddr: 0x10002D5A8, symSize: 0xC8 }
  - { offset: 0x9AA97, size: 0x8, addend: 0x0, symName: __ZN5alloc5slice11stable_sort17hbe50f943a7868524E, symObjAddr: 0x320, symBinAddr: 0x10002D670, symSize: 0xC8 }
  - { offset: 0x9AB4C, size: 0x8, addend: 0x0, symName: __ZN5alloc5slice11stable_sort17he3a8334110ad6d9aE, symObjAddr: 0x3E8, symBinAddr: 0x10002D738, symSize: 0xC8 }
  - { offset: 0x9BC74, size: 0x8, addend: 0x0, symName: __ZN4core4char7methods15encode_utf8_raw17h47466ab6f74926e2E, symObjAddr: 0x0, symBinAddr: 0x10002DE40, symSize: 0x100 }
  - { offset: 0x9BCE6, size: 0x8, addend: 0x0, symName: __ZN4core4char7methods15encode_utf8_raw8do_panic7runtime17hb3394fee79333bc5E, symObjAddr: 0x100, symBinAddr: 0x10002DF40, symSize: 0xC4 }
  - { offset: 0x9BDE3, size: 0x8, addend: 0x0, symName: __ZN4core4char7methods15encode_utf8_raw17h47466ab6f74926e2E, symObjAddr: 0x0, symBinAddr: 0x10002DE40, symSize: 0x100 }
  - { offset: 0x9BF04, size: 0x8, addend: 0x0, symName: '__ZN4core4char7methods22_$LT$impl$u20$char$GT$11encode_utf817hf640541c0cfcef9dE', symObjAddr: 0x1C4, symBinAddr: 0x10002E004, symSize: 0x38 }
  - { offset: 0x9BF41, size: 0x8, addend: 0x0, symName: '__ZN4core4char7methods22_$LT$impl$u20$char$GT$13is_whitespace17h74b4b189b2c3fd76E', symObjAddr: 0x1FC, symBinAddr: 0x10002E03C, symSize: 0xA0 }
  - { offset: 0x9BF6F, size: 0x8, addend: 0x0, symName: '__ZN4core4char7methods22_$LT$impl$u20$char$GT$14is_ascii_digit17hb7657cd2b37b2d08E', symObjAddr: 0x29C, symBinAddr: 0x10002E0DC, symSize: 0x64 }
  - { offset: 0x9BF9D, size: 0x8, addend: 0x0, symName: '__ZN4core4char7methods22_$LT$impl$u20$char$GT$8from_u3217h6369662dfd9dadf2E', symObjAddr: 0x300, symBinAddr: 0x10002E140, symSize: 0x20 }
  - { offset: 0x9BFC9, size: 0x8, addend: 0x0, symName: '__ZN4core4char7methods22_$LT$impl$u20$char$GT$8to_digit17hae67cd0590a96b49E', symObjAddr: 0x320, symBinAddr: 0x10002E160, symSize: 0x120 }
  - { offset: 0x9C07F, size: 0x8, addend: 0x0, symName: __ZN4core4char7methods25encode_utf8_raw_unchecked17h737b7973d6916802E, symObjAddr: 0x440, symBinAddr: 0x10002E280, symSize: 0x188 }
  - { offset: 0x9C8E7, size: 0x8, addend: 0x0, symName: '__ZN103_$LT$alloc..vec..into_iter..IntoIter$LT$T$C$A$GT$$u20$as$u20$core..iter..traits..iterator..Iterator$GT$4next17h05435c7aa6b35eeeE', symObjAddr: 0x0, symBinAddr: 0x10002E408, symSize: 0xBC }
  - { offset: 0x9DAE9, size: 0x8, addend: 0x0, symName: __ZN4core4iter6traits8iterator8Iterator4fuse17hf63411d573815f00E, symObjAddr: 0x66C, symBinAddr: 0x10002EA74, symSize: 0x2C }
  - { offset: 0x9DB35, size: 0x8, addend: 0x0, symName: __ZN4core4iter6traits8iterator8Iterator6filter17h2092f9250873b692E, symObjAddr: 0x698, symBinAddr: 0x10002EAA0, symSize: 0x28 }
  - { offset: 0x9DB99, size: 0x8, addend: 0x0, symName: __ZN4core4iter6traits8iterator8Iterator7flatten17hfaa417eb2f2a0a01E, symObjAddr: 0x6C0, symBinAddr: 0x10002EAC8, symSize: 0x6C }
  - { offset: 0x9E32A, size: 0x8, addend: 0x0, symName: '__ZN103_$LT$alloc..vec..into_iter..IntoIter$LT$T$C$A$GT$$u20$as$u20$core..iter..traits..iterator..Iterator$GT$4next17h05435c7aa6b35eeeE', symObjAddr: 0x0, symBinAddr: 0x10002E408, symSize: 0xBC }
  - { offset: 0x9E49C, size: 0x8, addend: 0x0, symName: '__ZN103_$LT$alloc..vec..into_iter..IntoIter$LT$T$C$A$GT$$u20$as$u20$core..iter..traits..iterator..Iterator$GT$4next17h43ebc1ab88a549b4E', symObjAddr: 0xBC, symBinAddr: 0x10002E4C4, symSize: 0x94 }
  - { offset: 0x9E610, size: 0x8, addend: 0x0, symName: '__ZN103_$LT$alloc..vec..into_iter..IntoIter$LT$T$C$A$GT$$u20$as$u20$core..iter..traits..iterator..Iterator$GT$4next17he52786cea4689d27E', symObjAddr: 0x150, symBinAddr: 0x10002E558, symSize: 0xAC }
  - { offset: 0x9E788, size: 0x8, addend: 0x0, symName: '__ZN103_$LT$alloc..vec..into_iter..IntoIter$LT$T$C$A$GT$$u20$as$u20$core..iter..traits..iterator..Iterator$GT$8try_fold17h69c3a2aec5adbabcE', symObjAddr: 0x1FC, symBinAddr: 0x10002E604, symSize: 0x18C }
  - { offset: 0x9E94A, size: 0x8, addend: 0x0, symName: '__ZN103_$LT$alloc..vec..into_iter..IntoIter$LT$T$C$A$GT$$u20$as$u20$core..iter..traits..iterator..Iterator$GT$9size_hint17h40478204867c19deE', symObjAddr: 0x388, symBinAddr: 0x10002E790, symSize: 0xB4 }
  - { offset: 0x9EA32, size: 0x8, addend: 0x0, symName: '__ZN103_$LT$alloc..vec..into_iter..IntoIter$LT$T$C$A$GT$$u20$as$u20$core..iter..traits..iterator..Iterator$GT$9size_hint17h4704070b3ac4486aE', symObjAddr: 0x43C, symBinAddr: 0x10002E844, symSize: 0xB4 }
  - { offset: 0x9EB1A, size: 0x8, addend: 0x0, symName: '__ZN103_$LT$alloc..vec..into_iter..IntoIter$LT$T$C$A$GT$$u20$as$u20$core..iter..traits..iterator..Iterator$GT$9size_hint17h5c971fae90a5f618E', symObjAddr: 0x4F0, symBinAddr: 0x10002E8F8, symSize: 0xB4 }
  - { offset: 0x9EC02, size: 0x8, addend: 0x0, symName: '__ZN103_$LT$alloc..vec..into_iter..IntoIter$LT$T$C$A$GT$$u20$as$u20$core..iter..traits..iterator..Iterator$GT$9size_hint17hbd9e9b7c99c3c05fE', symObjAddr: 0x5A4, symBinAddr: 0x10002E9AC, symSize: 0xB4 }
  - { offset: 0x9ECF0, size: 0x8, addend: 0x0, symName: '__ZN104_$LT$alloc..vec..into_iter..IntoIter$LT$T$GT$$u20$as$u20$alloc..vec..in_place_collect..AsVecIntoIter$GT$12as_into_iter17h93716d05ee869045E', symObjAddr: 0x658, symBinAddr: 0x10002EA60, symSize: 0x14 }
  - { offset: 0x9EF78, size: 0x8, addend: 0x0, symName: '__ZN97_$LT$alloc..vec..into_iter..IntoIter$LT$T$C$A$GT$$u20$as$u20$core..iter..adapters..SourceIter$GT$8as_inner17hef880ee61f93b46cE', symObjAddr: 0xADC, symBinAddr: 0x10002EEE4, symSize: 0x14 }
  - { offset: 0x9F83E, size: 0x8, addend: 0x0, symName: '__ZN5alloc3vec9into_iter21IntoIter$LT$T$C$A$GT$16as_raw_mut_slice17h728ea1c440228adaE', symObjAddr: 0x72C, symBinAddr: 0x10002EB34, symSize: 0xCC }
  - { offset: 0x9F98E, size: 0x8, addend: 0x0, symName: '__ZN5alloc3vec9into_iter21IntoIter$LT$T$C$A$GT$16as_raw_mut_slice17h79341892bbebe62cE', symObjAddr: 0x7F8, symBinAddr: 0x10002EC00, symSize: 0xCC }
  - { offset: 0x9FADE, size: 0x8, addend: 0x0, symName: '__ZN5alloc3vec9into_iter21IntoIter$LT$T$C$A$GT$16as_raw_mut_slice17h9731cd1327571dafE', symObjAddr: 0x8C4, symBinAddr: 0x10002ECCC, symSize: 0xCC }
  - { offset: 0x9FC2E, size: 0x8, addend: 0x0, symName: '__ZN5alloc3vec9into_iter21IntoIter$LT$T$C$A$GT$16as_raw_mut_slice17hffc79707fb87cb46E', symObjAddr: 0x990, symBinAddr: 0x10002ED98, symSize: 0xCC }
  - { offset: 0x9FDA2, size: 0x8, addend: 0x0, symName: '__ZN5alloc3vec9into_iter21IntoIter$LT$T$C$A$GT$32forget_allocation_drop_remaining17h215b5d7fa582cc7fE', symObjAddr: 0xA5C, symBinAddr: 0x10002EE64, symSize: 0x80 }
  - { offset: 0x9FED1, size: 0x8, addend: 0x0, symName: '__ZN3std6thread5local17LocalKey$LT$T$GT$4with17h11c915a83767e247E', symObjAddr: 0x0, symBinAddr: 0x10002EEF8, symSize: 0x48 }
  - { offset: 0xA3181, size: 0x8, addend: 0x0, symName: '__ZN3std6thread5local17LocalKey$LT$T$GT$4with17h11c915a83767e247E', symObjAddr: 0x0, symBinAddr: 0x10002EEF8, symSize: 0x48 }
  - { offset: 0xA3245, size: 0x8, addend: 0x0, symName: '__ZN3std6thread5local17LocalKey$LT$T$GT$4with17h3cee7575afe7318eE', symObjAddr: 0x48, symBinAddr: 0x10002EF40, symSize: 0x48 }
  - { offset: 0xA32BD, size: 0x8, addend: 0x0, symName: '__ZN3std6thread5local17LocalKey$LT$T$GT$4with17h570373747cd274ebE', symObjAddr: 0x90, symBinAddr: 0x10002EF88, symSize: 0x54 }
  - { offset: 0xA3385, size: 0x8, addend: 0x0, symName: '__ZN3std6thread5local17LocalKey$LT$T$GT$4with17h788d1ecd2a8debd1E', symObjAddr: 0xE4, symBinAddr: 0x10002EFDC, symSize: 0x50 }
  - { offset: 0xA33F0, size: 0x8, addend: 0x0, symName: '__ZN3std6thread5local17LocalKey$LT$T$GT$4with17hc7189570887d78b9E', symObjAddr: 0x134, symBinAddr: 0x10002F02C, symSize: 0x4C }
  - { offset: 0xA34A9, size: 0x8, addend: 0x0, symName: '__ZN3std6thread5local17LocalKey$LT$T$GT$8try_with17h2fe1705fd3f95c09E', symObjAddr: 0x180, symBinAddr: 0x10002F078, symSize: 0xD8 }
  - { offset: 0xA3638, size: 0x8, addend: 0x0, symName: '__ZN3std6thread5local17LocalKey$LT$T$GT$8try_with17h500b8313a03f9decE', symObjAddr: 0x258, symBinAddr: 0x10002F150, symSize: 0xD8 }
  - { offset: 0xA37C7, size: 0x8, addend: 0x0, symName: '__ZN3std6thread5local17LocalKey$LT$T$GT$8try_with17h683c483a4749fb0cE', symObjAddr: 0x330, symBinAddr: 0x10002F228, symSize: 0xE8 }
  - { offset: 0xA3949, size: 0x8, addend: 0x0, symName: '__ZN3std6thread5local17LocalKey$LT$T$GT$8try_with17h8953e65f6950964fE', symObjAddr: 0x418, symBinAddr: 0x10002F310, symSize: 0xE4 }
  - { offset: 0xA3ACB, size: 0x8, addend: 0x0, symName: '__ZN3std6thread5local17LocalKey$LT$T$GT$8try_with17hbb0f06755736de96E', symObjAddr: 0x4FC, symBinAddr: 0x10002F3F4, symSize: 0xD8 }
  - { offset: 0xA3C2A, size: 0x8, addend: 0x0, symName: '__ZN62_$LT$T$u20$as$u20$alloc..vec..spec_from_elem..SpecFromElem$GT$9from_elem17h4e505fe7847ca18eE', symObjAddr: 0x0, symBinAddr: 0x10002F4CC, symSize: 0x198 }
  - { offset: 0xA4492, size: 0x8, addend: 0x0, symName: '__ZN62_$LT$T$u20$as$u20$alloc..vec..spec_from_elem..SpecFromElem$GT$9from_elem17h4e505fe7847ca18eE', symObjAddr: 0x0, symBinAddr: 0x10002F4CC, symSize: 0x198 }
  - { offset: 0xA45AA, size: 0x8, addend: 0x0, symName: '__ZN62_$LT$T$u20$as$u20$alloc..vec..spec_from_elem..SpecFromElem$GT$9from_elem17had79f203ed14c3e0E', symObjAddr: 0x198, symBinAddr: 0x10002F664, symSize: 0x198 }
  - { offset: 0xA46C2, size: 0x8, addend: 0x0, symName: '__ZN62_$LT$T$u20$as$u20$alloc..vec..spec_from_elem..SpecFromElem$GT$9from_elem17hf6f507c29a1e0b2fE', symObjAddr: 0x330, symBinAddr: 0x10002F7FC, symSize: 0x19C }
  - { offset: 0xA47E0, size: 0x8, addend: 0x0, symName: '__ZN63_$LT$u8$u20$as$u20$alloc..vec..spec_from_elem..SpecFromElem$GT$9from_elem17h0716dda2eeafecbaE', symObjAddr: 0x4CC, symBinAddr: 0x10002F998, symSize: 0x158 }
  - { offset: 0xA50BF, size: 0x8, addend: 0x0, symName: '__ZN104_$LT$core..iter..adapters..cloned..Cloned$LT$I$GT$$u20$as$u20$core..iter..traits..iterator..Iterator$GT$4fold17hbf0ac1cb9adac1b4E', symObjAddr: 0x0, symBinAddr: 0x10002FAF0, symSize: 0xDC }
  - { offset: 0xA51F8, size: 0x8, addend: 0x0, symName: '__ZN104_$LT$core..iter..adapters..cloned..Cloned$LT$I$GT$$u20$as$u20$core..iter..traits..iterator..Iterator$GT$4fold17hbf0ac1cb9adac1b4E', symObjAddr: 0x0, symBinAddr: 0x10002FAF0, symSize: 0xDC }
  - { offset: 0xA52B3, size: 0x8, addend: 0x0, symName: '__ZN104_$LT$core..iter..adapters..cloned..Cloned$LT$I$GT$$u20$as$u20$core..iter..traits..iterator..Iterator$GT$9size_hint17h28ada80417293e78E', symObjAddr: 0xDC, symBinAddr: 0x10002FBCC, symSize: 0x24 }
  - { offset: 0xA5370, size: 0x8, addend: 0x0, symName: __ZN4core4iter6traits8iterator8Iterator7collect17hfad750be46eecc0aE, symObjAddr: 0x100, symBinAddr: 0x10002FBF0, symSize: 0x2C }
  - { offset: 0xA53B0, size: 0x8, addend: 0x0, symName: __ZN4core4iter6traits8iterator8Iterator8for_each17hf2989008421a2714E, symObjAddr: 0x12C, symBinAddr: 0x10002FC1C, symSize: 0x44 }
  - { offset: 0xA5427, size: 0x8, addend: 0x0, symName: '__ZN63_$LT$I$u20$as$u20$core..iter..traits..collect..IntoIterator$GT$9into_iter17hbc9a6483b54d67dcE', symObjAddr: 0x170, symBinAddr: 0x10002FC60, symSize: 0x1C }
  - { offset: 0xA6045, size: 0x8, addend: 0x0, symName: '__ZN102_$LT$core..iter..adapters..map..Map$LT$I$C$F$GT$$u20$as$u20$core..iter..traits..iterator..Iterator$GT$4fold17h02dc636faccfdf38E', symObjAddr: 0x0, symBinAddr: 0x10002FC7C, symSize: 0x30 }
  - { offset: 0xA68A3, size: 0x8, addend: 0x0, symName: '__ZN102_$LT$core..iter..adapters..map..Map$LT$I$C$F$GT$$u20$as$u20$core..iter..traits..iterator..Iterator$GT$4fold17h02dc636faccfdf38E', symObjAddr: 0x0, symBinAddr: 0x10002FC7C, symSize: 0x30 }
  - { offset: 0xA6918, size: 0x8, addend: 0x0, symName: '__ZN102_$LT$core..iter..adapters..map..Map$LT$I$C$F$GT$$u20$as$u20$core..iter..traits..iterator..Iterator$GT$4fold17h108055cfc91ec74eE', symObjAddr: 0x30, symBinAddr: 0x10002FCAC, symSize: 0x38 }
  - { offset: 0xA698E, size: 0x8, addend: 0x0, symName: '__ZN102_$LT$core..iter..adapters..map..Map$LT$I$C$F$GT$$u20$as$u20$core..iter..traits..iterator..Iterator$GT$4fold17h42ec7149c354aecbE', symObjAddr: 0x68, symBinAddr: 0x10002FCE4, symSize: 0x38 }
  - { offset: 0xA6A04, size: 0x8, addend: 0x0, symName: '__ZN102_$LT$core..iter..adapters..map..Map$LT$I$C$F$GT$$u20$as$u20$core..iter..traits..iterator..Iterator$GT$4fold17h56f383db703bf9f5E', symObjAddr: 0xA0, symBinAddr: 0x10002FD1C, symSize: 0x30 }
  - { offset: 0xA6A79, size: 0x8, addend: 0x0, symName: '__ZN102_$LT$core..iter..adapters..map..Map$LT$I$C$F$GT$$u20$as$u20$core..iter..traits..iterator..Iterator$GT$4fold17h5759694aa7055b2dE', symObjAddr: 0xD0, symBinAddr: 0x10002FD4C, symSize: 0x30 }
  - { offset: 0xA6AEE, size: 0x8, addend: 0x0, symName: '__ZN102_$LT$core..iter..adapters..map..Map$LT$I$C$F$GT$$u20$as$u20$core..iter..traits..iterator..Iterator$GT$4fold17h73b86c0671ac9131E', symObjAddr: 0x100, symBinAddr: 0x10002FD7C, symSize: 0x4C }
  - { offset: 0xA6B87, size: 0x8, addend: 0x0, symName: '__ZN102_$LT$core..iter..adapters..map..Map$LT$I$C$F$GT$$u20$as$u20$core..iter..traits..iterator..Iterator$GT$4fold17h7f9321aa280f262bE', symObjAddr: 0x14C, symBinAddr: 0x10002FDC8, symSize: 0x4C }
  - { offset: 0xA6C20, size: 0x8, addend: 0x0, symName: '__ZN102_$LT$core..iter..adapters..map..Map$LT$I$C$F$GT$$u20$as$u20$core..iter..traits..iterator..Iterator$GT$4fold17h9e63bf43de03112dE', symObjAddr: 0x198, symBinAddr: 0x10002FE14, symSize: 0x44 }
  - { offset: 0xA6CB8, size: 0x8, addend: 0x0, symName: '__ZN102_$LT$core..iter..adapters..map..Map$LT$I$C$F$GT$$u20$as$u20$core..iter..traits..iterator..Iterator$GT$4fold17hb832068905ac7660E', symObjAddr: 0x1DC, symBinAddr: 0x10002FE58, symSize: 0x4C }
  - { offset: 0xA6D51, size: 0x8, addend: 0x0, symName: '__ZN102_$LT$core..iter..adapters..map..Map$LT$I$C$F$GT$$u20$as$u20$core..iter..traits..iterator..Iterator$GT$4fold17hb9a590367b1a8af3E', symObjAddr: 0x228, symBinAddr: 0x10002FEA4, symSize: 0x58 }
  - { offset: 0xA6DEA, size: 0x8, addend: 0x0, symName: '__ZN102_$LT$core..iter..adapters..map..Map$LT$I$C$F$GT$$u20$as$u20$core..iter..traits..iterator..Iterator$GT$4fold17hba103c2bceecba81E', symObjAddr: 0x280, symBinAddr: 0x10002FEFC, symSize: 0x3C }
  - { offset: 0xA6E5C, size: 0x8, addend: 0x0, symName: '__ZN102_$LT$core..iter..adapters..map..Map$LT$I$C$F$GT$$u20$as$u20$core..iter..traits..iterator..Iterator$GT$4fold17hbaa1398b58a48b04E', symObjAddr: 0x2BC, symBinAddr: 0x10002FF38, symSize: 0x4C }
  - { offset: 0xA6EF5, size: 0x8, addend: 0x0, symName: '__ZN102_$LT$core..iter..adapters..map..Map$LT$I$C$F$GT$$u20$as$u20$core..iter..traits..iterator..Iterator$GT$4fold17hef8d9752f244af1aE', symObjAddr: 0x308, symBinAddr: 0x10002FF84, symSize: 0x44 }
  - { offset: 0xA6F8D, size: 0x8, addend: 0x0, symName: '__ZN102_$LT$core..iter..adapters..map..Map$LT$I$C$F$GT$$u20$as$u20$core..iter..traits..iterator..Iterator$GT$4next17h8c233466f67be252E', symObjAddr: 0x34C, symBinAddr: 0x10002FFC8, symSize: 0xBC }
  - { offset: 0xA702A, size: 0x8, addend: 0x0, symName: '__ZN102_$LT$core..iter..adapters..map..Map$LT$I$C$F$GT$$u20$as$u20$core..iter..traits..iterator..Iterator$GT$4next17hf2f9dfe0886bfae1E', symObjAddr: 0x408, symBinAddr: 0x100030084, symSize: 0x84 }
  - { offset: 0xA70C6, size: 0x8, addend: 0x0, symName: '__ZN102_$LT$core..iter..adapters..map..Map$LT$I$C$F$GT$$u20$as$u20$core..iter..traits..iterator..Iterator$GT$9size_hint17h237256152881b747E', symObjAddr: 0x48C, symBinAddr: 0x100030108, symSize: 0x24 }
  - { offset: 0xA710D, size: 0x8, addend: 0x0, symName: '__ZN102_$LT$core..iter..adapters..map..Map$LT$I$C$F$GT$$u20$as$u20$core..iter..traits..iterator..Iterator$GT$9size_hint17h5f90a708ca4a656cE', symObjAddr: 0x4B0, symBinAddr: 0x10003012C, symSize: 0x24 }
  - { offset: 0xA7154, size: 0x8, addend: 0x0, symName: '__ZN102_$LT$core..iter..adapters..map..Map$LT$I$C$F$GT$$u20$as$u20$core..iter..traits..iterator..Iterator$GT$9size_hint17h66c30c28abe24169E', symObjAddr: 0x4D4, symBinAddr: 0x100030150, symSize: 0x24 }
  - { offset: 0xA719B, size: 0x8, addend: 0x0, symName: '__ZN102_$LT$core..iter..adapters..map..Map$LT$I$C$F$GT$$u20$as$u20$core..iter..traits..iterator..Iterator$GT$9size_hint17h9b967a7c865a341eE', symObjAddr: 0x4F8, symBinAddr: 0x100030174, symSize: 0x24 }
  - { offset: 0xA71E2, size: 0x8, addend: 0x0, symName: '__ZN102_$LT$core..iter..adapters..map..Map$LT$I$C$F$GT$$u20$as$u20$core..iter..traits..iterator..Iterator$GT$9size_hint17hb763dc08ca98bef9E', symObjAddr: 0x51C, symBinAddr: 0x100030198, symSize: 0x24 }
  - { offset: 0xA7229, size: 0x8, addend: 0x0, symName: '__ZN102_$LT$core..iter..adapters..map..Map$LT$I$C$F$GT$$u20$as$u20$core..iter..traits..iterator..Iterator$GT$9size_hint17hb7858d2e2e22a913E', symObjAddr: 0x540, symBinAddr: 0x1000301BC, symSize: 0x24 }
  - { offset: 0xA7270, size: 0x8, addend: 0x0, symName: '__ZN102_$LT$core..iter..adapters..map..Map$LT$I$C$F$GT$$u20$as$u20$core..iter..traits..iterator..Iterator$GT$9size_hint17hc172be5a7266b8ffE', symObjAddr: 0x564, symBinAddr: 0x1000301E0, symSize: 0x24 }
  - { offset: 0xA72B7, size: 0x8, addend: 0x0, symName: '__ZN102_$LT$core..iter..adapters..map..Map$LT$I$C$F$GT$$u20$as$u20$core..iter..traits..iterator..Iterator$GT$9size_hint17hcd9d263906afc09fE', symObjAddr: 0x588, symBinAddr: 0x100030204, symSize: 0x24 }
  - { offset: 0xA72FE, size: 0x8, addend: 0x0, symName: '__ZN102_$LT$core..iter..adapters..map..Map$LT$I$C$F$GT$$u20$as$u20$core..iter..traits..iterator..Iterator$GT$9size_hint17hdc8d4530f4af88aeE', symObjAddr: 0x5AC, symBinAddr: 0x100030228, symSize: 0x24 }
  - { offset: 0xA7345, size: 0x8, addend: 0x0, symName: '__ZN102_$LT$core..iter..adapters..map..Map$LT$I$C$F$GT$$u20$as$u20$core..iter..traits..iterator..Iterator$GT$9size_hint17hf7ebcd280dff1fa8E', symObjAddr: 0x5D0, symBinAddr: 0x10003024C, symSize: 0x24 }
  - { offset: 0xA74B8, size: 0x8, addend: 0x0, symName: '__ZN4core4iter8adapters3map8map_fold28_$u7b$$u7b$closure$u7d$$u7d$17h0833bf12fc0e3e0bE', symObjAddr: 0x9F0, symBinAddr: 0x10003066C, symSize: 0x98 }
  - { offset: 0xA753F, size: 0x8, addend: 0x0, symName: '__ZN4core4iter8adapters3map8map_fold28_$u7b$$u7b$closure$u7d$$u7d$17h2fb6bdbe8aa2d7e0E', symObjAddr: 0xA88, symBinAddr: 0x100030704, symSize: 0x8C }
  - { offset: 0xA75C4, size: 0x8, addend: 0x0, symName: '__ZN4core4iter8adapters3map8map_fold28_$u7b$$u7b$closure$u7d$$u7d$17h39ef870a2795d29fE', symObjAddr: 0xB14, symBinAddr: 0x100030790, symSize: 0x98 }
  - { offset: 0xA764B, size: 0x8, addend: 0x0, symName: '__ZN4core4iter8adapters3map8map_fold28_$u7b$$u7b$closure$u7d$$u7d$17h3b822f33edf0325cE', symObjAddr: 0xBAC, symBinAddr: 0x100030828, symSize: 0x98 }
  - { offset: 0xA76D2, size: 0x8, addend: 0x0, symName: '__ZN4core4iter8adapters3map8map_fold28_$u7b$$u7b$closure$u7d$$u7d$17h41c1d0a0476c3fecE', symObjAddr: 0xC44, symBinAddr: 0x1000308C0, symSize: 0x98 }
  - { offset: 0xA7759, size: 0x8, addend: 0x0, symName: '__ZN4core4iter8adapters3map8map_fold28_$u7b$$u7b$closure$u7d$$u7d$17h4567fd54a073680cE', symObjAddr: 0xCDC, symBinAddr: 0x100030958, symSize: 0x88 }
  - { offset: 0xA77DE, size: 0x8, addend: 0x0, symName: '__ZN4core4iter8adapters3map8map_fold28_$u7b$$u7b$closure$u7d$$u7d$17h4d8edb5677ea7e67E', symObjAddr: 0xD64, symBinAddr: 0x1000309E0, symSize: 0x98 }
  - { offset: 0xA7865, size: 0x8, addend: 0x0, symName: '__ZN4core4iter8adapters3map8map_fold28_$u7b$$u7b$closure$u7d$$u7d$17h4e7001d85f82ec45E', symObjAddr: 0xDFC, symBinAddr: 0x100030A78, symSize: 0x7C }
  - { offset: 0xA78EA, size: 0x8, addend: 0x0, symName: '__ZN4core4iter8adapters3map8map_fold28_$u7b$$u7b$closure$u7d$$u7d$17h65f3597079e8d0e4E', symObjAddr: 0xE78, symBinAddr: 0x100030AF4, symSize: 0x84 }
  - { offset: 0xA796F, size: 0x8, addend: 0x0, symName: '__ZN4core4iter8adapters3map8map_fold28_$u7b$$u7b$closure$u7d$$u7d$17h79e35dabc2e5d9c1E', symObjAddr: 0xEFC, symBinAddr: 0x100030B78, symSize: 0x8C }
  - { offset: 0xA79F4, size: 0x8, addend: 0x0, symName: '__ZN4core4iter8adapters3map8map_fold28_$u7b$$u7b$closure$u7d$$u7d$17ha202da2d0cdfba6fE', symObjAddr: 0xF88, symBinAddr: 0x100030C04, symSize: 0x90 }
  - { offset: 0xA7A79, size: 0x8, addend: 0x0, symName: '__ZN4core4iter8adapters3map8map_fold28_$u7b$$u7b$closure$u7d$$u7d$17hc270d3fe6eb1c1ecE', symObjAddr: 0x1018, symBinAddr: 0x100030C94, symSize: 0x78 }
  - { offset: 0xA7AFE, size: 0x8, addend: 0x0, symName: '__ZN4core4iter8adapters3map8map_fold28_$u7b$$u7b$closure$u7d$$u7d$17hc95d47bc2d6983c0E', symObjAddr: 0x1090, symBinAddr: 0x100030D0C, symSize: 0x88 }
  - { offset: 0xA7B83, size: 0x8, addend: 0x0, symName: '__ZN4core4iter8adapters3map8map_fold28_$u7b$$u7b$closure$u7d$$u7d$17hcd2382738063acc7E', symObjAddr: 0x1118, symBinAddr: 0x100030D94, symSize: 0x98 }
  - { offset: 0xA7C0A, size: 0x8, addend: 0x0, symName: '__ZN4core4iter8adapters3map8map_fold28_$u7b$$u7b$closure$u7d$$u7d$17hf3c1f409f65c0078E', symObjAddr: 0x11B0, symBinAddr: 0x100030E2C, symSize: 0x90 }
  - { offset: 0xA7E8D, size: 0x8, addend: 0x0, symName: '__ZN4core4iter8adapters3map12map_try_fold28_$u7b$$u7b$closure$u7d$$u7d$17h84e8a2381ff03317E', symObjAddr: 0x948, symBinAddr: 0x1000305C4, symSize: 0xA8 }
  - { offset: 0xA8553, size: 0x8, addend: 0x0, symName: __ZN4core4iter6traits8iterator8Iterator3sum17h02a761c6726f62caE, symObjAddr: 0x5F4, symBinAddr: 0x100030270, symSize: 0x2C }
  - { offset: 0xA8593, size: 0x8, addend: 0x0, symName: __ZN4core4iter6traits8iterator8Iterator3sum17h171474144a30bc47E, symObjAddr: 0x620, symBinAddr: 0x10003029C, symSize: 0x2C }
  - { offset: 0xA85D3, size: 0x8, addend: 0x0, symName: __ZN4core4iter6traits8iterator8Iterator3sum17h24b6c18d6b544adfE, symObjAddr: 0x64C, symBinAddr: 0x1000302C8, symSize: 0x2C }
  - { offset: 0xA8613, size: 0x8, addend: 0x0, symName: __ZN4core4iter6traits8iterator8Iterator3sum17h2c2870b972121d45E, symObjAddr: 0x678, symBinAddr: 0x1000302F4, symSize: 0x14 }
  - { offset: 0xA8654, size: 0x8, addend: 0x0, symName: __ZN4core4iter6traits8iterator8Iterator3sum17hef270521e60c2ecbE, symObjAddr: 0x68C, symBinAddr: 0x100030308, symSize: 0x14 }
  - { offset: 0xA8695, size: 0x8, addend: 0x0, symName: __ZN4core4iter6traits8iterator8Iterator7collect17h246dea8503bf7afbE, symObjAddr: 0x6A0, symBinAddr: 0x10003031C, symSize: 0x2C }
  - { offset: 0xA86D5, size: 0x8, addend: 0x0, symName: __ZN4core4iter6traits8iterator8Iterator7collect17h294e98349fbba67cE, symObjAddr: 0x6CC, symBinAddr: 0x100030348, symSize: 0x14 }
  - { offset: 0xA8716, size: 0x8, addend: 0x0, symName: __ZN4core4iter6traits8iterator8Iterator7collect17h43baeb144cc75466E, symObjAddr: 0x6E0, symBinAddr: 0x10003035C, symSize: 0x14 }
  - { offset: 0xA8757, size: 0x8, addend: 0x0, symName: __ZN4core4iter6traits8iterator8Iterator7collect17h8527045861979ab6E, symObjAddr: 0x6F4, symBinAddr: 0x100030370, symSize: 0x14 }
  - { offset: 0xA8798, size: 0x8, addend: 0x0, symName: __ZN4core4iter6traits8iterator8Iterator7collect17h9bc282f4a0cd64dfE, symObjAddr: 0x708, symBinAddr: 0x100030384, symSize: 0x2C }
  - { offset: 0xA87D8, size: 0x8, addend: 0x0, symName: __ZN4core4iter6traits8iterator8Iterator7collect17ha55a14c5a6f42c19E, symObjAddr: 0x734, symBinAddr: 0x1000303B0, symSize: 0x14 }
  - { offset: 0xA8819, size: 0x8, addend: 0x0, symName: __ZN4core4iter6traits8iterator8Iterator7collect17hc716fba58aca92ceE, symObjAddr: 0x748, symBinAddr: 0x1000303C4, symSize: 0x14 }
  - { offset: 0xA885A, size: 0x8, addend: 0x0, symName: __ZN4core4iter6traits8iterator8Iterator7collect17hc7c366acf2c4b410E, symObjAddr: 0x75C, symBinAddr: 0x1000303D8, symSize: 0x14 }
  - { offset: 0xA889B, size: 0x8, addend: 0x0, symName: __ZN4core4iter6traits8iterator8Iterator7collect17hd13dc73f92093e2aE, symObjAddr: 0x770, symBinAddr: 0x1000303EC, symSize: 0x14 }
  - { offset: 0xA88DC, size: 0x8, addend: 0x0, symName: __ZN4core4iter6traits8iterator8Iterator7collect17hfe281a2246b625a2E, symObjAddr: 0x784, symBinAddr: 0x100030400, symSize: 0x14 }
  - { offset: 0xA891D, size: 0x8, addend: 0x0, symName: __ZN4core4iter6traits8iterator8Iterator8for_each17h012ab76a49893701E, symObjAddr: 0x798, symBinAddr: 0x100030414, symSize: 0x34 }
  - { offset: 0xA8989, size: 0x8, addend: 0x0, symName: __ZN4core4iter6traits8iterator8Iterator8for_each17h05242ca46a21718bE, symObjAddr: 0x7CC, symBinAddr: 0x100030448, symSize: 0x34 }
  - { offset: 0xA89F5, size: 0x8, addend: 0x0, symName: __ZN4core4iter6traits8iterator8Iterator8for_each17h1d3e46d726406cbbE, symObjAddr: 0x800, symBinAddr: 0x10003047C, symSize: 0x24 }
  - { offset: 0xA8A41, size: 0x8, addend: 0x0, symName: __ZN4core4iter6traits8iterator8Iterator8for_each17h2553c1b5a79bcd67E, symObjAddr: 0x824, symBinAddr: 0x1000304A0, symSize: 0x44 }
  - { offset: 0xA8AAC, size: 0x8, addend: 0x0, symName: __ZN4core4iter6traits8iterator8Iterator8for_each17h3136398fca1a3eeaE, symObjAddr: 0x868, symBinAddr: 0x1000304E4, symSize: 0x44 }
  - { offset: 0xA8B17, size: 0x8, addend: 0x0, symName: __ZN4core4iter6traits8iterator8Iterator8for_each17h5499039a4904c4d6E, symObjAddr: 0x8AC, symBinAddr: 0x100030528, symSize: 0x34 }
  - { offset: 0xA8B83, size: 0x8, addend: 0x0, symName: __ZN4core4iter6traits8iterator8Iterator8for_each17h80aae72cc3f547f1E, symObjAddr: 0x8E0, symBinAddr: 0x10003055C, symSize: 0x34 }
  - { offset: 0xA8BEF, size: 0x8, addend: 0x0, symName: __ZN4core4iter6traits8iterator8Iterator8for_each17hf649a57b13db9ba3E, symObjAddr: 0x914, symBinAddr: 0x100030590, symSize: 0x34 }
  - { offset: 0xA8C67, size: 0x8, addend: 0x0, symName: '__ZN63_$LT$I$u20$as$u20$core..iter..traits..collect..IntoIterator$GT$9into_iter17h22b410bf7b68760dE', symObjAddr: 0x1240, symBinAddr: 0x100030EBC, symSize: 0x1C }
  - { offset: 0xA8C9E, size: 0x8, addend: 0x0, symName: '__ZN63_$LT$I$u20$as$u20$core..iter..traits..collect..IntoIterator$GT$9into_iter17h7248fe668d3fe581E', symObjAddr: 0x125C, symBinAddr: 0x100030ED8, symSize: 0x18 }
  - { offset: 0xA8CD5, size: 0x8, addend: 0x0, symName: '__ZN63_$LT$I$u20$as$u20$core..iter..traits..collect..IntoIterator$GT$9into_iter17h745975a551cfea8aE', symObjAddr: 0x1274, symBinAddr: 0x100030EF0, symSize: 0x18 }
  - { offset: 0xA8D0C, size: 0x8, addend: 0x0, symName: '__ZN63_$LT$I$u20$as$u20$core..iter..traits..collect..IntoIterator$GT$9into_iter17h7e58246b45ed9afeE', symObjAddr: 0x128C, symBinAddr: 0x100030F08, symSize: 0x30 }
  - { offset: 0xA8D44, size: 0x8, addend: 0x0, symName: '__ZN63_$LT$I$u20$as$u20$core..iter..traits..collect..IntoIterator$GT$9into_iter17h8d95661d87501fe0E', symObjAddr: 0x12BC, symBinAddr: 0x100030F38, symSize: 0x18 }
  - { offset: 0xA8D7B, size: 0x8, addend: 0x0, symName: '__ZN63_$LT$I$u20$as$u20$core..iter..traits..collect..IntoIterator$GT$9into_iter17h9e681b066d819b1eE', symObjAddr: 0x12D4, symBinAddr: 0x100030F50, symSize: 0x18 }
  - { offset: 0xA8DB2, size: 0x8, addend: 0x0, symName: '__ZN63_$LT$I$u20$as$u20$core..iter..traits..collect..IntoIterator$GT$9into_iter17ha0c9912380a02cabE', symObjAddr: 0x12EC, symBinAddr: 0x100030F68, symSize: 0x1C }
  - { offset: 0xA8DE9, size: 0x8, addend: 0x0, symName: '__ZN63_$LT$I$u20$as$u20$core..iter..traits..collect..IntoIterator$GT$9into_iter17ha687bff4ae4e4325E', symObjAddr: 0x1308, symBinAddr: 0x100030F84, symSize: 0x18 }
  - { offset: 0xA8E20, size: 0x8, addend: 0x0, symName: '__ZN63_$LT$I$u20$as$u20$core..iter..traits..collect..IntoIterator$GT$9into_iter17hd3bf87cd3059ef28E', symObjAddr: 0x1320, symBinAddr: 0x100030F9C, symSize: 0x18 }
  - { offset: 0xA8E57, size: 0x8, addend: 0x0, symName: '__ZN63_$LT$I$u20$as$u20$core..iter..traits..collect..IntoIterator$GT$9into_iter17he3a4af38192aebeeE', symObjAddr: 0x1338, symBinAddr: 0x100030FB4, symSize: 0x14 }
  - { offset: 0xAABEA, size: 0x8, addend: 0x0, symName: '__ZN48_$LT$A$u20$as$u20$core..slice..cmp..SliceOrd$GT$7compare17h2ff83d7b1d7fbf92E', symObjAddr: 0x0, symBinAddr: 0x100030FC8, symSize: 0xE4 }
  - { offset: 0xAAC93, size: 0x8, addend: 0x0, symName: '__ZN48_$LT$A$u20$as$u20$core..slice..cmp..SliceOrd$GT$7compare17h2ff83d7b1d7fbf92E', symObjAddr: 0x0, symBinAddr: 0x100030FC8, symSize: 0xE4 }
  - { offset: 0xAADDD, size: 0x8, addend: 0x0, symName: '__ZN4core5slice3cmp81_$LT$impl$u20$core..cmp..PartialEq$LT$$u5b$U$u5d$$GT$$u20$for$u20$$u5b$T$u5d$$GT$2eq17hbcca6071b705272dE', symObjAddr: 0xE4, symBinAddr: 0x1000310AC, symSize: 0x6C }
  - { offset: 0xAAE4C, size: 0x8, addend: 0x0, symName: '__ZN63_$LT$A$u20$as$u20$core..slice..cmp..SlicePartialEq$LT$B$GT$$GT$17equal_same_length17h8c78afc71d9c8eb0E', symObjAddr: 0x150, symBinAddr: 0x100031118, symSize: 0x48 }
  - { offset: 0xAAF89, size: 0x8, addend: 0x0, symName: __ZN3std2fs11OpenOptions4open17h026ea2ba98876e38E, symObjAddr: 0x0, symBinAddr: 0x100031160, symSize: 0x74 }
  - { offset: 0xAB316, size: 0x8, addend: 0x0, symName: __ZN3std2io5Write9write_all17h5631e5a21168c65aE, symObjAddr: 0x2D4, symBinAddr: 0x100031434, symSize: 0x248 }
  - { offset: 0xAB4FC, size: 0x8, addend: 0x0, symName: __ZN3std2io5Write9write_fmt17h5214cde939ad8fecE, symObjAddr: 0x51C, symBinAddr: 0x10003167C, symSize: 0x8C }
  - { offset: 0xAB635, size: 0x8, addend: 0x0, symName: __ZN3std2fs4read17h88dabf5b2ffdb784E, symObjAddr: 0x130, symBinAddr: 0x100031290, symSize: 0x68 }
  - { offset: 0xAB66C, size: 0x8, addend: 0x0, symName: __ZN3std2fs5write17h8593297a1e2edb5cE, symObjAddr: 0x198, symBinAddr: 0x1000312F8, symSize: 0x8C }
  - { offset: 0xAB6BB, size: 0x8, addend: 0x0, symName: __ZN3std2fs5write17hefcb846811987637E, symObjAddr: 0x224, symBinAddr: 0x100031384, symSize: 0xB0 }
  - { offset: 0xABF24, size: 0x8, addend: 0x0, symName: __ZN3std2fs11OpenOptions4open17h026ea2ba98876e38E, symObjAddr: 0x0, symBinAddr: 0x100031160, symSize: 0x74 }
  - { offset: 0xABFF7, size: 0x8, addend: 0x0, symName: __ZN3std2fs4File6create17h07c9a34fb0957411E, symObjAddr: 0x74, symBinAddr: 0x1000311D4, symSize: 0xBC }
  - { offset: 0xAC369, size: 0x8, addend: 0x0, symName: '__ZN4core4hash3sip15Hasher$LT$S$GT$5reset17h1e133fb1fa765f21E', symObjAddr: 0x0, symBinAddr: 0x100031708, symSize: 0x8C }
  - { offset: 0xAC44B, size: 0x8, addend: 0x0, symName: '__ZN71_$LT$core..hash..sip..Hasher$LT$S$GT$$u20$as$u20$core..hash..Hasher$GT$5write17he4bd4eadf7a4db0fE', symObjAddr: 0x8C, symBinAddr: 0x100031794, symSize: 0x230 }
  - { offset: 0xAC5C4, size: 0x8, addend: 0x0, symName: '__ZN71_$LT$core..hash..sip..Hasher$LT$S$GT$$u20$as$u20$core..hash..Hasher$GT$6finish17h7cb9b8c96179f3e1E', symObjAddr: 0x2BC, symBinAddr: 0x1000319C4, symSize: 0xA0 }
  - { offset: 0xAC637, size: 0x8, addend: 0x0, symName: '__ZN71_$LT$core..hash..sip..Hasher$LT$S$GT$$u20$as$u20$core..hash..Hasher$GT$9write_str17h112c1f52ab18b35fE', symObjAddr: 0x35C, symBinAddr: 0x100031A64, symSize: 0x5C }
  - { offset: 0xAC7F1, size: 0x8, addend: 0x0, symName: '__ZN4core4hash3sip15Hasher$LT$S$GT$5reset17h1e133fb1fa765f21E', symObjAddr: 0x0, symBinAddr: 0x100031708, symSize: 0x8C }
  - { offset: 0xAC8AD, size: 0x8, addend: 0x0, symName: __ZN4core5slice3raw14from_raw_parts17h5f14a7e11bc6bd46E, symObjAddr: 0x0, symBinAddr: 0x100031AC0, symSize: 0x5C }
  - { offset: 0xAC99C, size: 0x8, addend: 0x0, symName: __ZN4core5slice3raw14from_raw_parts17h5f14a7e11bc6bd46E, symObjAddr: 0x0, symBinAddr: 0x100031AC0, symSize: 0x5C }
  - { offset: 0xAC9DF, size: 0x8, addend: 0x0, symName: __ZN4core5slice3raw14from_raw_parts17h9309e798f2f27f17E, symObjAddr: 0x5C, symBinAddr: 0x100031B1C, symSize: 0x5C }
  - { offset: 0xACA22, size: 0x8, addend: 0x0, symName: __ZN4core5slice3raw14from_raw_parts17hc1f6bfef8c122ce7E, symObjAddr: 0xB8, symBinAddr: 0x100031B78, symSize: 0x58 }
  - { offset: 0xACB6B, size: 0x8, addend: 0x0, symName: '__ZN5alloc7raw_vec19RawVec$LT$T$C$A$GT$8grow_one17h04c59eb857366fa3E', symObjAddr: 0x0, symBinAddr: 0x100031BD0, symSize: 0x88 }
  - { offset: 0xAECC2, size: 0x8, addend: 0x0, symName: '__ZN5alloc7raw_vec19RawVec$LT$T$C$A$GT$8grow_one17h04c59eb857366fa3E', symObjAddr: 0x0, symBinAddr: 0x100031BD0, symSize: 0x88 }
  - { offset: 0xAED72, size: 0x8, addend: 0x0, symName: '__ZN5alloc7raw_vec19RawVec$LT$T$C$A$GT$8grow_one17h09133112c031c7faE', symObjAddr: 0x88, symBinAddr: 0x100031C58, symSize: 0x88 }
  - { offset: 0xAEE22, size: 0x8, addend: 0x0, symName: '__ZN5alloc7raw_vec19RawVec$LT$T$C$A$GT$8grow_one17h095a5373bd00009dE', symObjAddr: 0x110, symBinAddr: 0x100031CE0, symSize: 0x88 }
  - { offset: 0xAEEE0, size: 0x8, addend: 0x0, symName: '__ZN5alloc7raw_vec19RawVec$LT$T$C$A$GT$8grow_one17h113db6ff91d98529E', symObjAddr: 0x198, symBinAddr: 0x100031D68, symSize: 0x88 }
  - { offset: 0xAEFDF, size: 0x8, addend: 0x0, symName: '__ZN5alloc7raw_vec19RawVec$LT$T$C$A$GT$8grow_one17h1aab5d86bc067e88E', symObjAddr: 0x220, symBinAddr: 0x100031DF0, symSize: 0x88 }
  - { offset: 0xAF08F, size: 0x8, addend: 0x0, symName: '__ZN5alloc7raw_vec19RawVec$LT$T$C$A$GT$8grow_one17h46d551334db13d2fE', symObjAddr: 0x2A8, symBinAddr: 0x100031E78, symSize: 0x84 }
  - { offset: 0xAF175, size: 0x8, addend: 0x0, symName: '__ZN5alloc7raw_vec19RawVec$LT$T$C$A$GT$8grow_one17h4c72caa3a517e440E', symObjAddr: 0x32C, symBinAddr: 0x100031EFC, symSize: 0x88 }
  - { offset: 0xAF225, size: 0x8, addend: 0x0, symName: '__ZN5alloc7raw_vec19RawVec$LT$T$C$A$GT$8grow_one17h80f464ea520d5be5E', symObjAddr: 0x3B4, symBinAddr: 0x100031F84, symSize: 0x84 }
  - { offset: 0xAF2FC, size: 0x8, addend: 0x0, symName: '__ZN5alloc7raw_vec19RawVec$LT$T$C$A$GT$8grow_one17h862146aba2c31e2dE', symObjAddr: 0x438, symBinAddr: 0x100032008, symSize: 0x88 }
  - { offset: 0xAF3AC, size: 0x8, addend: 0x0, symName: '__ZN5alloc7raw_vec19RawVec$LT$T$C$A$GT$8grow_one17h8680e0ac6742c7ffE', symObjAddr: 0x4C0, symBinAddr: 0x100032090, symSize: 0x84 }
  - { offset: 0xAF45C, size: 0x8, addend: 0x0, symName: '__ZN5alloc7raw_vec19RawVec$LT$T$C$A$GT$8grow_one17h9831ecdc089523e3E', symObjAddr: 0x544, symBinAddr: 0x100032114, symSize: 0x88 }
  - { offset: 0xAF52A, size: 0x8, addend: 0x0, symName: '__ZN5alloc7raw_vec19RawVec$LT$T$C$A$GT$8grow_one17h9eeef234f7cff3c9E', symObjAddr: 0x5CC, symBinAddr: 0x10003219C, symSize: 0x88 }
  - { offset: 0xAF5DA, size: 0x8, addend: 0x0, symName: '__ZN5alloc7raw_vec19RawVec$LT$T$C$A$GT$8grow_one17ha17cac0f9d21a95cE', symObjAddr: 0x654, symBinAddr: 0x100032224, symSize: 0x88 }
  - { offset: 0xAF68A, size: 0x8, addend: 0x0, symName: '__ZN5alloc7raw_vec19RawVec$LT$T$C$A$GT$8grow_one17ha6d6091ea4c6412fE', symObjAddr: 0x6DC, symBinAddr: 0x1000322AC, symSize: 0x88 }
  - { offset: 0xAF758, size: 0x8, addend: 0x0, symName: '__ZN5alloc7raw_vec19RawVec$LT$T$C$A$GT$8grow_one17had6ddeba22bb3f97E', symObjAddr: 0x764, symBinAddr: 0x100032334, symSize: 0x88 }
  - { offset: 0xAF808, size: 0x8, addend: 0x0, symName: '__ZN5alloc7raw_vec19RawVec$LT$T$C$A$GT$8grow_one17hb63b20fc00ea82dcE', symObjAddr: 0x7EC, symBinAddr: 0x1000323BC, symSize: 0x88 }
  - { offset: 0xAFB10, size: 0x8, addend: 0x0, symName: '__ZN5alloc7raw_vec19RawVec$LT$T$C$A$GT$8grow_one17hbd90d861fadd2e3eE', symObjAddr: 0x874, symBinAddr: 0x100032444, symSize: 0x84 }
  - { offset: 0xAFBC0, size: 0x8, addend: 0x0, symName: '__ZN5alloc7raw_vec19RawVec$LT$T$C$A$GT$8grow_one17hec5a82eddc6eafa7E', symObjAddr: 0x8F8, symBinAddr: 0x1000324C8, symSize: 0x88 }
  - { offset: 0xAFC70, size: 0x8, addend: 0x0, symName: '__ZN5alloc7raw_vec19RawVec$LT$T$C$A$GT$8grow_one17hf6d5602fdb7ee18dE', symObjAddr: 0x980, symBinAddr: 0x100032550, symSize: 0x88 }
  - { offset: 0xAFDCE, size: 0x8, addend: 0x0, symName: '__ZN5alloc7raw_vec20RawVecInner$LT$A$GT$14current_memory17h87cb88a500935e15E', symObjAddr: 0xA08, symBinAddr: 0x1000325D8, symSize: 0x10C }
  - { offset: 0xB003F, size: 0x8, addend: 0x0, symName: '__ZN5alloc7raw_vec20RawVecInner$LT$A$GT$16shrink_unchecked17h8be1ed767a862219E', symObjAddr: 0xB14, symBinAddr: 0x1000326E4, symSize: 0x28C }
  - { offset: 0xB03D8, size: 0x8, addend: 0x0, symName: '__ZN5alloc7raw_vec20RawVecInner$LT$A$GT$16with_capacity_in17h0ecf977c9ddc8679E', symObjAddr: 0xDA0, symBinAddr: 0x100032970, symSize: 0xF0 }
  - { offset: 0xB055C, size: 0x8, addend: 0x0, symName: '__ZN5alloc7raw_vec20RawVecInner$LT$A$GT$6shrink17h5fc6ffb83a61a87cE', symObjAddr: 0xE90, symBinAddr: 0x100032A60, symSize: 0xB8 }
  - { offset: 0xB061D, size: 0x8, addend: 0x0, symName: '__ZN3std4hash6random11RandomState3new28_$u7b$$u7b$closure$u7d$$u7d$17h4c71af242378208fE', symObjAddr: 0x0, symBinAddr: 0x100032B18, symSize: 0x2C }
  - { offset: 0xB0779, size: 0x8, addend: 0x0, symName: __ZN4core4hash11BuildHasher8hash_one17h5b65a44bfabdab61E, symObjAddr: 0x60, symBinAddr: 0x100032B78, symSize: 0x84 }
  - { offset: 0xB07DE, size: 0x8, addend: 0x0, symName: __ZN4core4hash11BuildHasher8hash_one17ha807092ad3fb9553E, symObjAddr: 0xE4, symBinAddr: 0x100032BFC, symSize: 0x84 }
  - { offset: 0xB0849, size: 0x8, addend: 0x0, symName: __ZN4core4hash6Hasher11write_usize17hfb8bba2ccf7b2a76E, symObjAddr: 0x168, symBinAddr: 0x100032C80, symSize: 0x3C }
  - { offset: 0xB08A9, size: 0x8, addend: 0x0, symName: __ZN4core4hash6Hasher9write_u6417h06897324856b3f80E, symObjAddr: 0x1A4, symBinAddr: 0x100032CBC, symSize: 0x3C }
  - { offset: 0xB0BBA, size: 0x8, addend: 0x0, symName: '__ZN3std4hash6random11RandomState3new28_$u7b$$u7b$closure$u7d$$u7d$17h4c71af242378208fE', symObjAddr: 0x0, symBinAddr: 0x100032B18, symSize: 0x2C }
  - { offset: 0xB0C7B, size: 0x8, addend: 0x0, symName: '__ZN3std4hash6random11RandomState3new4KEYS29_$u7b$$u7b$constant$u7d$$u7d$28_$u7b$$u7b$closure$u7d$$u7d$17h894db68a26e67191E', symObjAddr: 0x2C, symBinAddr: 0x100032B44, symSize: 0x34 }
  - { offset: 0xB0E7B, size: 0x8, addend: 0x0, symName: __ZN3std4sync6poison7condvar7Condvar3new17h4966e01f71192ce9E, symObjAddr: 0x0, symBinAddr: 0x100032CF8, symSize: 0x34 }
  - { offset: 0xB1148, size: 0x8, addend: 0x0, symName: __ZN3std4sync6poison7condvar7Condvar3new17h4966e01f71192ce9E, symObjAddr: 0x0, symBinAddr: 0x100032CF8, symSize: 0x34 }
  - { offset: 0xB11CC, size: 0x8, addend: 0x0, symName: __ZN4core5slice4sort6stable9quicksort16stable_partition17h07f0e70ead71ffeaE, symObjAddr: 0x0, symBinAddr: 0x100032D2C, symSize: 0x42C }
  - { offset: 0xB3BF9, size: 0x8, addend: 0x0, symName: __ZN4core5slice4sort6stable9quicksort16stable_partition17h07f0e70ead71ffeaE, symObjAddr: 0x0, symBinAddr: 0x100032D2C, symSize: 0x42C }
  - { offset: 0xB4110, size: 0x8, addend: 0x0, symName: __ZN4core5slice4sort6stable9quicksort16stable_partition17h0831de02fb90cffdE, symObjAddr: 0x42C, symBinAddr: 0x100033158, symSize: 0x42C }
  - { offset: 0xB4627, size: 0x8, addend: 0x0, symName: __ZN4core5slice4sort6stable9quicksort16stable_partition17h10cf87370dc5c4b2E, symObjAddr: 0x858, symBinAddr: 0x100033584, symSize: 0x35C }
  - { offset: 0xB4B00, size: 0x8, addend: 0x0, symName: __ZN4core5slice4sort6stable9quicksort16stable_partition17h25db4693dbc85972E, symObjAddr: 0xBB4, symBinAddr: 0x1000338E0, symSize: 0x35C }
  - { offset: 0xB4F4C, size: 0x8, addend: 0x0, symName: __ZN4core5slice4sort6stable9quicksort16stable_partition17h4818d6c5d1198e54E, symObjAddr: 0xF10, symBinAddr: 0x100033C3C, symSize: 0x35C }
  - { offset: 0xB5398, size: 0x8, addend: 0x0, symName: __ZN4core5slice4sort6stable9quicksort16stable_partition17h5477c4bd426a0767E, symObjAddr: 0x126C, symBinAddr: 0x100033F98, symSize: 0x42C }
  - { offset: 0xB5822, size: 0x8, addend: 0x0, symName: __ZN4core5slice4sort6stable9quicksort16stable_partition17h5d813d3060d8859dE, symObjAddr: 0x1698, symBinAddr: 0x1000343C4, symSize: 0x42C }
  - { offset: 0xB5CAC, size: 0x8, addend: 0x0, symName: __ZN4core5slice4sort6stable9quicksort16stable_partition17h5ff69bf10d1e6007E, symObjAddr: 0x1AC4, symBinAddr: 0x1000347F0, symSize: 0x42C }
  - { offset: 0xB61C3, size: 0x8, addend: 0x0, symName: __ZN4core5slice4sort6stable9quicksort16stable_partition17h6aa40cacdb03af27E, symObjAddr: 0x1EF0, symBinAddr: 0x100034C1C, symSize: 0x35C }
  - { offset: 0xB660F, size: 0x8, addend: 0x0, symName: __ZN4core5slice4sort6stable9quicksort16stable_partition17ha0d6fc8c80e2f5bcE, symObjAddr: 0x224C, symBinAddr: 0x100034F78, symSize: 0x35C }
  - { offset: 0xB6A5B, size: 0x8, addend: 0x0, symName: __ZN4core5slice4sort6stable9quicksort16stable_partition17ha346c811f775682dE, symObjAddr: 0x25A8, symBinAddr: 0x1000352D4, symSize: 0x35C }
  - { offset: 0xB6EA7, size: 0x8, addend: 0x0, symName: __ZN4core5slice4sort6stable9quicksort16stable_partition17hdd4b9dc710cc8499E, symObjAddr: 0x2904, symBinAddr: 0x100035630, symSize: 0x42C }
  - { offset: 0xB7331, size: 0x8, addend: 0x0, symName: __ZN4core5slice4sort6stable9quicksort9quicksort17h147ed16b02552be2E, symObjAddr: 0x335C, symBinAddr: 0x100036088, symSize: 0x338 }
  - { offset: 0xB75E2, size: 0x8, addend: 0x0, symName: __ZN4core5slice4sort6stable9quicksort9quicksort17h420bc6482845f236E, symObjAddr: 0x3694, symBinAddr: 0x1000363C0, symSize: 0x344 }
  - { offset: 0xB7893, size: 0x8, addend: 0x0, symName: __ZN4core5slice4sort6stable9quicksort9quicksort17h4d6a593eceec5c13E, symObjAddr: 0x39D8, symBinAddr: 0x100036704, symSize: 0x344 }
  - { offset: 0xB7B44, size: 0x8, addend: 0x0, symName: __ZN4core5slice4sort6stable9quicksort9quicksort17h6305e0c3b5df4798E, symObjAddr: 0x3D1C, symBinAddr: 0x100036A48, symSize: 0x338 }
  - { offset: 0xB7DF5, size: 0x8, addend: 0x0, symName: __ZN4core5slice4sort6stable9quicksort9quicksort17h7572306c17ff9915E, symObjAddr: 0x4054, symBinAddr: 0x100036D80, symSize: 0x344 }
  - { offset: 0xB80A6, size: 0x8, addend: 0x0, symName: __ZN4core5slice4sort6stable9quicksort9quicksort17h94bc00a3158ad767E, symObjAddr: 0x4398, symBinAddr: 0x1000370C4, symSize: 0x338 }
  - { offset: 0xB8342, size: 0x8, addend: 0x0, symName: '__ZN4core5slice4sort6stable9quicksort9quicksort28_$u7b$$u7b$closure$u7d$$u7d$17h1937d92dabf505e6E', symObjAddr: 0x46D0, symBinAddr: 0x1000373FC, symSize: 0x48 }
  - { offset: 0xB839F, size: 0x8, addend: 0x0, symName: '__ZN4core5slice4sort6stable9quicksort9quicksort28_$u7b$$u7b$closure$u7d$$u7d$17h20e3ea82f79ec19cE', symObjAddr: 0x4718, symBinAddr: 0x100037444, symSize: 0x48 }
  - { offset: 0xB83FC, size: 0x8, addend: 0x0, symName: '__ZN4core5slice4sort6stable9quicksort9quicksort28_$u7b$$u7b$closure$u7d$$u7d$17h276093d2b8809aa0E', symObjAddr: 0x4760, symBinAddr: 0x10003748C, symSize: 0x48 }
  - { offset: 0xB8459, size: 0x8, addend: 0x0, symName: '__ZN4core5slice4sort6stable9quicksort9quicksort28_$u7b$$u7b$closure$u7d$$u7d$17h48f73ab986c67c50E', symObjAddr: 0x47A8, symBinAddr: 0x1000374D4, symSize: 0x48 }
  - { offset: 0xB84B6, size: 0x8, addend: 0x0, symName: '__ZN4core5slice4sort6stable9quicksort9quicksort28_$u7b$$u7b$closure$u7d$$u7d$17h4e014fd2f91ef6e2E', symObjAddr: 0x47F0, symBinAddr: 0x10003751C, symSize: 0x48 }
  - { offset: 0xB8513, size: 0x8, addend: 0x0, symName: '__ZN4core5slice4sort6stable9quicksort9quicksort28_$u7b$$u7b$closure$u7d$$u7d$17hd0fa4719b0777545E', symObjAddr: 0x4838, symBinAddr: 0x100037564, symSize: 0x48 }
  - { offset: 0xB85E8, size: 0x8, addend: 0x0, symName: '__ZN68_$LT$T$u20$as$u20$core..slice..sort..stable..quicksort..IsFreeze$GT$9is_freeze17hdb097fb97e0b6358E', symObjAddr: 0x4880, symBinAddr: 0x1000375AC, symSize: 0xC }
  - { offset: 0xB98A7, size: 0x8, addend: 0x0, symName: '__ZN4core5slice4sort6stable9quicksort23PartitionState$LT$T$GT$13partition_one17h611dafe357556acfE', symObjAddr: 0x2D30, symBinAddr: 0x100035A5C, symSize: 0x13C }
  - { offset: 0xB999F, size: 0x8, addend: 0x0, symName: '__ZN4core5slice4sort6stable9quicksort23PartitionState$LT$T$GT$13partition_one17h813f0e29ae3adb1bE', symObjAddr: 0x2E6C, symBinAddr: 0x100035B98, symSize: 0x13C }
  - { offset: 0xB9A97, size: 0x8, addend: 0x0, symName: '__ZN4core5slice4sort6stable9quicksort23PartitionState$LT$T$GT$13partition_one17hb7d930cad9ac0ae6E', symObjAddr: 0x2FA8, symBinAddr: 0x100035CD4, symSize: 0x13C }
  - { offset: 0xB9B8D, size: 0x8, addend: 0x0, symName: '__ZN4core5slice4sort6stable9quicksort23PartitionState$LT$T$GT$13partition_one17hc288b1960405512aE', symObjAddr: 0x30E4, symBinAddr: 0x100035E10, symSize: 0x13C }
  - { offset: 0xB9C83, size: 0x8, addend: 0x0, symName: '__ZN4core5slice4sort6stable9quicksort23PartitionState$LT$T$GT$13partition_one17he500b8c56f7ff36aE', symObjAddr: 0x3220, symBinAddr: 0x100035F4C, symSize: 0x13C }
  - { offset: 0xBA075, size: 0x8, addend: 0x0, symName: '__ZN63_$LT$std..time..SystemTimeError$u20$as$u20$core..fmt..Debug$GT$3fmt17h5c3250f91a16ed6cE', symObjAddr: 0x0, symBinAddr: 0x1000375B8, symSize: 0x54 }
  - { offset: 0xBA1DD, size: 0x8, addend: 0x0, symName: '__ZN63_$LT$std..time..SystemTimeError$u20$as$u20$core..fmt..Debug$GT$3fmt17h5c3250f91a16ed6cE', symObjAddr: 0x0, symBinAddr: 0x1000375B8, symSize: 0x54 }
  - { offset: 0xBA2C7, size: 0x8, addend: 0x0, symName: '__ZN115_$LT$core..panic..unwind_safe..AssertUnwindSafe$LT$F$GT$$u20$as$u20$core..ops..function..FnOnce$LT$$LP$$RP$$GT$$GT$9call_once17h86519571c01120eeE', symObjAddr: 0x0, symBinAddr: 0x10003760C, symSize: 0x38 }
  - { offset: 0xBAA72, size: 0x8, addend: 0x0, symName: '__ZN115_$LT$core..panic..unwind_safe..AssertUnwindSafe$LT$F$GT$$u20$as$u20$core..ops..function..FnOnce$LT$$LP$$RP$$GT$$GT$9call_once17h86519571c01120eeE', symObjAddr: 0x0, symBinAddr: 0x10003760C, symSize: 0x38 }
  - { offset: 0xBAACE, size: 0x8, addend: 0x0, symName: '__ZN115_$LT$core..panic..unwind_safe..AssertUnwindSafe$LT$F$GT$$u20$as$u20$core..ops..function..FnOnce$LT$$LP$$RP$$GT$$GT$9call_once17hf6d17256a15a1ba8E', symObjAddr: 0x38, symBinAddr: 0x100037644, symSize: 0x24 }
  - { offset: 0xBC92E, size: 0x8, addend: 0x0, symName: __ZN4core4time8Duration11from_millis17hccff278dabb10a19E, symObjAddr: 0x0, symBinAddr: 0x100037668, symSize: 0x38 }
  - { offset: 0xBC9EE, size: 0x8, addend: 0x0, symName: __ZN4core4time8Duration11from_millis17hccff278dabb10a19E, symObjAddr: 0x0, symBinAddr: 0x100037668, symSize: 0x38 }
  - { offset: 0xBCA1D, size: 0x8, addend: 0x0, symName: __ZN4core4time8Duration12subsec_nanos17hb8d03665a8a5c258E, symObjAddr: 0x38, symBinAddr: 0x1000376A0, symSize: 0x18 }
  - { offset: 0xBCA40, size: 0x8, addend: 0x0, symName: __ZN4core4time8Duration7as_secs17he8cd159eccf009f4E, symObjAddr: 0x50, symBinAddr: 0x1000376B8, symSize: 0x18 }
  - { offset: 0xBCA6A, size: 0x8, addend: 0x0, symName: __ZN4core4time8Duration8as_nanos17hf3b38b2425db9c19E, symObjAddr: 0x68, symBinAddr: 0x1000376D0, symSize: 0x4C }
  - { offset: 0xBCAAB, size: 0x8, addend: 0x0, symName: __ZN3std4sync4once4Once15call_once_force17h709307e1a27a2deaE, symObjAddr: 0x0, symBinAddr: 0x10003771C, symSize: 0xF4 }
  - { offset: 0xBCADF, size: 0x8, addend: 0x0, symName: '__ZN3std4sync4once4Once15call_once_force28_$u7b$$u7b$closure$u7d$$u7d$17h331a7da0248331efE', symObjAddr: 0x2DC, symBinAddr: 0x1000379F8, symSize: 0x94 }
  - { offset: 0xBCB71, size: 0x8, addend: 0x0, symName: '__ZN3std4sync4once4Once15call_once_force28_$u7b$$u7b$closure$u7d$$u7d$17h56bbbac11081a721E', symObjAddr: 0x370, symBinAddr: 0x100037A8C, symSize: 0x94 }
  - { offset: 0xBCC03, size: 0x8, addend: 0x0, symName: '__ZN3std4sync4once4Once15call_once_force28_$u7b$$u7b$closure$u7d$$u7d$17h9c4c47f5946922c5E', symObjAddr: 0x404, symBinAddr: 0x100037B20, symSize: 0x94 }
  - { offset: 0xBDCFA, size: 0x8, addend: 0x0, symName: __ZN3std4sync4once4Once15call_once_force17h709307e1a27a2deaE, symObjAddr: 0x0, symBinAddr: 0x10003771C, symSize: 0xF4 }
  - { offset: 0xBDDC0, size: 0x8, addend: 0x0, symName: __ZN3std4sync4once4Once15call_once_force17h76f8a7fced452afcE, symObjAddr: 0xF4, symBinAddr: 0x100037810, symSize: 0xF4 }
  - { offset: 0xBDE86, size: 0x8, addend: 0x0, symName: __ZN3std4sync4once4Once15call_once_force17hf1a9d37d160f09c3E, symObjAddr: 0x1E8, symBinAddr: 0x100037904, symSize: 0xF4 }
  - { offset: 0xBE063, size: 0x8, addend: 0x0, symName: __ZN3std6thread9functions5spawn17hd24c01b1d137e5c4E, symObjAddr: 0x0, symBinAddr: 0x100037BB4, symSize: 0x8C }
  - { offset: 0xBFAE2, size: 0x8, addend: 0x0, symName: __ZN3std6thread9functions5spawn17hd24c01b1d137e5c4E, symObjAddr: 0x0, symBinAddr: 0x100037BB4, symSize: 0x8C }
  - { offset: 0xC0E6E, size: 0x8, addend: 0x0, symName: '__ZN64_$LT$core..str..error..Utf8Error$u20$as$u20$core..fmt..Debug$GT$3fmt17hdd5d7eaf031a54fbE', symObjAddr: 0x0, symBinAddr: 0x100037C40, symSize: 0x88 }
  - { offset: 0xC0F05, size: 0x8, addend: 0x0, symName: '__ZN64_$LT$core..str..error..Utf8Error$u20$as$u20$core..fmt..Debug$GT$3fmt17hdd5d7eaf031a54fbE', symObjAddr: 0x0, symBinAddr: 0x100037C40, symSize: 0x88 }
  - { offset: 0xC10E2, size: 0x8, addend: 0x0, symName: '__ZN49_$LT$usize$u20$as$u20$core..iter..range..Step$GT$13steps_between17h42231ba1bf2bd09cE', symObjAddr: 0x0, symBinAddr: 0x100037CC8, symSize: 0x8C }
  - { offset: 0xC1103, size: 0x8, addend: 0x0, symName: '__ZN49_$LT$usize$u20$as$u20$core..iter..range..Step$GT$13steps_between17h42231ba1bf2bd09cE', symObjAddr: 0x0, symBinAddr: 0x100037CC8, symSize: 0x8C }
  - { offset: 0xC115E, size: 0x8, addend: 0x0, symName: '__ZN49_$LT$usize$u20$as$u20$core..iter..range..Step$GT$17forward_unchecked17hfe62b6f628021346E', symObjAddr: 0x8C, symBinAddr: 0x100037D54, symSize: 0x50 }
  - { offset: 0xC12B6, size: 0x8, addend: 0x0, symName: '__ZN4core3fmt3num50_$LT$impl$u20$core..fmt..Debug$u20$for$u20$i64$GT$3fmt17he93df4b07294ca0dE', symObjAddr: 0x0, symBinAddr: 0x100037DA4, symSize: 0x90 }
  - { offset: 0xC1351, size: 0x8, addend: 0x0, symName: '__ZN4core3fmt3num50_$LT$impl$u20$core..fmt..Debug$u20$for$u20$i64$GT$3fmt17he93df4b07294ca0dE', symObjAddr: 0x0, symBinAddr: 0x100037DA4, symSize: 0x90 }
  - { offset: 0xC13CB, size: 0x8, addend: 0x0, symName: '__ZN4core3fmt3num52_$LT$impl$u20$core..fmt..Debug$u20$for$u20$usize$GT$3fmt17h5a223c597c5b8479E', symObjAddr: 0x90, symBinAddr: 0x100037E34, symSize: 0x90 }
  - { offset: 0xC15EF, size: 0x8, addend: 0x0, symName: __ZN3std4sync6poison4Flag4done17h62cd64d8c4ee69ffE, symObjAddr: 0x0, symBinAddr: 0x100037EC4, symSize: 0x90 }
  - { offset: 0xC19D1, size: 0x8, addend: 0x0, symName: __ZN3std4sync6poison4Flag4done17h62cd64d8c4ee69ffE, symObjAddr: 0x0, symBinAddr: 0x100037EC4, symSize: 0x90 }
  - { offset: 0xC1AF9, size: 0x8, addend: 0x0, symName: __ZN3std4sync6poison4Flag5guard17ha0b7d86ce208a5ddE, symObjAddr: 0x90, symBinAddr: 0x100037F54, symSize: 0xD0 }
  - { offset: 0xC1BE5, size: 0x8, addend: 0x0, symName: __ZN4core5slice4sort8unstable7ipnsort17h38ad9ba6fe70089aE, symObjAddr: 0x0, symBinAddr: 0x100038024, symSize: 0x2E8 }
  - { offset: 0xC1D6A, size: 0x8, addend: 0x0, symName: __ZN4core5slice4sort8unstable7ipnsort17h38ad9ba6fe70089aE, symObjAddr: 0x0, symBinAddr: 0x100038024, symSize: 0x2E8 }
  - { offset: 0xC20DB, size: 0x8, addend: 0x0, symName: __ZN4core5slice4sort8unstable7ipnsort17ha8f0d61ac49e634aE, symObjAddr: 0x2E8, symBinAddr: 0x10003830C, symSize: 0x2E8 }
  - { offset: 0xC28D5, size: 0x8, addend: 0x0, symName: __ZN4core3cmp3Ord3max17h141a04fee1dc5835E, symObjAddr: 0x0, symBinAddr: 0x1000385F4, symSize: 0x74 }
  - { offset: 0xC29AB, size: 0x8, addend: 0x0, symName: __ZN4core3cmp3Ord3max17h141a04fee1dc5835E, symObjAddr: 0x0, symBinAddr: 0x1000385F4, symSize: 0x74 }
  - { offset: 0xC2A19, size: 0x8, addend: 0x0, symName: __ZN4core3cmp3Ord3max17hb43cd489c6bef545E, symObjAddr: 0x74, symBinAddr: 0x100038668, symSize: 0x74 }
  - { offset: 0xC2A87, size: 0x8, addend: 0x0, symName: __ZN4core3cmp3Ord3min17hf13cef0a24f9c8f2E, symObjAddr: 0xE8, symBinAddr: 0x1000386DC, symSize: 0x74 }
  - { offset: 0xC2DF3, size: 0x8, addend: 0x0, symName: __ZN4core3cmp8Ordering9then_with17h9760bdb29375c5e9E, symObjAddr: 0x15C, symBinAddr: 0x100038750, symSize: 0x60 }
  - { offset: 0xC2E2E, size: 0x8, addend: 0x0, symName: __ZN4core3cmp8Ordering9then_with17hffebef4cd2c95fa9E, symObjAddr: 0x1BC, symBinAddr: 0x1000387B0, symSize: 0x60 }
  - { offset: 0xC2E87, size: 0x8, addend: 0x0, symName: '__ZN9hashbrown11rustc_entry62_$LT$impl$u20$hashbrown..map..HashMap$LT$K$C$V$C$S$C$A$GT$$GT$11rustc_entry28_$u7b$$u7b$closure$u7d$$u7d$17h207e5b575502278aE', symObjAddr: 0x0, symBinAddr: 0x100038810, symSize: 0x38 }
  - { offset: 0xC2EA8, size: 0x8, addend: 0x0, symName: '__ZN9hashbrown11rustc_entry62_$LT$impl$u20$hashbrown..map..HashMap$LT$K$C$V$C$S$C$A$GT$$GT$11rustc_entry28_$u7b$$u7b$closure$u7d$$u7d$17h207e5b575502278aE', symObjAddr: 0x0, symBinAddr: 0x100038810, symSize: 0x38 }
  - { offset: 0xC2F09, size: 0x8, addend: 0x0, symName: '__ZN9hashbrown11rustc_entry62_$LT$impl$u20$hashbrown..map..HashMap$LT$K$C$V$C$S$C$A$GT$$GT$11rustc_entry28_$u7b$$u7b$closure$u7d$$u7d$17h9ab0f9e95601ad20E', symObjAddr: 0x38, symBinAddr: 0x100038848, symSize: 0x38 }
  - { offset: 0xC31CC, size: 0x8, addend: 0x0, symName: '__ZN4core3ops8function5impls79_$LT$impl$u20$core..ops..function..FnMut$LT$A$GT$$u20$for$u20$$RF$mut$u20$F$GT$8call_mut17h70191b741e712b56E', symObjAddr: 0x0, symBinAddr: 0x100038880, symSize: 0x38 }
  - { offset: 0xC31F2, size: 0x8, addend: 0x0, symName: '__ZN4core3ops8function5impls79_$LT$impl$u20$core..ops..function..FnMut$LT$A$GT$$u20$for$u20$$RF$mut$u20$F$GT$8call_mut17h70191b741e712b56E', symObjAddr: 0x0, symBinAddr: 0x100038880, symSize: 0x38 }
  - { offset: 0xC335A, size: 0x8, addend: 0x0, symName: '__ZN9gcrust_rt2gc10card_table9CardTable10iter_dirty28_$u7b$$u7b$closure$u7d$$u7d$17h417b726f4d36bd47E', symObjAddr: 0x38, symBinAddr: 0x1000388B8, symSize: 0xAC }
  - { offset: 0xC358B, size: 0x8, addend: 0x0, symName: '__ZN4core3str6traits108_$LT$impl$u20$core..slice..index..SliceIndex$LT$str$GT$$u20$for$u20$core..ops..range..Range$LT$usize$GT$$GT$13get_unchecked18precondition_check17hbf1f2132104b1a1aE', symObjAddr: 0x0, symBinAddr: 0x100038964, symSize: 0x80 }
  - { offset: 0xC35B1, size: 0x8, addend: 0x0, symName: '__ZN4core3str6traits108_$LT$impl$u20$core..slice..index..SliceIndex$LT$str$GT$$u20$for$u20$core..ops..range..Range$LT$usize$GT$$GT$13get_unchecked18precondition_check17hbf1f2132104b1a1aE', symObjAddr: 0x0, symBinAddr: 0x100038964, symSize: 0x80 }
  - { offset: 0xC3619, size: 0x8, addend: 0x0, symName: '__ZN4core3str6traits54_$LT$impl$u20$core..cmp..PartialEq$u20$for$u20$str$GT$2eq17h55da1f63c95e1d92E', symObjAddr: 0x80, symBinAddr: 0x1000389E4, symSize: 0xA4 }
  - { offset: 0xC394B, size: 0x8, addend: 0x0, symName: __ZN4core4sync6atomic11atomic_load17h07f16a16731d64c4E, symObjAddr: 0x0, symBinAddr: 0x100038A88, symSize: 0xF8 }
  - { offset: 0xC3991, size: 0x8, addend: 0x0, symName: __ZN4core4sync6atomic11atomic_load17h07f16a16731d64c4E, symObjAddr: 0x0, symBinAddr: 0x100038A88, symSize: 0xF8 }
  - { offset: 0xC39D7, size: 0x8, addend: 0x0, symName: __ZN4core4sync6atomic11atomic_load17h0f53db21ec3cf891E, symObjAddr: 0xF8, symBinAddr: 0x100038B80, symSize: 0xF8 }
  - { offset: 0xC3A1D, size: 0x8, addend: 0x0, symName: __ZN4core4sync6atomic11atomic_load17h27a7f10bee602d63E, symObjAddr: 0x1F0, symBinAddr: 0x100038C78, symSize: 0xF8 }
  - { offset: 0xC3A63, size: 0x8, addend: 0x0, symName: __ZN4core4sync6atomic11atomic_load17h6058e5b134c20606E, symObjAddr: 0x2E8, symBinAddr: 0x100038D70, symSize: 0xF8 }
  - { offset: 0xC3AA9, size: 0x8, addend: 0x0, symName: __ZN4core4sync6atomic11atomic_load17h77b8401c0afdc9ceE, symObjAddr: 0x3E0, symBinAddr: 0x100038E68, symSize: 0xF8 }
  - { offset: 0xC3AEF, size: 0x8, addend: 0x0, symName: __ZN4core4sync6atomic11atomic_load17h87132d94fac90812E, symObjAddr: 0x4D8, symBinAddr: 0x100038F60, symSize: 0xF8 }
  - { offset: 0xC3B35, size: 0x8, addend: 0x0, symName: __ZN4core4sync6atomic11atomic_load17h8f2c22721ad3125aE, symObjAddr: 0x5D0, symBinAddr: 0x100039058, symSize: 0xF8 }
  - { offset: 0xC3B7B, size: 0x8, addend: 0x0, symName: __ZN4core4sync6atomic11atomic_load17he1be9cc9beb18222E, symObjAddr: 0x6C8, symBinAddr: 0x100039150, symSize: 0xF8 }
  - { offset: 0xC3BC1, size: 0x8, addend: 0x0, symName: __ZN4core4sync6atomic11atomic_load17he5614a022d7569f8E, symObjAddr: 0x7C0, symBinAddr: 0x100039248, symSize: 0xF8 }
  - { offset: 0xC3C07, size: 0x8, addend: 0x0, symName: __ZN4core4sync6atomic12atomic_store17h1528dcaded709712E, symObjAddr: 0x8B8, symBinAddr: 0x100039340, symSize: 0xFC }
  - { offset: 0xC3C58, size: 0x8, addend: 0x0, symName: __ZN4core4sync6atomic12atomic_store17h20df1c70574a103eE, symObjAddr: 0x9B4, symBinAddr: 0x10003943C, symSize: 0xFC }
  - { offset: 0xC3CA9, size: 0x8, addend: 0x0, symName: __ZN4core4sync6atomic12atomic_store17h4185ca9de1bf9980E, symObjAddr: 0xAB0, symBinAddr: 0x100039538, symSize: 0xFC }
  - { offset: 0xC3CFA, size: 0x8, addend: 0x0, symName: __ZN4core4sync6atomic12atomic_store17h61f3063f136b1105E, symObjAddr: 0xBAC, symBinAddr: 0x100039634, symSize: 0xFC }
  - { offset: 0xC3D4B, size: 0x8, addend: 0x0, symName: __ZN4core4sync6atomic12atomic_store17h8c3f52596a3e64dfE, symObjAddr: 0xCA8, symBinAddr: 0x100039730, symSize: 0xFC }
  - { offset: 0xC3D9C, size: 0x8, addend: 0x0, symName: __ZN4core4sync6atomic12atomic_store17h92d8b9507b571936E, symObjAddr: 0xDA4, symBinAddr: 0x10003982C, symSize: 0xFC }
  - { offset: 0xC3DED, size: 0x8, addend: 0x0, symName: __ZN4core4sync6atomic12atomic_store17ha603b2989140570cE, symObjAddr: 0xEA0, symBinAddr: 0x100039928, symSize: 0xFC }
  - { offset: 0xC3E3E, size: 0x8, addend: 0x0, symName: __ZN4core4sync6atomic23atomic_compare_exchange17h36238d5a5f87fe6dE, symObjAddr: 0xF9C, symBinAddr: 0x100039A24, symSize: 0x4B4 }
  - { offset: 0xC3ED9, size: 0x8, addend: 0x0, symName: __ZN4core4sync6atomic23atomic_compare_exchange17h3f050702da320082E, symObjAddr: 0x1450, symBinAddr: 0x100039ED8, symSize: 0x4B4 }
  - { offset: 0xC3F74, size: 0x8, addend: 0x0, symName: __ZN4core4sync6atomic23atomic_compare_exchange17h597cb684d8cab47cE, symObjAddr: 0x1904, symBinAddr: 0x10003A38C, symSize: 0x4B4 }
  - { offset: 0xC400F, size: 0x8, addend: 0x0, symName: __ZN4core4sync6atomic23atomic_compare_exchange17h70566e823b655d14E, symObjAddr: 0x1DB8, symBinAddr: 0x10003A840, symSize: 0x4F4 }
  - { offset: 0xC40A8, size: 0x8, addend: 0x0, symName: __ZN4core4sync6atomic23atomic_compare_exchange17h851a2c15e97d3663E, symObjAddr: 0x22AC, symBinAddr: 0x10003AD34, symSize: 0x4B4 }
  - { offset: 0xC4143, size: 0x8, addend: 0x0, symName: __ZN4core4sync6atomic23atomic_compare_exchange17h94bf5338e48253aaE, symObjAddr: 0x2760, symBinAddr: 0x10003B1E8, symSize: 0x4B4 }
  - { offset: 0xC440C, size: 0x8, addend: 0x0, symName: __ZN4core4sync6atomic28atomic_compare_exchange_weak17ha5b9df3a5d0f49d8E, symObjAddr: 0x2D70, symBinAddr: 0x10003B7F8, symSize: 0x4B4 }
  - { offset: 0xC456D, size: 0x8, addend: 0x0, symName: '__ZN4core5array76_$LT$impl$u20$core..default..Default$u20$for$u20$$u5b$T$u3b$$u20$32$u5d$$GT$7default17hf9eafe3fccf652aaE', symObjAddr: 0x3224, symBinAddr: 0x10003BCAC, symSize: 0x70C }
  - { offset: 0xC459B, size: 0x8, addend: 0x0, symName: '__ZN4core5array85_$LT$impl$u20$core..ops..index..Index$LT$I$GT$$u20$for$u20$$u5b$T$u3b$$u20$N$u5d$$GT$5index17h19261a960989843eE', symObjAddr: 0x3930, symBinAddr: 0x10003C3B8, symSize: 0xB0 }
  - { offset: 0xC47B5, size: 0x8, addend: 0x0, symName: '__ZN4core5slice4iter87_$LT$impl$u20$core..iter..traits..collect..IntoIterator$u20$for$u20$$RF$$u5b$T$u5d$$GT$9into_iter17h61b98391ea49ef05E', symObjAddr: 0x39E0, symBinAddr: 0x10003C468, symSize: 0x50 }
  - { offset: 0xC4E34, size: 0x8, addend: 0x0, symName: '__ZN4core4sync6atomic27Atomic$LT$$BP$mut$u20$T$GT$3new17h31138ab05a2df540E', symObjAddr: 0x2C14, symBinAddr: 0x10003B69C, symSize: 0x1C }
  - { offset: 0xC4E74, size: 0x8, addend: 0x0, symName: '__ZN4core4sync6atomic27Atomic$LT$$BP$mut$u20$T$GT$3new17ha04f00d54741e1f5E', symObjAddr: 0x2C30, symBinAddr: 0x10003B6B8, symSize: 0x1C }
  - { offset: 0xC4EB4, size: 0x8, addend: 0x0, symName: '__ZN4core4sync6atomic27Atomic$LT$$BP$mut$u20$T$GT$3new17hfb9129b13e996fbeE', symObjAddr: 0x2C4C, symBinAddr: 0x10003B6D4, symSize: 0x1C }
  - { offset: 0xC4EED, size: 0x8, addend: 0x0, symName: '__ZN4core4sync6atomic27Atomic$LT$$BP$mut$u20$T$GT$4load17h418dc1100e311beeE', symObjAddr: 0x2C68, symBinAddr: 0x10003B6F0, symSize: 0x28 }
  - { offset: 0xC4F35, size: 0x8, addend: 0x0, symName: '__ZN4core4sync6atomic27Atomic$LT$$BP$mut$u20$T$GT$4load17h74cff40749082823E', symObjAddr: 0x2C90, symBinAddr: 0x10003B718, symSize: 0x28 }
  - { offset: 0xC4F7D, size: 0x8, addend: 0x0, symName: '__ZN4core4sync6atomic27Atomic$LT$$BP$mut$u20$T$GT$4load17hac57f2086c2806acE', symObjAddr: 0x2CB8, symBinAddr: 0x10003B740, symSize: 0x28 }
  - { offset: 0xC4FB8, size: 0x8, addend: 0x0, symName: '__ZN4core4sync6atomic27Atomic$LT$$BP$mut$u20$T$GT$5store17h3b5a89338557b56bE', symObjAddr: 0x2CE0, symBinAddr: 0x10003B768, symSize: 0x30 }
  - { offset: 0xC5002, size: 0x8, addend: 0x0, symName: '__ZN4core4sync6atomic27Atomic$LT$$BP$mut$u20$T$GT$5store17h54a6b8cf352f0dbdE', symObjAddr: 0x2D10, symBinAddr: 0x10003B798, symSize: 0x30 }
  - { offset: 0xC504C, size: 0x8, addend: 0x0, symName: '__ZN4core4sync6atomic27Atomic$LT$$BP$mut$u20$T$GT$5store17h9f27238998343ed1E', symObjAddr: 0x2D40, symBinAddr: 0x10003B7C8, symSize: 0x30 }
  - { offset: 0xC53BC, size: 0x8, addend: 0x0, symName: __ZN4core3mem4drop17h98fff468c7f473ecE, symObjAddr: 0x0, symBinAddr: 0x10003C4B8, symSize: 0x2C }
  - { offset: 0xC53D3, size: 0x8, addend: 0x0, symName: __ZN4core3mem4drop17h98fff468c7f473ecE, symObjAddr: 0x0, symBinAddr: 0x10003C4B8, symSize: 0x2C }
  - { offset: 0xC5406, size: 0x8, addend: 0x0, symName: __ZN4core3mem4drop17hafec33aa066ce909E, symObjAddr: 0x2C, symBinAddr: 0x10003C4E4, symSize: 0x2C }
  - { offset: 0xC5439, size: 0x8, addend: 0x0, symName: __ZN4core3mem4drop17hb029198fb1b2f84cE, symObjAddr: 0x58, symBinAddr: 0x10003C510, symSize: 0x2C }
  - { offset: 0xC546C, size: 0x8, addend: 0x0, symName: __ZN4core3mem4drop17he752077ab70c4407E, symObjAddr: 0x84, symBinAddr: 0x10003C53C, symSize: 0x2C }
  - { offset: 0xC54D2, size: 0x8, addend: 0x0, symName: __ZN4core3mem4take17h75db00bcc4d9caa3E, symObjAddr: 0xB0, symBinAddr: 0x10003C568, symSize: 0x54 }
  - { offset: 0xC5562, size: 0x8, addend: 0x0, symName: __ZN4core3mem4take17h88256730f1c48ebaE, symObjAddr: 0x104, symBinAddr: 0x10003C5BC, symSize: 0x54 }
  - { offset: 0xC6340, size: 0x8, addend: 0x0, symName: __ZN4core4iter6traits8iterator8Iterator3all17h440ab6e593561c37E, symObjAddr: 0x0, symBinAddr: 0x10003C610, symSize: 0x3C }
  - { offset: 0xC6366, size: 0x8, addend: 0x0, symName: __ZN4core4iter6traits8iterator8Iterator3all17h440ab6e593561c37E, symObjAddr: 0x0, symBinAddr: 0x10003C610, symSize: 0x3C }
  - { offset: 0xC63B5, size: 0x8, addend: 0x0, symName: __ZN4core4iter6traits8iterator8Iterator8try_fold17h8499b6deb5992f27E, symObjAddr: 0x3C, symBinAddr: 0x10003C64C, symSize: 0x108 }
  - { offset: 0xC6492, size: 0x8, addend: 0x0, symName: '__ZN63_$LT$I$u20$as$u20$core..iter..traits..collect..IntoIterator$GT$9into_iter17hb55d933ee2050b76E', symObjAddr: 0x144, symBinAddr: 0x10003C754, symSize: 0x1C }
  - { offset: 0xC6702, size: 0x8, addend: 0x0, symName: '__ZN4core5array4iter10iter_inner78PolymorphicIter$LT$$u5b$core..mem..maybe_uninit..MaybeUninit$LT$T$GT$$u5d$$GT$4next17h844405b22317f398E', symObjAddr: 0x0, symBinAddr: 0x10003C770, symSize: 0x178 }
  - { offset: 0xC7133, size: 0x8, addend: 0x0, symName: '__ZN4core5array4iter10iter_inner78PolymorphicIter$LT$$u5b$core..mem..maybe_uninit..MaybeUninit$LT$T$GT$$u5d$$GT$4next17h844405b22317f398E', symObjAddr: 0x0, symBinAddr: 0x10003C770, symSize: 0x178 }
  - { offset: 0xC7491, size: 0x8, addend: 0x0, symName: '__ZN4core5array4iter10iter_inner78PolymorphicIter$LT$$u5b$core..mem..maybe_uninit..MaybeUninit$LT$T$GT$$u5d$$GT$4next17hb189713a6be8d362E', symObjAddr: 0x178, symBinAddr: 0x10003C8E8, symSize: 0x17C }
  - { offset: 0xC76E4, size: 0x8, addend: 0x0, symName: '__ZN4core3str21_$LT$impl$u20$str$GT$12trim_matches17hc10f7f965fc5d8fcE', symObjAddr: 0x0, symBinAddr: 0x10003CA64, symSize: 0x108 }
  - { offset: 0xC7802, size: 0x8, addend: 0x0, symName: '__ZN4core3str21_$LT$impl$u20$str$GT$12trim_matches17hc10f7f965fc5d8fcE', symObjAddr: 0x0, symBinAddr: 0x10003CA64, symSize: 0x108 }
  - { offset: 0xC79A9, size: 0x8, addend: 0x0, symName: '__ZN4core3str21_$LT$impl$u20$str$GT$5parse17h29d2be5c695afd82E', symObjAddr: 0x108, symBinAddr: 0x10003CB6C, symSize: 0x28 }
  - { offset: 0xC79E0, size: 0x8, addend: 0x0, symName: '__ZN4core3str21_$LT$impl$u20$str$GT$5parse17h414bde6959e09a84E', symObjAddr: 0x130, symBinAddr: 0x10003CB94, symSize: 0x28 }
  - { offset: 0xC7DB2, size: 0x8, addend: 0x0, symName: '__ZN110_$LT$core..iter..adapters..enumerate..Enumerate$LT$I$GT$$u20$as$u20$core..iter..traits..iterator..Iterator$GT$4fold17h131372e219358767E', symObjAddr: 0x0, symBinAddr: 0x10003CBBC, symSize: 0x4C }
  - { offset: 0xC8174, size: 0x8, addend: 0x0, symName: '__ZN110_$LT$core..iter..adapters..enumerate..Enumerate$LT$I$GT$$u20$as$u20$core..iter..traits..iterator..Iterator$GT$4fold9enumerate28_$u7b$$u7b$closure$u7d$$u7d$17h1f19bcf24b635b61E', symObjAddr: 0xD4, symBinAddr: 0x10003CC90, symSize: 0x88 }
  - { offset: 0xC81FC, size: 0x8, addend: 0x0, symName: '__ZN110_$LT$core..iter..adapters..enumerate..Enumerate$LT$I$GT$$u20$as$u20$core..iter..traits..iterator..Iterator$GT$4fold9enumerate28_$u7b$$u7b$closure$u7d$$u7d$17h345e3d3d57f5dc8fE', symObjAddr: 0x15C, symBinAddr: 0x10003CD18, symSize: 0x8C }
  - { offset: 0xC8284, size: 0x8, addend: 0x0, symName: '__ZN110_$LT$core..iter..adapters..enumerate..Enumerate$LT$I$GT$$u20$as$u20$core..iter..traits..iterator..Iterator$GT$4fold9enumerate28_$u7b$$u7b$closure$u7d$$u7d$17h9f6ca4f4145e66b9E', symObjAddr: 0x1E8, symBinAddr: 0x10003CDA4, symSize: 0x8C }
  - { offset: 0xC8350, size: 0x8, addend: 0x0, symName: '__ZN110_$LT$core..iter..adapters..enumerate..Enumerate$LT$I$GT$$u20$as$u20$core..iter..traits..iterator..Iterator$GT$4fold17h131372e219358767E', symObjAddr: 0x0, symBinAddr: 0x10003CBBC, symSize: 0x4C }
  - { offset: 0xC83D6, size: 0x8, addend: 0x0, symName: '__ZN110_$LT$core..iter..adapters..enumerate..Enumerate$LT$I$GT$$u20$as$u20$core..iter..traits..iterator..Iterator$GT$4fold17h40305135732c223bE', symObjAddr: 0x4C, symBinAddr: 0x10003CC08, symSize: 0x4C }
  - { offset: 0xC845D, size: 0x8, addend: 0x0, symName: '__ZN110_$LT$core..iter..adapters..enumerate..Enumerate$LT$I$GT$$u20$as$u20$core..iter..traits..iterator..Iterator$GT$4fold17ha1b23b040c1f1567E', symObjAddr: 0x98, symBinAddr: 0x10003CC54, symSize: 0x3C }
  - { offset: 0xC84BD, size: 0x8, addend: 0x0, symName: '__ZN110_$LT$core..iter..adapters..enumerate..Enumerate$LT$I$GT$$u20$as$u20$core..iter..traits..iterator..Iterator$GT$4next17h1bbb73e09bc91d75E', symObjAddr: 0x274, symBinAddr: 0x10003CE30, symSize: 0xE0 }
  - { offset: 0xC85A3, size: 0x8, addend: 0x0, symName: '__ZN110_$LT$core..iter..adapters..enumerate..Enumerate$LT$I$GT$$u20$as$u20$core..iter..traits..iterator..Iterator$GT$4next17h43e82499bb555bffE', symObjAddr: 0x354, symBinAddr: 0x10003CF10, symSize: 0xE0 }
  - { offset: 0xC8689, size: 0x8, addend: 0x0, symName: '__ZN110_$LT$core..iter..adapters..enumerate..Enumerate$LT$I$GT$$u20$as$u20$core..iter..traits..iterator..Iterator$GT$4next17h50f8f813d2078646E', symObjAddr: 0x434, symBinAddr: 0x10003CFF0, symSize: 0xE0 }
  - { offset: 0xC876F, size: 0x8, addend: 0x0, symName: '__ZN110_$LT$core..iter..adapters..enumerate..Enumerate$LT$I$GT$$u20$as$u20$core..iter..traits..iterator..Iterator$GT$4next17h88ffe4a78d331dd5E', symObjAddr: 0x514, symBinAddr: 0x10003D0D0, symSize: 0xE0 }
  - { offset: 0xC8855, size: 0x8, addend: 0x0, symName: '__ZN110_$LT$core..iter..adapters..enumerate..Enumerate$LT$I$GT$$u20$as$u20$core..iter..traits..iterator..Iterator$GT$4next17h8c498838f27b8640E', symObjAddr: 0x5F4, symBinAddr: 0x10003D1B0, symSize: 0xE0 }
  - { offset: 0xC893B, size: 0x8, addend: 0x0, symName: '__ZN110_$LT$core..iter..adapters..enumerate..Enumerate$LT$I$GT$$u20$as$u20$core..iter..traits..iterator..Iterator$GT$4next17h8fa824ad1b1db43fE', symObjAddr: 0x6D4, symBinAddr: 0x10003D290, symSize: 0xE0 }
  - { offset: 0xC8A21, size: 0x8, addend: 0x0, symName: '__ZN110_$LT$core..iter..adapters..enumerate..Enumerate$LT$I$GT$$u20$as$u20$core..iter..traits..iterator..Iterator$GT$4next17hb327256980488bdaE', symObjAddr: 0x7B4, symBinAddr: 0x10003D370, symSize: 0xE0 }
  - { offset: 0xC8B07, size: 0x8, addend: 0x0, symName: '__ZN110_$LT$core..iter..adapters..enumerate..Enumerate$LT$I$GT$$u20$as$u20$core..iter..traits..iterator..Iterator$GT$4next17hba4f6892be053670E', symObjAddr: 0x894, symBinAddr: 0x10003D450, symSize: 0xE0 }
  - { offset: 0xC8BED, size: 0x8, addend: 0x0, symName: '__ZN110_$LT$core..iter..adapters..enumerate..Enumerate$LT$I$GT$$u20$as$u20$core..iter..traits..iterator..Iterator$GT$4next17he68d204b58f8ada7E', symObjAddr: 0x974, symBinAddr: 0x10003D530, symSize: 0xE0 }
  - { offset: 0xC8CD3, size: 0x8, addend: 0x0, symName: '__ZN110_$LT$core..iter..adapters..enumerate..Enumerate$LT$I$GT$$u20$as$u20$core..iter..traits..iterator..Iterator$GT$4next17hf7650d298c92e3b5E', symObjAddr: 0xA54, symBinAddr: 0x10003D610, symSize: 0xE0 }
  - { offset: 0xC8DB9, size: 0x8, addend: 0x0, symName: '__ZN110_$LT$core..iter..adapters..enumerate..Enumerate$LT$I$GT$$u20$as$u20$core..iter..traits..iterator..Iterator$GT$8try_fold17h4dcdab71bc835da4E', symObjAddr: 0xB34, symBinAddr: 0x10003D6F0, symSize: 0x38 }
  - { offset: 0xC8E2F, size: 0x8, addend: 0x0, symName: '__ZN110_$LT$core..iter..adapters..enumerate..Enumerate$LT$I$GT$$u20$as$u20$core..iter..traits..iterator..Iterator$GT$8try_fold9enumerate28_$u7b$$u7b$closure$u7d$$u7d$17h7b3338ce8483a146E', symObjAddr: 0xB6C, symBinAddr: 0x10003D728, symSize: 0xB4 }
  - { offset: 0xC8EC6, size: 0x8, addend: 0x0, symName: '__ZN110_$LT$core..iter..adapters..enumerate..Enumerate$LT$I$GT$$u20$as$u20$core..iter..traits..iterator..Iterator$GT$9size_hint17hc2e4dd13d063ed5dE', symObjAddr: 0xC20, symBinAddr: 0x10003D7DC, symSize: 0x24 }
  - { offset: 0xC8EFB, size: 0x8, addend: 0x0, symName: '__ZN110_$LT$core..iter..adapters..enumerate..Enumerate$LT$I$GT$$u20$as$u20$core..iter..traits..iterator..Iterator$GT$9size_hint17hf27311ea341c9220E', symObjAddr: 0xC44, symBinAddr: 0x10003D800, symSize: 0x24 }
  - { offset: 0xC8F30, size: 0x8, addend: 0x0, symName: '__ZN110_$LT$core..iter..adapters..enumerate..Enumerate$LT$I$GT$$u20$as$u20$core..iter..traits..iterator..Iterator$GT$9size_hint17hf6fe1fcced408167E', symObjAddr: 0xC68, symBinAddr: 0x10003D824, symSize: 0x24 }
  - { offset: 0xC939D, size: 0x8, addend: 0x0, symName: __ZN4core4iter6traits8iterator8Iterator10filter_map17h0152908883a88903E, symObjAddr: 0xC8C, symBinAddr: 0x10003D848, symSize: 0x28 }
  - { offset: 0xC940A, size: 0x8, addend: 0x0, symName: __ZN4core4iter6traits8iterator8Iterator3map17h7f825ebd3acc6be5E, symObjAddr: 0xCB4, symBinAddr: 0x10003D870, symSize: 0x20 }
  - { offset: 0xC9477, size: 0x8, addend: 0x0, symName: __ZN4core4iter6traits8iterator8Iterator3map17h81a02291a257dd4bE, symObjAddr: 0xCD4, symBinAddr: 0x10003D890, symSize: 0x28 }
  - { offset: 0xC94E4, size: 0x8, addend: 0x0, symName: __ZN4core4iter6traits8iterator8Iterator7collect17h184aab02ec214044E, symObjAddr: 0xCFC, symBinAddr: 0x10003D8B8, symSize: 0x14 }
  - { offset: 0xC9525, size: 0x8, addend: 0x0, symName: __ZN4core4iter6traits8iterator8Iterator8find_map17hcb4aca25055b6278E, symObjAddr: 0xD10, symBinAddr: 0x10003D8CC, symSize: 0x84 }
  - { offset: 0xC95AD, size: 0x8, addend: 0x0, symName: __ZN4core4iter6traits8iterator8Iterator8for_each17hcf5e5dde268dbed9E, symObjAddr: 0xD94, symBinAddr: 0x10003D950, symSize: 0x34 }
  - { offset: 0xC9644, size: 0x8, addend: 0x0, symName: '__ZN63_$LT$I$u20$as$u20$core..iter..traits..collect..IntoIterator$GT$9into_iter17h2dc91353f9c63f31E', symObjAddr: 0xDC8, symBinAddr: 0x10003D984, symSize: 0x18 }
  - { offset: 0xC967B, size: 0x8, addend: 0x0, symName: '__ZN63_$LT$I$u20$as$u20$core..iter..traits..collect..IntoIterator$GT$9into_iter17h42e60e204f071644E', symObjAddr: 0xDE0, symBinAddr: 0x10003D99C, symSize: 0x18 }
  - { offset: 0xC96B2, size: 0x8, addend: 0x0, symName: '__ZN63_$LT$I$u20$as$u20$core..iter..traits..collect..IntoIterator$GT$9into_iter17h4f3450f86ca0e1acE', symObjAddr: 0xDF8, symBinAddr: 0x10003D9B4, symSize: 0x18 }
  - { offset: 0xC96E9, size: 0x8, addend: 0x0, symName: '__ZN63_$LT$I$u20$as$u20$core..iter..traits..collect..IntoIterator$GT$9into_iter17h7f2a7f790ac24865E', symObjAddr: 0xE10, symBinAddr: 0x10003D9CC, symSize: 0x18 }
  - { offset: 0xC9720, size: 0x8, addend: 0x0, symName: '__ZN63_$LT$I$u20$as$u20$core..iter..traits..collect..IntoIterator$GT$9into_iter17h8429e0012a548d55E', symObjAddr: 0xE28, symBinAddr: 0x10003D9E4, symSize: 0x18 }
  - { offset: 0xC9757, size: 0x8, addend: 0x0, symName: '__ZN63_$LT$I$u20$as$u20$core..iter..traits..collect..IntoIterator$GT$9into_iter17h8611baa4ffebdb0fE', symObjAddr: 0xE40, symBinAddr: 0x10003D9FC, symSize: 0x18 }
  - { offset: 0xC978E, size: 0x8, addend: 0x0, symName: '__ZN63_$LT$I$u20$as$u20$core..iter..traits..collect..IntoIterator$GT$9into_iter17hc1327de4d5f96803E', symObjAddr: 0xE58, symBinAddr: 0x10003DA14, symSize: 0x18 }
  - { offset: 0xC97C5, size: 0x8, addend: 0x0, symName: '__ZN63_$LT$I$u20$as$u20$core..iter..traits..collect..IntoIterator$GT$9into_iter17he346fedc5934917bE', symObjAddr: 0xE70, symBinAddr: 0x10003DA2C, symSize: 0x18 }
  - { offset: 0xC97FC, size: 0x8, addend: 0x0, symName: '__ZN63_$LT$I$u20$as$u20$core..iter..traits..collect..IntoIterator$GT$9into_iter17hf2e430e3976e5c1dE', symObjAddr: 0xE88, symBinAddr: 0x10003DA44, symSize: 0x18 }
  - { offset: 0xCBFCA, size: 0x8, addend: 0x0, symName: __ZN5alloc3fmt6format17h5fa14fd4c4dc19a4E, symObjAddr: 0x0, symBinAddr: 0x10003DA5C, symSize: 0xD8 }
  - { offset: 0xCC4E2, size: 0x8, addend: 0x0, symName: __ZN5alloc3fmt6format17h5fa14fd4c4dc19a4E, symObjAddr: 0x0, symBinAddr: 0x10003DA5C, symSize: 0xD8 }
  - { offset: 0xCC692, size: 0x8, addend: 0x0, symName: __ZN9gcrust_rt2gc4dump13collect_graph17h66d26b665e34de30E, symObjAddr: 0x0, symBinAddr: 0x10003DB34, symSize: 0x258 }
  - { offset: 0xCC6C9, size: 0x8, addend: 0x0, symName: __ZN9gcrust_rt2gc4dump13collect_graph17h66d26b665e34de30E, symObjAddr: 0x0, symBinAddr: 0x10003DB34, symSize: 0x258 }
  - { offset: 0xCC7AC, size: 0x8, addend: 0x0, symName: __ZN9gcrust_rt2gc4dump13dom_intersect17h321a7b66547e68fdE, symObjAddr: 0x258, symBinAddr: 0x10003DD8C, symSize: 0x1E4 }
  - { offset: 0xCC802, size: 0x8, addend: 0x0, symName: __ZN9gcrust_rt2gc4dump13render_fields17hea73bda289f122b5E, symObjAddr: 0x43C, symBinAddr: 0x10003DF70, symSize: 0x2C0 }
  - { offset: 0xCC91F, size: 0x8, addend: 0x0, symName: __ZN9gcrust_rt2gc4dump13render_object17h6ed3744539fffc99E, symObjAddr: 0x6FC, symBinAddr: 0x10003E230, symSize: 0x588 }
  - { offset: 0xCCC33, size: 0x8, addend: 0x0, symName: __ZN9gcrust_rt2gc4dump13render_opaque17h9c6786ecf99dbfc5E, symObjAddr: 0xC84, symBinAddr: 0x10003E7B8, symSize: 0x418 }
  - { offset: 0xCCFAA, size: 0x8, addend: 0x0, symName: __ZN9gcrust_rt2gc4dump13render_scalar17ha8d3a41e229280c1E, symObjAddr: 0x109C, symBinAddr: 0x10003EBD0, symSize: 0x554 }
  - { offset: 0xCD45D, size: 0x8, addend: 0x0, symName: __ZN9gcrust_rt2gc4dump14dump_heap_json17hccb1a9fe8c2e97e0E, symObjAddr: 0x15F0, symBinAddr: 0x10003F124, symSize: 0x1490 }
  - { offset: 0xCD998, size: 0x8, addend: 0x0, symName: __ZN9gcrust_rt2gc4dump14dump_heap_text17h7ce40381e957d4f5E, symObjAddr: 0x2A80, symBinAddr: 0x1000405B4, symSize: 0x660 }
  - { offset: 0xCDBB5, size: 0x8, addend: 0x0, symName: __ZN9gcrust_rt2gc4dump14retained_sizes17h2df47ce2afaad063E, symObjAddr: 0x30E0, symBinAddr: 0x100040C14, symSize: 0x1118 }
  - { offset: 0xCE228, size: 0x8, addend: 0x0, symName: __ZN9gcrust_rt2gc4dump18render_field_value17ha3c9f7bf946a846bE, symObjAddr: 0x41F8, symBinAddr: 0x100041D2C, symSize: 0x3B0 }
  - { offset: 0xCE4FF, size: 0x8, addend: 0x0, symName: __ZN9gcrust_rt2gc4dump8json_str17hc88a546218ebba37E, symObjAddr: 0x45A8, symBinAddr: 0x1000420DC, symSize: 0x2BC }
  - { offset: 0xCE5E5, size: 0x8, addend: 0x0, symName: __ZN9gcrust_rt2gc4dump8read_u3217hc7dbf5da4f5b2fbdE, symObjAddr: 0x4864, symBinAddr: 0x100042398, symSize: 0x38 }
  - { offset: 0xCE648, size: 0x8, addend: 0x0, symName: __ZN9gcrust_rt2gc4dump9type_name17hb4d9754af33dd62aE, symObjAddr: 0x489C, symBinAddr: 0x1000423D0, symSize: 0xA8 }
  - { offset: 0xD245F, size: 0x8, addend: 0x0, symName: __ZN9gcrust_rt2gc10card_table9CardTable10card_count17hc190f375377dbfaaE, symObjAddr: 0x0, symBinAddr: 0x100042478, symSize: 0x24 }
  - { offset: 0xD27D8, size: 0x8, addend: 0x0, symName: __ZN9gcrust_rt2gc10card_table9CardTable10card_count17hc190f375377dbfaaE, symObjAddr: 0x0, symBinAddr: 0x100042478, symSize: 0x24 }
  - { offset: 0xD2807, size: 0x8, addend: 0x0, symName: __ZN9gcrust_rt2gc10card_table9CardTable10iter_dirty17hce99fc8a273059b8E, symObjAddr: 0x24, symBinAddr: 0x10004249C, symSize: 0x4C }
  - { offset: 0xD2829, size: 0x8, addend: 0x0, symName: __ZN9gcrust_rt2gc10card_table9CardTable3new17hdc6958f98b6b4335E, symObjAddr: 0x70, symBinAddr: 0x1000424E8, symSize: 0xA0 }
  - { offset: 0xD287D, size: 0x8, addend: 0x0, symName: __ZN9gcrust_rt2gc10card_table9CardTable8is_dirty17h886ee61848adc47fE, symObjAddr: 0x110, symBinAddr: 0x100042588, symSize: 0x78 }
  - { offset: 0xD28AD, size: 0x8, addend: 0x0, symName: __ZN9gcrust_rt2gc10card_table9CardTable9base_addr17h5510d3c286bfb970E, symObjAddr: 0x188, symBinAddr: 0x100042600, symSize: 0x18 }
  - { offset: 0xD28CF, size: 0x8, addend: 0x0, symName: __ZN9gcrust_rt2gc10card_table9CardTable9card_size17ha48db72e14ce75ecE, symObjAddr: 0x1A0, symBinAddr: 0x100042618, symSize: 0x18 }
  - { offset: 0xD28FE, size: 0x8, addend: 0x0, symName: __ZN9gcrust_rt2gc10card_table9CardTable9clear_all17hb4ceb5c3e96de83fE, symObjAddr: 0x1B8, symBinAddr: 0x100042630, symSize: 0x88 }
  - { offset: 0xD296B, size: 0x8, addend: 0x0, symName: '__ZN49_$LT$F$u20$as$u20$core..str..pattern..Pattern$GT$13into_searcher17haab7c30a58016a9dE', symObjAddr: 0x0, symBinAddr: 0x1000426B8, symSize: 0x48 }
  - { offset: 0xD298C, size: 0x8, addend: 0x0, symName: '__ZN49_$LT$F$u20$as$u20$core..str..pattern..Pattern$GT$13into_searcher17haab7c30a58016a9dE', symObjAddr: 0x0, symBinAddr: 0x1000426B8, symSize: 0x48 }
  - { offset: 0xD29D8, size: 0x8, addend: 0x0, symName: '__ZN53_$LT$F$u20$as$u20$core..str..pattern..MultiCharEq$GT$7matches17hc2642339d56942daE', symObjAddr: 0x48, symBinAddr: 0x100042700, symSize: 0x28 }
  - { offset: 0xD2BD6, size: 0x8, addend: 0x0, symName: '__ZN44_$LT$$RF$T$u20$as$u20$core..fmt..Display$GT$3fmt17h32ee2f0839488acdE', symObjAddr: 0x0, symBinAddr: 0x100042728, symSize: 0x30 }
  - { offset: 0xD2C0D, size: 0x8, addend: 0x0, symName: '__ZN44_$LT$$RF$T$u20$as$u20$core..fmt..Display$GT$3fmt17h32ee2f0839488acdE', symObjAddr: 0x0, symBinAddr: 0x100042728, symSize: 0x30 }
  - { offset: 0xD2C53, size: 0x8, addend: 0x0, symName: '__ZN44_$LT$$RF$T$u20$as$u20$core..fmt..Display$GT$3fmt17hb6600005870fb92dE', symObjAddr: 0x30, symBinAddr: 0x100042758, symSize: 0x30 }
  - { offset: 0xD3263, size: 0x8, addend: 0x0, symName: '__ZN52_$LT$$BP$mut$u20$T$u20$as$u20$core..fmt..Pointer$GT$3fmt17h1ea26601ca01c9d3E', symObjAddr: 0x54C, symBinAddr: 0x100042C74, symSize: 0x38 }
  - { offset: 0xD32A9, size: 0x8, addend: 0x0, symName: '__ZN52_$LT$$BP$mut$u20$T$u20$as$u20$core..fmt..Pointer$GT$3fmt17hde7c080a48f1b11dE', symObjAddr: 0x584, symBinAddr: 0x100042CAC, symSize: 0x38 }
  - { offset: 0xD32F5, size: 0x8, addend: 0x0, symName: '__ZN54_$LT$$BP$const$u20$T$u20$as$u20$core..fmt..Pointer$GT$3fmt17h876938d93b49a2fcE', symObjAddr: 0x5BC, symBinAddr: 0x100042CE4, symSize: 0xCC }
  - { offset: 0xD333B, size: 0x8, addend: 0x0, symName: '__ZN54_$LT$$BP$const$u20$T$u20$as$u20$core..fmt..Pointer$GT$3fmt17ha78336b6a77d581eE', symObjAddr: 0x688, symBinAddr: 0x100042DB0, symSize: 0xCC }
  - { offset: 0xD3386, size: 0x8, addend: 0x0, symName: '__ZN54_$LT$$BP$const$u20$T$u20$as$u20$core..fmt..Pointer$GT$3fmt28_$u7b$$u7b$closure$u7d$$u7d$17h04596623cdf3a2ddE', symObjAddr: 0x754, symBinAddr: 0x100042E7C, symSize: 0x34 }
  - { offset: 0xD33CE, size: 0x8, addend: 0x0, symName: '__ZN54_$LT$$BP$const$u20$T$u20$as$u20$core..fmt..Pointer$GT$3fmt28_$u7b$$u7b$closure$u7d$$u7d$17h0a499c0699606be5E', symObjAddr: 0x788, symBinAddr: 0x100042EB0, symSize: 0x34 }
  - { offset: 0xD360E, size: 0x8, addend: 0x0, symName: __ZN4core3fmt9Arguments3new17h0512e2da70375158E, symObjAddr: 0x60, symBinAddr: 0x100042788, symSize: 0x1C }
  - { offset: 0xD3674, size: 0x8, addend: 0x0, symName: __ZN4core3fmt9Arguments3new17h07016dbc4824fdf8E, symObjAddr: 0x7C, symBinAddr: 0x1000427A4, symSize: 0x1C }
  - { offset: 0xD36DA, size: 0x8, addend: 0x0, symName: __ZN4core3fmt9Arguments3new17h07db0cf09e305cf8E, symObjAddr: 0x98, symBinAddr: 0x1000427C0, symSize: 0x1C }
  - { offset: 0xD3740, size: 0x8, addend: 0x0, symName: __ZN4core3fmt9Arguments3new17h0fd3b3392c1589b9E, symObjAddr: 0xB4, symBinAddr: 0x1000427DC, symSize: 0x1C }
  - { offset: 0xD3772, size: 0x8, addend: 0x0, symName: __ZN4core3fmt9Arguments3new17h14fd9f37c0c5b9e4E, symObjAddr: 0xD0, symBinAddr: 0x1000427F8, symSize: 0x1C }
  - { offset: 0xD37BE, size: 0x8, addend: 0x0, symName: __ZN4core3fmt9Arguments3new17h18b1f044fdaec650E, symObjAddr: 0xEC, symBinAddr: 0x100042814, symSize: 0x1C }
  - { offset: 0xD380A, size: 0x8, addend: 0x0, symName: __ZN4core3fmt9Arguments3new17h18ec9bc35b0a32e1E, symObjAddr: 0x108, symBinAddr: 0x100042830, symSize: 0x1C }
  - { offset: 0xD3856, size: 0x8, addend: 0x0, symName: __ZN4core3fmt9Arguments3new17h1adeac2f6ffb44c2E, symObjAddr: 0x124, symBinAddr: 0x10004284C, symSize: 0x1C }
  - { offset: 0xD38A2, size: 0x8, addend: 0x0, symName: __ZN4core3fmt9Arguments3new17h21ca05700858ace3E, symObjAddr: 0x140, symBinAddr: 0x100042868, symSize: 0x1C }
  - { offset: 0xD38EE, size: 0x8, addend: 0x0, symName: __ZN4core3fmt9Arguments3new17h246700c3d885d6c3E, symObjAddr: 0x15C, symBinAddr: 0x100042884, symSize: 0x1C }
  - { offset: 0xD3920, size: 0x8, addend: 0x0, symName: __ZN4core3fmt9Arguments3new17h27c5ec9012720904E, symObjAddr: 0x178, symBinAddr: 0x1000428A0, symSize: 0x1C }
  - { offset: 0xD396C, size: 0x8, addend: 0x0, symName: __ZN4core3fmt9Arguments3new17h2cf0830f012c0a2aE, symObjAddr: 0x194, symBinAddr: 0x1000428BC, symSize: 0x1C }
  - { offset: 0xD39B8, size: 0x8, addend: 0x0, symName: __ZN4core3fmt9Arguments3new17h2f384c78b3d34af6E, symObjAddr: 0x1B0, symBinAddr: 0x1000428D8, symSize: 0x1C }
  - { offset: 0xD3A04, size: 0x8, addend: 0x0, symName: __ZN4core3fmt9Arguments3new17h3652804b0a761b2dE, symObjAddr: 0x1CC, symBinAddr: 0x1000428F4, symSize: 0x1C }
  - { offset: 0xD3A50, size: 0x8, addend: 0x0, symName: __ZN4core3fmt9Arguments3new17h38c11c1112b8fc30E, symObjAddr: 0x1E8, symBinAddr: 0x100042910, symSize: 0x1C }
  - { offset: 0xD3A9C, size: 0x8, addend: 0x0, symName: __ZN4core3fmt9Arguments3new17h493d7acebc7659c1E, symObjAddr: 0x204, symBinAddr: 0x10004292C, symSize: 0x1C }
  - { offset: 0xD3AE8, size: 0x8, addend: 0x0, symName: __ZN4core3fmt9Arguments3new17h4efb0c10eacba51aE, symObjAddr: 0x220, symBinAddr: 0x100042948, symSize: 0x1C }
  - { offset: 0xD3B34, size: 0x8, addend: 0x0, symName: __ZN4core3fmt9Arguments3new17h510c1fae20f63379E, symObjAddr: 0x23C, symBinAddr: 0x100042964, symSize: 0x1C }
  - { offset: 0xD3B80, size: 0x8, addend: 0x0, symName: __ZN4core3fmt9Arguments3new17h542de1e4c98a7ebbE, symObjAddr: 0x258, symBinAddr: 0x100042980, symSize: 0x1C }
  - { offset: 0xD3BCC, size: 0x8, addend: 0x0, symName: __ZN4core3fmt9Arguments3new17h5e523cebcfec9ee3E, symObjAddr: 0x274, symBinAddr: 0x10004299C, symSize: 0x1C }
  - { offset: 0xD3C18, size: 0x8, addend: 0x0, symName: __ZN4core3fmt9Arguments3new17h63d9f170684d868bE, symObjAddr: 0x290, symBinAddr: 0x1000429B8, symSize: 0x1C }
  - { offset: 0xD3C4A, size: 0x8, addend: 0x0, symName: __ZN4core3fmt9Arguments3new17h697670a43b27f931E, symObjAddr: 0x2AC, symBinAddr: 0x1000429D4, symSize: 0x1C }
  - { offset: 0xD3C96, size: 0x8, addend: 0x0, symName: __ZN4core3fmt9Arguments3new17h7106f71e7eb1a2f8E, symObjAddr: 0x2C8, symBinAddr: 0x1000429F0, symSize: 0x1C }
  - { offset: 0xD3CE2, size: 0x8, addend: 0x0, symName: __ZN4core3fmt9Arguments3new17h7470d238b5932a36E, symObjAddr: 0x2E4, symBinAddr: 0x100042A0C, symSize: 0x1C }
  - { offset: 0xD3D2E, size: 0x8, addend: 0x0, symName: __ZN4core3fmt9Arguments3new17h7e7db3b3a7303a6cE, symObjAddr: 0x300, symBinAddr: 0x100042A28, symSize: 0x1C }
  - { offset: 0xD3D7A, size: 0x8, addend: 0x0, symName: __ZN4core3fmt9Arguments3new17h86c3a10093087af9E, symObjAddr: 0x31C, symBinAddr: 0x100042A44, symSize: 0x1C }
  - { offset: 0xD3DAC, size: 0x8, addend: 0x0, symName: __ZN4core3fmt9Arguments3new17h87dcb66a3fdc7cf1E, symObjAddr: 0x338, symBinAddr: 0x100042A60, symSize: 0x1C }
  - { offset: 0xD3DF8, size: 0x8, addend: 0x0, symName: __ZN4core3fmt9Arguments3new17h89bfe8f5c245a386E, symObjAddr: 0x354, symBinAddr: 0x100042A7C, symSize: 0x1C }
  - { offset: 0xD3E2A, size: 0x8, addend: 0x0, symName: __ZN4core3fmt9Arguments3new17h8e780f252937752eE, symObjAddr: 0x370, symBinAddr: 0x100042A98, symSize: 0x1C }
  - { offset: 0xD3E76, size: 0x8, addend: 0x0, symName: __ZN4core3fmt9Arguments3new17h8ef44252a2bf6641E, symObjAddr: 0x38C, symBinAddr: 0x100042AB4, symSize: 0x1C }
  - { offset: 0xD3EDC, size: 0x8, addend: 0x0, symName: __ZN4core3fmt9Arguments3new17ha00e7516d426684cE, symObjAddr: 0x3A8, symBinAddr: 0x100042AD0, symSize: 0x1C }
  - { offset: 0xD3F0E, size: 0x8, addend: 0x0, symName: __ZN4core3fmt9Arguments3new17ha4b177b1944a9730E, symObjAddr: 0x3C4, symBinAddr: 0x100042AEC, symSize: 0x1C }
  - { offset: 0xD3F40, size: 0x8, addend: 0x0, symName: __ZN4core3fmt9Arguments3new17ha9d57780feb43bb8E, symObjAddr: 0x3E0, symBinAddr: 0x100042B08, symSize: 0x1C }
  - { offset: 0xD3F8C, size: 0x8, addend: 0x0, symName: __ZN4core3fmt9Arguments3new17hb42ded5cb58e26f3E, symObjAddr: 0x3FC, symBinAddr: 0x100042B24, symSize: 0x1C }
  - { offset: 0xD3FD8, size: 0x8, addend: 0x0, symName: __ZN4core3fmt9Arguments3new17hb7d3404df1717d68E, symObjAddr: 0x418, symBinAddr: 0x100042B40, symSize: 0x1C }
  - { offset: 0xD400A, size: 0x8, addend: 0x0, symName: __ZN4core3fmt9Arguments3new17hb80adf2e24d6b95cE, symObjAddr: 0x434, symBinAddr: 0x100042B5C, symSize: 0x1C }
  - { offset: 0xD4056, size: 0x8, addend: 0x0, symName: __ZN4core3fmt9Arguments3new17hb924a707b53fa8baE, symObjAddr: 0x450, symBinAddr: 0x100042B78, symSize: 0x1C }
  - { offset: 0xD4088, size: 0x8, addend: 0x0, symName: __ZN4core3fmt9Arguments3new17hc3957c40013796c6E, symObjAddr: 0x46C, symBinAddr: 0x100042B94, symSize: 0x1C }
  - { offset: 0xD40BA, size: 0x8, addend: 0x0, symName: __ZN4core3fmt9Arguments3new17hc49cdbaa4898550cE, symObjAddr: 0x488, symBinAddr: 0x100042BB0, symSize: 0x1C }
  - { offset: 0xD4120, size: 0x8, addend: 0x0, symName: __ZN4core3fmt9Arguments3new17hcc993e05d9539145E, symObjAddr: 0x4A4, symBinAddr: 0x100042BCC, symSize: 0x1C }
  - { offset: 0xD416C, size: 0x8, addend: 0x0, symName: __ZN4core3fmt9Arguments3new17hec0cad305cffdfa9E, symObjAddr: 0x4C0, symBinAddr: 0x100042BE8, symSize: 0x1C }
  - { offset: 0xD41D2, size: 0x8, addend: 0x0, symName: __ZN4core3fmt9Arguments3new17hf5ffeda3a4f8b673E, symObjAddr: 0x4DC, symBinAddr: 0x100042C04, symSize: 0x1C }
  - { offset: 0xD421E, size: 0x8, addend: 0x0, symName: __ZN4core3fmt9Arguments3new17hf6cdced6fde4cc83E, symObjAddr: 0x4F8, symBinAddr: 0x100042C20, symSize: 0x1C }
  - { offset: 0xD4250, size: 0x8, addend: 0x0, symName: __ZN4core3fmt9Arguments3new17hfa131db78956912bE, symObjAddr: 0x514, symBinAddr: 0x100042C3C, symSize: 0x1C }
  - { offset: 0xD429C, size: 0x8, addend: 0x0, symName: __ZN4core3fmt9Arguments3new17hfad59007d0f60facE, symObjAddr: 0x530, symBinAddr: 0x100042C58, symSize: 0x1C }
  - { offset: 0xD436E, size: 0x8, addend: 0x0, symName: '__ZN66_$LT$std..thread..id..ThreadId$u20$as$u20$core..cmp..PartialEq$GT$2eq17hae71935c2f7e504cE', symObjAddr: 0x0, symBinAddr: 0x100042EE4, symSize: 0x2C }
  - { offset: 0xD442B, size: 0x8, addend: 0x0, symName: '__ZN66_$LT$std..thread..id..ThreadId$u20$as$u20$core..cmp..PartialEq$GT$2eq17hae71935c2f7e504cE', symObjAddr: 0x0, symBinAddr: 0x100042EE4, symSize: 0x2C }
  - { offset: 0xD44D2, size: 0x8, addend: 0x0, symName: __ZN4core9ub_checks23maybe_is_nonoverlapping7runtime17h48dbbc277afb0d95E, symObjAddr: 0x0, symBinAddr: 0x100042F10, symSize: 0xD8 }
  - { offset: 0xD4657, size: 0x8, addend: 0x0, symName: __ZN4core9ub_checks23maybe_is_nonoverlapping7runtime17h48dbbc277afb0d95E, symObjAddr: 0x0, symBinAddr: 0x100042F10, symSize: 0xD8 }
  - { offset: 0xD486A, size: 0x8, addend: 0x0, symName: __ZN4core5slice3raw14from_raw_parts18precondition_check17h324ae8797ebdf0c8E, symObjAddr: 0x0, symBinAddr: 0x100042FE8, symSize: 0xEC }
  - { offset: 0xD4A09, size: 0x8, addend: 0x0, symName: __ZN4core5slice3raw14from_raw_parts18precondition_check17h324ae8797ebdf0c8E, symObjAddr: 0x0, symBinAddr: 0x100042FE8, symSize: 0xEC }
  - { offset: 0xD4B25, size: 0x8, addend: 0x0, symName: __ZN4core5slice3raw18from_raw_parts_mut18precondition_check17h6e6b4ebc1e371a09E, symObjAddr: 0xEC, symBinAddr: 0x1000430D4, symSize: 0xEC }
  - { offset: 0xD4CBA, size: 0x8, addend: 0x0, symName: '__ZN51_$LT$u64$u20$as$u20$alloc..vec..is_zero..IsZero$GT$7is_zero17h6ecf606d4b5268cfE', symObjAddr: 0x0, symBinAddr: 0x1000431C0, symSize: 0x20 }
  - { offset: 0xD4CF1, size: 0x8, addend: 0x0, symName: '__ZN51_$LT$u64$u20$as$u20$alloc..vec..is_zero..IsZero$GT$7is_zero17h6ecf606d4b5268cfE', symObjAddr: 0x0, symBinAddr: 0x1000431C0, symSize: 0x20 }
  - { offset: 0xD4D4D, size: 0x8, addend: 0x0, symName: '__ZN52_$LT$bool$u20$as$u20$alloc..vec..is_zero..IsZero$GT$7is_zero17h23124f31a5c58464E', symObjAddr: 0x20, symBinAddr: 0x1000431E0, symSize: 0x20 }
  - { offset: 0xD4DA9, size: 0x8, addend: 0x0, symName: '__ZN53_$LT$usize$u20$as$u20$alloc..vec..is_zero..IsZero$GT$7is_zero17h09b66afb2f8f31bcE', symObjAddr: 0x40, symBinAddr: 0x100043200, symSize: 0x20 }
  - { offset: 0xD4E47, size: 0x8, addend: 0x0, symName: '__ZN102_$LT$core..str..iter..CharIndices$u20$as$u20$core..iter..traits..double_ended..DoubleEndedIterator$GT$9next_back17hadf45145366c3df8E', symObjAddr: 0x0, symBinAddr: 0x100043220, symSize: 0x180 }
  - { offset: 0xD4F2E, size: 0x8, addend: 0x0, symName: '__ZN102_$LT$core..str..iter..CharIndices$u20$as$u20$core..iter..traits..double_ended..DoubleEndedIterator$GT$9next_back17hadf45145366c3df8E', symObjAddr: 0x0, symBinAddr: 0x100043220, symSize: 0x180 }
  - { offset: 0xD515E, size: 0x8, addend: 0x0, symName: '__ZN81_$LT$core..str..iter..Chars$u20$as$u20$core..iter..traits..iterator..Iterator$GT$4next17h87c40be3bc10d61eE', symObjAddr: 0x180, symBinAddr: 0x1000433A0, symSize: 0x80 }
  - { offset: 0xD521B, size: 0x8, addend: 0x0, symName: '__ZN87_$LT$core..str..iter..CharIndices$u20$as$u20$core..iter..traits..iterator..Iterator$GT$4next17h2ae72f5c3a6f1c45E', symObjAddr: 0x200, symBinAddr: 0x100043420, symSize: 0x1A4 }
  - { offset: 0xD5B2F, size: 0x8, addend: 0x0, symName: '__ZN4core4iter6traits8iterator8Iterator3all5check28_$u7b$$u7b$closure$u7d$$u7d$17h002d800be6fa0153E', symObjAddr: 0x0, symBinAddr: 0x1000435C4, symSize: 0x4C }
  - { offset: 0xD5EC5, size: 0x8, addend: 0x0, symName: '__ZN4core4iter6traits8iterator8Iterator3all5check28_$u7b$$u7b$closure$u7d$$u7d$17h002d800be6fa0153E', symObjAddr: 0x0, symBinAddr: 0x1000435C4, symSize: 0x4C }
  - { offset: 0xD5F2D, size: 0x8, addend: 0x0, symName: '__ZN4core4iter6traits8iterator8Iterator4find5check28_$u7b$$u7b$closure$u7d$$u7d$17h8512eceb3c5dd119E', symObjAddr: 0x4C, symBinAddr: 0x100043610, symSize: 0x80 }
  - { offset: 0xD5F95, size: 0x8, addend: 0x0, symName: '__ZN4core4iter6traits8iterator8Iterator8find_map5check28_$u7b$$u7b$closure$u7d$$u7d$17h503bc223777f166eE', symObjAddr: 0xCC, symBinAddr: 0x100043690, symSize: 0x78 }
  - { offset: 0xD6024, size: 0x8, addend: 0x0, symName: '__ZN4core4iter6traits8iterator8Iterator8for_each4call28_$u7b$$u7b$closure$u7d$$u7d$17h039f9d7fa6e3063eE', symObjAddr: 0x144, symBinAddr: 0x100043708, symSize: 0x3C }
  - { offset: 0xD607D, size: 0x8, addend: 0x0, symName: '__ZN4core4iter6traits8iterator8Iterator8for_each4call28_$u7b$$u7b$closure$u7d$$u7d$17h09be5564f39aa832E', symObjAddr: 0x180, symBinAddr: 0x100043744, symSize: 0x28 }
  - { offset: 0xD60D5, size: 0x8, addend: 0x0, symName: '__ZN4core4iter6traits8iterator8Iterator8for_each4call28_$u7b$$u7b$closure$u7d$$u7d$17h279119659b3a6ca4E', symObjAddr: 0x1A8, symBinAddr: 0x10004376C, symSize: 0x2C }
  - { offset: 0xD612D, size: 0x8, addend: 0x0, symName: '__ZN4core4iter6traits8iterator8Iterator8for_each4call28_$u7b$$u7b$closure$u7d$$u7d$17h527a4a237b0ed4deE', symObjAddr: 0x1D4, symBinAddr: 0x100043798, symSize: 0x3C }
  - { offset: 0xD6186, size: 0x8, addend: 0x0, symName: '__ZN4core4iter6traits8iterator8Iterator8for_each4call28_$u7b$$u7b$closure$u7d$$u7d$17h60dbdf8ae6df21f0E', symObjAddr: 0x210, symBinAddr: 0x1000437D4, symSize: 0x40 }
  - { offset: 0xD61DF, size: 0x8, addend: 0x0, symName: '__ZN4core4iter6traits8iterator8Iterator8for_each4call28_$u7b$$u7b$closure$u7d$$u7d$17h6de92c10c2d72403E', symObjAddr: 0x250, symBinAddr: 0x100043814, symSize: 0x2C }
  - { offset: 0xD6237, size: 0x8, addend: 0x0, symName: '__ZN4core4iter6traits8iterator8Iterator8for_each4call28_$u7b$$u7b$closure$u7d$$u7d$17h746aa2caa56cb171E', symObjAddr: 0x27C, symBinAddr: 0x100043840, symSize: 0x28 }
  - { offset: 0xD628F, size: 0x8, addend: 0x0, symName: '__ZN4core4iter6traits8iterator8Iterator8for_each4call28_$u7b$$u7b$closure$u7d$$u7d$17h7e0bdfa0199ece05E', symObjAddr: 0x2A4, symBinAddr: 0x100043868, symSize: 0x2C }
  - { offset: 0xD62E7, size: 0x8, addend: 0x0, symName: '__ZN4core4iter6traits8iterator8Iterator8for_each4call28_$u7b$$u7b$closure$u7d$$u7d$17h926c677b35bbc930E', symObjAddr: 0x2D0, symBinAddr: 0x100043894, symSize: 0x3C }
  - { offset: 0xD6340, size: 0x8, addend: 0x0, symName: '__ZN4core4iter6traits8iterator8Iterator8for_each4call28_$u7b$$u7b$closure$u7d$$u7d$17hb31d7844b7112ed0E', symObjAddr: 0x30C, symBinAddr: 0x1000438D0, symSize: 0x3C }
  - { offset: 0xD6399, size: 0x8, addend: 0x0, symName: '__ZN4core4iter6traits8iterator8Iterator8for_each4call28_$u7b$$u7b$closure$u7d$$u7d$17hbf94486241cb8c23E', symObjAddr: 0x348, symBinAddr: 0x10004390C, symSize: 0x28 }
  - { offset: 0xD63F1, size: 0x8, addend: 0x0, symName: '__ZN4core4iter6traits8iterator8Iterator8for_each4call28_$u7b$$u7b$closure$u7d$$u7d$17hda0585d76fa2e2d5E', symObjAddr: 0x370, symBinAddr: 0x100043934, symSize: 0x2C }
  - { offset: 0xD73D1, size: 0x8, addend: 0x0, symName: '__ZN3std6thread11join_handle19JoinHandle$LT$T$GT$4join17h0c6c5539c6ea420bE', symObjAddr: 0x0, symBinAddr: 0x100043960, symSize: 0x34 }
  - { offset: 0xD7CC0, size: 0x8, addend: 0x0, symName: '__ZN3std6thread11join_handle19JoinHandle$LT$T$GT$4join17h0c6c5539c6ea420bE', symObjAddr: 0x0, symBinAddr: 0x100043960, symSize: 0x34 }
  - { offset: 0xD7D0A, size: 0x8, addend: 0x0, symName: __ZN4core5slice4sort6shared5pivot11median3_rec17h02beab8e7ff1727cE, symObjAddr: 0x0, symBinAddr: 0x100043994, symSize: 0x1B8 }
  - { offset: 0xD8500, size: 0x8, addend: 0x0, symName: __ZN4core5slice4sort6shared5pivot11median3_rec17h02beab8e7ff1727cE, symObjAddr: 0x0, symBinAddr: 0x100043994, symSize: 0x1B8 }
  - { offset: 0xD877D, size: 0x8, addend: 0x0, symName: __ZN4core5slice4sort6shared5pivot11median3_rec17h3786401465446d19E, symObjAddr: 0x1B8, symBinAddr: 0x100043B4C, symSize: 0x1E0 }
  - { offset: 0xD89FA, size: 0x8, addend: 0x0, symName: __ZN4core5slice4sort6shared5pivot11median3_rec17h445e21ab5e5a367bE, symObjAddr: 0x398, symBinAddr: 0x100043D2C, symSize: 0x1E0 }
  - { offset: 0xD8C77, size: 0x8, addend: 0x0, symName: __ZN4core5slice4sort6shared5pivot11median3_rec17h59e48be7e19a20f0E, symObjAddr: 0x578, symBinAddr: 0x100043F0C, symSize: 0x1B8 }
  - { offset: 0xD8EF4, size: 0x8, addend: 0x0, symName: __ZN4core5slice4sort6shared5pivot11median3_rec17hcc04c1a42ee56eaeE, symObjAddr: 0x730, symBinAddr: 0x1000440C4, symSize: 0x1B8 }
  - { offset: 0xD9171, size: 0x8, addend: 0x0, symName: __ZN4core5slice4sort6shared5pivot11median3_rec17hd658b84645816720E, symObjAddr: 0x8E8, symBinAddr: 0x10004427C, symSize: 0x1E0 }
  - { offset: 0xD93EE, size: 0x8, addend: 0x0, symName: __ZN4core5slice4sort6shared5pivot11median3_rec17he4951b27c049d4f9E, symObjAddr: 0xAC8, symBinAddr: 0x10004445C, symSize: 0x1B8 }
  - { offset: 0xD966B, size: 0x8, addend: 0x0, symName: __ZN4core5slice4sort6shared5pivot11median3_rec17hed97cecafc5f0b4bE, symObjAddr: 0xC80, symBinAddr: 0x100044614, symSize: 0x1B8 }
  - { offset: 0xD986F, size: 0x8, addend: 0x0, symName: __ZN4core5slice4sort6shared5pivot12choose_pivot17h2dfaf1259fb2785bE, symObjAddr: 0xE38, symBinAddr: 0x1000447CC, symSize: 0x234 }
  - { offset: 0xD9AC0, size: 0x8, addend: 0x0, symName: __ZN4core5slice4sort6shared5pivot12choose_pivot17h3e2682cb3c60031aE, symObjAddr: 0x106C, symBinAddr: 0x100044A00, symSize: 0x240 }
  - { offset: 0xD9D11, size: 0x8, addend: 0x0, symName: __ZN4core5slice4sort6shared5pivot12choose_pivot17h465b1d23a0380271E, symObjAddr: 0x12AC, symBinAddr: 0x100044C40, symSize: 0x234 }
  - { offset: 0xD9F62, size: 0x8, addend: 0x0, symName: __ZN4core5slice4sort6shared5pivot12choose_pivot17h5f988d34cdea5631E, symObjAddr: 0x14E0, symBinAddr: 0x100044E74, symSize: 0x240 }
  - { offset: 0xDA1B3, size: 0x8, addend: 0x0, symName: __ZN4core5slice4sort6shared5pivot12choose_pivot17hab6655aadfe5fe5bE, symObjAddr: 0x1720, symBinAddr: 0x1000450B4, symSize: 0x234 }
  - { offset: 0xDA404, size: 0x8, addend: 0x0, symName: __ZN4core5slice4sort6shared5pivot12choose_pivot17hb4ea5dda761feec8E, symObjAddr: 0x1954, symBinAddr: 0x1000452E8, symSize: 0x234 }
  - { offset: 0xDA655, size: 0x8, addend: 0x0, symName: __ZN4core5slice4sort6shared5pivot12choose_pivot17hc7ccee0b7d8bc06aE, symObjAddr: 0x1B88, symBinAddr: 0x10004551C, symSize: 0x240 }
  - { offset: 0xDA8A6, size: 0x8, addend: 0x0, symName: __ZN4core5slice4sort6shared5pivot12choose_pivot17hcfc53a894114acd1E, symObjAddr: 0x1DC8, symBinAddr: 0x10004575C, symSize: 0x234 }
  - { offset: 0xDB279, size: 0x8, addend: 0x0, symName: '__ZN4core3f3221_$LT$impl$u20$f32$GT$7to_bits17h9acf546ccdeb02ceE', symObjAddr: 0x0, symBinAddr: 0x100045990, symSize: 0x14 }
  - { offset: 0xDB295, size: 0x8, addend: 0x0, symName: '__ZN4core3f3221_$LT$impl$u20$f32$GT$7to_bits17h9acf546ccdeb02ceE', symObjAddr: 0x0, symBinAddr: 0x100045990, symSize: 0x14 }
  - { offset: 0xDB2F2, size: 0x8, addend: 0x0, symName: '__ZN4core3ptr9const_ptr33_$LT$impl$u20$$BP$const$u20$T$GT$13is_aligned_to17hacbfb919acd7616bE', symObjAddr: 0x0, symBinAddr: 0x1000459A4, symSize: 0x88 }
  - { offset: 0xDB359, size: 0x8, addend: 0x0, symName: '__ZN4core3ptr9const_ptr33_$LT$impl$u20$$BP$const$u20$T$GT$13is_aligned_to17hacbfb919acd7616bE', symObjAddr: 0x0, symBinAddr: 0x1000459A4, symSize: 0x88 }
  - { offset: 0xDB3DB, size: 0x8, addend: 0x0, symName: '__ZN4core3ptr9const_ptr33_$LT$impl$u20$$BP$const$u20$T$GT$14read_unaligned17h128cad41c362609aE', symObjAddr: 0x88, symBinAddr: 0x100045A2C, symSize: 0x24 }
  - { offset: 0xDB412, size: 0x8, addend: 0x0, symName: '__ZN4core3ptr9const_ptr33_$LT$impl$u20$$BP$const$u20$T$GT$14read_unaligned17h395688d3de6e4b11E', symObjAddr: 0xAC, symBinAddr: 0x100045A50, symSize: 0x24 }
  - { offset: 0xDB449, size: 0x8, addend: 0x0, symName: '__ZN4core3ptr9const_ptr33_$LT$impl$u20$$BP$const$u20$T$GT$14read_unaligned17h4bb30be16b5a6214E', symObjAddr: 0xD0, symBinAddr: 0x100045A74, symSize: 0x24 }
  - { offset: 0xDB480, size: 0x8, addend: 0x0, symName: '__ZN4core3ptr9const_ptr33_$LT$impl$u20$$BP$const$u20$T$GT$14read_unaligned17h52e445cc5d510be9E', symObjAddr: 0xF4, symBinAddr: 0x100045A98, symSize: 0x24 }
  - { offset: 0xDB4B7, size: 0x8, addend: 0x0, symName: '__ZN4core3ptr9const_ptr33_$LT$impl$u20$$BP$const$u20$T$GT$14read_unaligned17h59dba692e168d577E', symObjAddr: 0x118, symBinAddr: 0x100045ABC, symSize: 0x24 }
  - { offset: 0xDB4EE, size: 0x8, addend: 0x0, symName: '__ZN4core3ptr9const_ptr33_$LT$impl$u20$$BP$const$u20$T$GT$14read_unaligned17h657c3ef926d4137cE', symObjAddr: 0x13C, symBinAddr: 0x100045AE0, symSize: 0x24 }
  - { offset: 0xDB525, size: 0x8, addend: 0x0, symName: '__ZN4core3ptr9const_ptr33_$LT$impl$u20$$BP$const$u20$T$GT$14read_unaligned17h7b35a4558c221da7E', symObjAddr: 0x160, symBinAddr: 0x100045B04, symSize: 0x24 }
  - { offset: 0xDB55C, size: 0x8, addend: 0x0, symName: '__ZN4core3ptr9const_ptr33_$LT$impl$u20$$BP$const$u20$T$GT$14read_unaligned17h99febd92dc708baaE', symObjAddr: 0x184, symBinAddr: 0x100045B28, symSize: 0x24 }
  - { offset: 0xDB593, size: 0x8, addend: 0x0, symName: '__ZN4core3ptr9const_ptr33_$LT$impl$u20$$BP$const$u20$T$GT$14read_unaligned17hc9fd5d1109ce1c2cE', symObjAddr: 0x1A8, symBinAddr: 0x100045B4C, symSize: 0x24 }
  - { offset: 0xDB5CA, size: 0x8, addend: 0x0, symName: '__ZN4core3ptr9const_ptr33_$LT$impl$u20$$BP$const$u20$T$GT$14read_unaligned17hca49c596f834c8f4E', symObjAddr: 0x1CC, symBinAddr: 0x100045B70, symSize: 0x24 }
  - { offset: 0xDB601, size: 0x8, addend: 0x0, symName: '__ZN4core3ptr9const_ptr33_$LT$impl$u20$$BP$const$u20$T$GT$14read_unaligned17hd4ff52e6aff30eb7E', symObjAddr: 0x1F0, symBinAddr: 0x100045B94, symSize: 0x24 }
  - { offset: 0xDB638, size: 0x8, addend: 0x0, symName: '__ZN4core3ptr9const_ptr33_$LT$impl$u20$$BP$const$u20$T$GT$14read_unaligned17he3fa0182262d5cf4E', symObjAddr: 0x214, symBinAddr: 0x100045BB8, symSize: 0x24 }
  - { offset: 0xDB66F, size: 0x8, addend: 0x0, symName: '__ZN4core3ptr9const_ptr33_$LT$impl$u20$$BP$const$u20$T$GT$4read17h0387763b0941dce6E', symObjAddr: 0x238, symBinAddr: 0x100045BDC, symSize: 0x18 }
  - { offset: 0xDB6DB, size: 0x8, addend: 0x0, symName: '__ZN4core3ptr9const_ptr33_$LT$impl$u20$$BP$const$u20$T$GT$7is_null17h2cec551c898d2c23E', symObjAddr: 0x250, symBinAddr: 0x100045BF4, symSize: 0x18 }
  - { offset: 0xDB87F, size: 0x8, addend: 0x0, symName: __ZN3std3sys9backtrace28__rust_begin_short_backtrace17h820f23889b369f7eE, symObjAddr: 0x0, symBinAddr: 0x100045C0C, symSize: 0x20 }
  - { offset: 0xDCB0A, size: 0x8, addend: 0x0, symName: __ZN3std3sys9backtrace28__rust_begin_short_backtrace17h820f23889b369f7eE, symObjAddr: 0x0, symBinAddr: 0x100045C0C, symSize: 0x20 }
  - { offset: 0xDCB83, size: 0x8, addend: 0x0, symName: __ZN3std3sys9backtrace28__rust_begin_short_backtrace17hf393a7671fb00275E, symObjAddr: 0x20, symBinAddr: 0x100045C2C, symSize: 0x1C }
  - { offset: 0xDDDC3, size: 0x8, addend: 0x0, symName: '__ZN4core5slice29_$LT$impl$u20$$u5b$T$u5d$$GT$12split_at_mut17h82299759e0c96e39E', symObjAddr: 0x0, symBinAddr: 0x100045C48, symSize: 0xAC }
  - { offset: 0xDDE12, size: 0x8, addend: 0x0, symName: '__ZN4core5slice29_$LT$impl$u20$$u5b$T$u5d$$GT$12split_at_mut17h82299759e0c96e39E', symObjAddr: 0x0, symBinAddr: 0x100045C48, symSize: 0xAC }
  - { offset: 0xDDE9D, size: 0x8, addend: 0x0, symName: '__ZN4core5slice29_$LT$impl$u20$$u5b$T$u5d$$GT$22split_at_mut_unchecked17h2f87d9da3f9f557bE', symObjAddr: 0xAC, symBinAddr: 0x100045CF4, symSize: 0xE8 }
  - { offset: 0xDE19B, size: 0x8, addend: 0x0, symName: __ZN4core5alloc6layout6Layout15from_size_align17h944750d43b883cefE, symObjAddr: 0x0, symBinAddr: 0x100045DDC, symSize: 0xC0 }
  - { offset: 0xDE615, size: 0x8, addend: 0x0, symName: __ZN4core5alloc6layout6Layout25from_size_align_unchecked18precondition_check17h316daa049cbfb18fE, symObjAddr: 0xC0, symBinAddr: 0x100045E9C, symSize: 0xB8 }
  - { offset: 0xDE743, size: 0x8, addend: 0x0, symName: __ZN4core5alloc6layout6Layout29from_size_alignment_unchecked18precondition_check17h496cd7ab5bfd6f0eE, symObjAddr: 0x178, symBinAddr: 0x100045F54, symSize: 0x68 }
  - { offset: 0xDE7D6, size: 0x8, addend: 0x0, symName: '__ZN69_$LT$core..alloc..layout..LayoutError$u20$as$u20$core..fmt..Debug$GT$3fmt17h7a095a178f4d518eE', symObjAddr: 0x1E0, symBinAddr: 0x100045FBC, symSize: 0x40 }
  - { offset: 0xDEAE6, size: 0x8, addend: 0x0, symName: __ZN4core5alloc6layout6Layout15from_size_align17h944750d43b883cefE, symObjAddr: 0x0, symBinAddr: 0x100045DDC, symSize: 0xC0 }
  - { offset: 0xDED15, size: 0x8, addend: 0x0, symName: '__ZN54_$LT$u64$u20$as$u20$core..iter..traits..accum..Sum$GT$3sum17h1567c4b4bc54ec07E', symObjAddr: 0x0, symBinAddr: 0x100045FFC, symSize: 0x30 }
  - { offset: 0xDEEC7, size: 0x8, addend: 0x0, symName: '__ZN54_$LT$u64$u20$as$u20$core..iter..traits..accum..Sum$GT$3sum17h1567c4b4bc54ec07E', symObjAddr: 0x0, symBinAddr: 0x100045FFC, symSize: 0x30 }
  - { offset: 0xDEEFC, size: 0x8, addend: 0x0, symName: '__ZN54_$LT$u64$u20$as$u20$core..iter..traits..accum..Sum$GT$3sum17h477d1262dde68e5fE', symObjAddr: 0x30, symBinAddr: 0x10004602C, symSize: 0x18 }
  - { offset: 0xDEF32, size: 0x8, addend: 0x0, symName: '__ZN54_$LT$u64$u20$as$u20$core..iter..traits..accum..Sum$GT$3sum17h70eb8aa72b18211aE', symObjAddr: 0x48, symBinAddr: 0x100046044, symSize: 0x18 }
  - { offset: 0xDEF68, size: 0x8, addend: 0x0, symName: '__ZN54_$LT$u64$u20$as$u20$core..iter..traits..accum..Sum$GT$3sum17h9b932665b0fd4a37E', symObjAddr: 0x60, symBinAddr: 0x10004605C, symSize: 0x30 }
  - { offset: 0xDEFA2, size: 0x8, addend: 0x0, symName: '__ZN54_$LT$u64$u20$as$u20$core..iter..traits..accum..Sum$GT$3sum28_$u7b$$u7b$closure$u7d$$u7d$17h0aeb26965e4f3c1dE', symObjAddr: 0x90, symBinAddr: 0x10004608C, symSize: 0x48 }
  - { offset: 0xDEFEF, size: 0x8, addend: 0x0, symName: '__ZN54_$LT$u64$u20$as$u20$core..iter..traits..accum..Sum$GT$3sum28_$u7b$$u7b$closure$u7d$$u7d$17h3e76ed2253f53325E', symObjAddr: 0xD8, symBinAddr: 0x1000460D4, symSize: 0x48 }
  - { offset: 0xDF03C, size: 0x8, addend: 0x0, symName: '__ZN54_$LT$u64$u20$as$u20$core..iter..traits..accum..Sum$GT$3sum28_$u7b$$u7b$closure$u7d$$u7d$17h467eed6cc95164c6E', symObjAddr: 0x120, symBinAddr: 0x10004611C, symSize: 0x48 }
  - { offset: 0xDF089, size: 0x8, addend: 0x0, symName: '__ZN54_$LT$u64$u20$as$u20$core..iter..traits..accum..Sum$GT$3sum28_$u7b$$u7b$closure$u7d$$u7d$17hc9d70fb271910d73E', symObjAddr: 0x168, symBinAddr: 0x100046164, symSize: 0x48 }
  - { offset: 0xDF0F9, size: 0x8, addend: 0x0, symName: '__ZN56_$LT$usize$u20$as$u20$core..iter..traits..accum..Sum$GT$3sum17h831309324cc6623dE', symObjAddr: 0x1B0, symBinAddr: 0x1000461AC, symSize: 0x30 }
  - { offset: 0xDF133, size: 0x8, addend: 0x0, symName: '__ZN56_$LT$usize$u20$as$u20$core..iter..traits..accum..Sum$GT$3sum28_$u7b$$u7b$closure$u7d$$u7d$17h26bc399c3e61b3f8E', symObjAddr: 0x1E0, symBinAddr: 0x1000461DC, symSize: 0x48 }
  - { offset: 0xDF180, size: 0x8, addend: 0x0, symName: '__ZN56_$LT$usize$u20$as$u20$core..iter..traits..accum..Sum$GT$3sum28_$u7b$$u7b$closure$u7d$$u7d$17had03b20cc6fb4db9E', symObjAddr: 0x228, symBinAddr: 0x100046224, symSize: 0x48 }
  - { offset: 0xDF8BC, size: 0x8, addend: 0x0, symName: '__ZN64_$LT$alloc..borrow..Cow$LT$B$GT$$u20$as$u20$core..fmt..Debug$GT$3fmt17h68f593bae264e0b6E', symObjAddr: 0x0, symBinAddr: 0x10004626C, symSize: 0x84 }
  - { offset: 0xDFB78, size: 0x8, addend: 0x0, symName: '__ZN64_$LT$alloc..borrow..Cow$LT$B$GT$$u20$as$u20$core..fmt..Debug$GT$3fmt17h68f593bae264e0b6E', symObjAddr: 0x0, symBinAddr: 0x10004626C, symSize: 0x84 }
  - { offset: 0xDFC30, size: 0x8, addend: 0x0, symName: '__ZN66_$LT$alloc..borrow..Cow$LT$B$GT$$u20$as$u20$core..fmt..Display$GT$3fmt17h6cfac42a7c40d088E', symObjAddr: 0x84, symBinAddr: 0x1000462F0, symSize: 0x84 }
  - { offset: 0xDFE76, size: 0x8, addend: 0x0, symName: __ZN9gcrust_rt7runtime11FrameOrigin3new17hc317d123f56f4888E, symObjAddr: 0x0, symBinAddr: 0x100046374, symSize: 0x24 }
  - { offset: 0xE0AD7, size: 0x8, addend: 0x0, symName: '__ZN9gcrust_rt7runtime14CURRENT_THREAD29_$u7b$$u7b$constant$u7d$$u7d$28_$u7b$$u7b$closure$u7d$$u7d$23__RUST_STD_INTERNAL_VAL17h8dcf1929ed046f13E', symObjAddr: 0x7E80, symBinAddr: 0x100184A70, symSize: 0x0 }
  - { offset: 0xE0AF8, size: 0x8, addend: 0x0, symName: '__ZN9gcrust_rt7runtime14CURRENT_THREAD29_$u7b$$u7b$constant$u7d$$u7d$28_$u7b$$u7b$closure$u7d$$u7d$23__RUST_STD_INTERNAL_VAL17hace85569ab5b24e4E', symObjAddr: 0x7E98, symBinAddr: 0x100184A88, symSize: 0x0 }
  - { offset: 0xE0BD5, size: 0x8, addend: 0x0, symName: __ZN9gcrust_rt7runtime16ai_heap_snapshot12SNAPSHOT_SEQ17h39398719d49b9c6fE, symObjAddr: 0x20468, symBinAddr: 0x100184C58, symSize: 0x0 }
  - { offset: 0xE0BE3, size: 0x8, addend: 0x0, symName: __ZN9gcrust_rt7runtime13active_fields17h00c54094947e124bE, symObjAddr: 0x24, symBinAddr: 0x100046398, symSize: 0x190 }
  - { offset: 0xE0D9F, size: 0x8, addend: 0x0, symName: __ZN9gcrust_rt7runtime14walk_gc_frames17h074d97c0abe705a9E, symObjAddr: 0x64C, symBinAddr: 0x1000469C0, symSize: 0x370 }
  - { offset: 0xE0F42, size: 0x8, addend: 0x0, symName: __ZN9gcrust_rt7runtime18set_current_thread17h0d8c48c163ea987fE, symObjAddr: 0x9BC, symBinAddr: 0x100046D30, symSize: 0x2C }
  - { offset: 0xE0F6A, size: 0x8, addend: 0x0, symName: __ZN9gcrust_rt7runtime21configured_heap_sizes17h1d654e4fb02a426aE, symObjAddr: 0x9E8, symBinAddr: 0x100046D5C, symSize: 0x5C }
  - { offset: 0xE0F8D, size: 0x8, addend: 0x0, symName: __ZN9gcrust_rt7runtime21configured_heap_sizes6mb_env17h089b952a55492c79E, symObjAddr: 0xA44, symBinAddr: 0x100046DB8, symSize: 0x64 }
  - { offset: 0xE0FE9, size: 0x8, addend: 0x0, symName: __ZN9gcrust_rt7runtime23alloc_string_from_bytes17h5e2c5c92bf48628cE, symObjAddr: 0xAA8, symBinAddr: 0x100046E1C, symSize: 0x1E8 }
  - { offset: 0xE110F, size: 0x8, addend: 0x0, symName: __ZN9gcrust_rt7runtime26alloc_with_published_frame17hf6b6c92459e641a6E, symObjAddr: 0xC90, symBinAddr: 0x100047004, symSize: 0x284 }
  - { offset: 0xE125C, size: 0x8, addend: 0x0, symName: __ZN9gcrust_rt7runtime8field_at17h291f995c92ff5da5E, symObjAddr: 0xF14, symBinAddr: 0x100047288, symSize: 0x104 }
  - { offset: 0xE12E5, size: 0x8, addend: 0x0, symName: __ZN9gcrust_rt7runtime9str_bytes17h9d76f5bb733a4b80E, symObjAddr: 0x1018, symBinAddr: 0x10004738C, symSize: 0xB0 }
  - { offset: 0xE1375, size: 0x8, addend: 0x0, symName: _ai_atomic_i64_compare_and_set, symObjAddr: 0x10C8, symBinAddr: 0x10004743C, symSize: 0xC4 }
  - { offset: 0xE13CC, size: 0x8, addend: 0x0, symName: _ai_atomic_i64_fetch_add, symObjAddr: 0x118C, symBinAddr: 0x100047500, symSize: 0x90 }
  - { offset: 0xE1414, size: 0x8, addend: 0x0, symName: _ai_atomic_i64_load, symObjAddr: 0x121C, symBinAddr: 0x100047590, symSize: 0x84 }
  - { offset: 0xE144D, size: 0x8, addend: 0x0, symName: _ai_atomic_i64_new, symObjAddr: 0x12A0, symBinAddr: 0x100047614, symSize: 0xCC }
  - { offset: 0xE14BE, size: 0x8, addend: 0x0, symName: _ai_atomic_i64_store, symObjAddr: 0x136C, symBinAddr: 0x1000476E0, symSize: 0x8C }
  - { offset: 0xE1506, size: 0x8, addend: 0x0, symName: _ai_buf_copy_in, symObjAddr: 0x13F8, symBinAddr: 0x10004776C, symSize: 0xA0 }
  - { offset: 0xE15CB, size: 0x8, addend: 0x0, symName: _ai_buf_copy_out, symObjAddr: 0x1498, symBinAddr: 0x10004780C, symSize: 0xA0 }
  - { offset: 0xE16BD, size: 0x8, addend: 0x0, symName: _ai_chan_new, symObjAddr: 0x1538, symBinAddr: 0x1000478AC, symSize: 0x1A8 }
  - { offset: 0xE1748, size: 0x8, addend: 0x0, symName: _ai_chan_recv, symObjAddr: 0x16E0, symBinAddr: 0x100047A54, symSize: 0x730 }
  - { offset: 0xE194E, size: 0x8, addend: 0x0, symName: _ai_chan_send, symObjAddr: 0x1E10, symBinAddr: 0x100048184, symSize: 0xAA8 }
  - { offset: 0xE1D02, size: 0x8, addend: 0x0, symName: _ai_chan_sender_clone, symObjAddr: 0x28B8, symBinAddr: 0x100048C2C, symSize: 0x1D0 }
  - { offset: 0xE1D72, size: 0x8, addend: 0x0, symName: _ai_chan_sender_drop, symObjAddr: 0x2A88, symBinAddr: 0x100048DFC, symSize: 0x224 }
  - { offset: 0xE1E10, size: 0x8, addend: 0x0, symName: _ai_char_to_str, symObjAddr: 0x2CAC, symBinAddr: 0x100049020, symSize: 0xF0 }
  - { offset: 0xE1ED1, size: 0x8, addend: 0x0, symName: _ai_closure_code_ptr, symObjAddr: 0x2D9C, symBinAddr: 0x100049110, symSize: 0x23C }
  - { offset: 0xE1FC7, size: 0x8, addend: 0x0, symName: _ai_current_thread, symObjAddr: 0x2FD8, symBinAddr: 0x10004934C, symSize: 0x34 }
  - { offset: 0xE1FE0, size: 0x8, addend: 0x0, symName: _ai_ffi_enter, symObjAddr: 0x300C, symBinAddr: 0x100049380, symSize: 0xE0 }
  - { offset: 0xE203A, size: 0x8, addend: 0x0, symName: _ai_ffi_exit, symObjAddr: 0x30EC, symBinAddr: 0x100049460, symSize: 0xE0 }
  - { offset: 0xE2094, size: 0x8, addend: 0x0, symName: _ai_ffi_leave, symObjAddr: 0x31CC, symBinAddr: 0x100049540, symSize: 0xD0 }
  - { offset: 0xE20D8, size: 0x8, addend: 0x0, symName: _ai_ffi_reenter, symObjAddr: 0x329C, symBinAddr: 0x100049610, symSize: 0xD0 }
  - { offset: 0xE211C, size: 0x8, addend: 0x0, symName: _ai_gc_alloc_fixed, symObjAddr: 0x336C, symBinAddr: 0x1000496E0, symSize: 0x1B8 }
  - { offset: 0xE21BC, size: 0x8, addend: 0x0, symName: _ai_gc_alloc_varlen, symObjAddr: 0x3524, symBinAddr: 0x100049898, symSize: 0x1C0 }
  - { offset: 0xE226B, size: 0x8, addend: 0x0, symName: _ai_gc_pollcheck_slow, symObjAddr: 0x36E4, symBinAddr: 0x100049A58, symSize: 0xF8 }
  - { offset: 0xE22BD, size: 0x8, addend: 0x0, symName: _ai_gc_write_barrier, symObjAddr: 0x37DC, symBinAddr: 0x100049B50, symSize: 0x458 }
  - { offset: 0xE24C3, size: 0x8, addend: 0x0, symName: _ai_heap_snapshot, symObjAddr: 0x3C34, symBinAddr: 0x100049FA8, symSize: 0x458 }
  - { offset: 0xE2670, size: 0x8, addend: 0x0, symName: _ai_print_float, symObjAddr: 0x408C, symBinAddr: 0x10004A400, symSize: 0x78 }
  - { offset: 0xE26DD, size: 0x8, addend: 0x0, symName: _ai_print_int, symObjAddr: 0x4104, symBinAddr: 0x10004A478, symSize: 0x78 }
  - { offset: 0xE274A, size: 0x8, addend: 0x0, symName: _ai_print_str, symObjAddr: 0x417C, symBinAddr: 0x10004A4F0, symSize: 0xE4 }
  - { offset: 0xE27CE, size: 0x8, addend: 0x0, symName: _ai_print_str_raw, symObjAddr: 0x4260, symBinAddr: 0x10004A5D4, symSize: 0xCC }
  - { offset: 0xE2833, size: 0x8, addend: 0x0, symName: _ai_read_file, symObjAddr: 0x432C, symBinAddr: 0x10004A6A0, symSize: 0x130 }
  - { offset: 0xE28BF, size: 0x8, addend: 0x0, symName: _ai_reflect_field_count, symObjAddr: 0x445C, symBinAddr: 0x10004A7D0, symSize: 0xE4 }
  - { offset: 0xE2916, size: 0x8, addend: 0x0, symName: _ai_reflect_field_i64, symObjAddr: 0x4540, symBinAddr: 0x10004A8B4, symSize: 0x388 }
  - { offset: 0xE29DF, size: 0x8, addend: 0x0, symName: _ai_reflect_field_kind, symObjAddr: 0x48C8, symBinAddr: 0x10004AC3C, symSize: 0x1C8 }
  - { offset: 0xE2A53, size: 0x8, addend: 0x0, symName: _ai_reflect_field_name, symObjAddr: 0x4A90, symBinAddr: 0x10004AE04, symSize: 0x1A8 }
  - { offset: 0xE2AD7, size: 0x8, addend: 0x0, symName: _ai_str_concat, symObjAddr: 0x4C38, symBinAddr: 0x10004AFAC, symSize: 0x10C }
  - { offset: 0xE2B45, size: 0x8, addend: 0x0, symName: _ai_str_copy_to_buf, symObjAddr: 0x4D44, symBinAddr: 0x10004B0B8, symSize: 0xF8 }
  - { offset: 0xE2C15, size: 0x8, addend: 0x0, symName: _ai_str_eq, symObjAddr: 0x4E3C, symBinAddr: 0x10004B1B0, symSize: 0x9C }
  - { offset: 0xE2C5D, size: 0x8, addend: 0x0, symName: _ai_str_from_float, symObjAddr: 0x4ED8, symBinAddr: 0x10004B24C, symSize: 0xB8 }
  - { offset: 0xE2CBB, size: 0x8, addend: 0x0, symName: _ai_str_from_int, symObjAddr: 0x4F90, symBinAddr: 0x10004B304, symSize: 0xB8 }
  - { offset: 0xE2D19, size: 0x8, addend: 0x0, symName: _ai_str_get, symObjAddr: 0x5048, symBinAddr: 0x10004B3BC, symSize: 0xCC }
  - { offset: 0xE2D7F, size: 0x8, addend: 0x0, symName: _ai_str_hash, symObjAddr: 0x5114, symBinAddr: 0x10004B488, symSize: 0x100 }
  - { offset: 0xE2E21, size: 0x8, addend: 0x0, symName: _ai_str_len, symObjAddr: 0x5214, symBinAddr: 0x10004B588, symSize: 0x94 }
  - { offset: 0xE2E78, size: 0x8, addend: 0x0, symName: _ai_str_substring, symObjAddr: 0x52A8, symBinAddr: 0x10004B61C, symSize: 0x210 }
  - { offset: 0xE3020, size: 0x8, addend: 0x0, symName: _ai_str_to_float, symObjAddr: 0x54B8, symBinAddr: 0x10004B82C, symSize: 0xC0 }
  - { offset: 0xE3077, size: 0x8, addend: 0x0, symName: _ai_thread_current_id, symObjAddr: 0x5578, symBinAddr: 0x10004B8EC, symSize: 0xC0 }
  - { offset: 0xE30B7, size: 0x8, addend: 0x0, symName: _ai_thread_join, symObjAddr: 0x5638, symBinAddr: 0x10004B9AC, symSize: 0x144 }
  - { offset: 0xE311D, size: 0x8, addend: 0x0, symName: _ai_thread_sleep, symObjAddr: 0x577C, symBinAddr: 0x10004BAF0, symSize: 0x4C }
  - { offset: 0xE3167, size: 0x8, addend: 0x0, symName: _ai_thread_spawn, symObjAddr: 0x57C8, symBinAddr: 0x10004BB3C, symSize: 0x218 }
  - { offset: 0xE3275, size: 0x8, addend: 0x0, symName: _ai_thread_yield, symObjAddr: 0x59E0, symBinAddr: 0x10004BD54, symSize: 0x28 }
  - { offset: 0xE329B, size: 0x8, addend: 0x0, symName: _ai_type_name, symObjAddr: 0x5A08, symBinAddr: 0x10004BD7C, symSize: 0x1A4 }
  - { offset: 0xE3327, size: 0x8, addend: 0x0, symName: _gcr_runtime_main, symObjAddr: 0x5BAC, symBinAddr: 0x10004BF20, symSize: 0xC1C }
  - { offset: 0xE63A8, size: 0x8, addend: 0x0, symName: __ZN9gcrust_rt7runtime11FrameOrigin3new17hc317d123f56f4888E, symObjAddr: 0x0, symBinAddr: 0x100046374, symSize: 0x24 }
  - { offset: 0xE63FF, size: 0x8, addend: 0x0, symName: __ZN9gcrust_rt7runtime14RuntimeContext10thread_ptr17h282b4d3260bd64d1E, symObjAddr: 0x1B4, symBinAddr: 0x100046528, symSize: 0x70 }
  - { offset: 0xE643C, size: 0x8, addend: 0x0, symName: __ZN9gcrust_rt7runtime14RuntimeContext13force_collect17hba72948111b4f7b2E, symObjAddr: 0x224, symBinAddr: 0x100046598, symSize: 0xA8 }
  - { offset: 0xE648C, size: 0x8, addend: 0x0, symName: __ZN9gcrust_rt7runtime14RuntimeContext16new_generational17h983a232b9d25c721E, symObjAddr: 0x2CC, symBinAddr: 0x100046640, symSize: 0x5C }
  - { offset: 0xE64CE, size: 0x8, addend: 0x0, symName: __ZN9gcrust_rt7runtime14RuntimeContext3new17hefb76455fa20a1d6E, symObjAddr: 0x328, symBinAddr: 0x10004669C, symSize: 0x58 }
  - { offset: 0xE650E, size: 0x8, addend: 0x0, symName: __ZN9gcrust_rt7runtime14RuntimeContext4heap17h6247dc154c5585a7E, symObjAddr: 0x380, symBinAddr: 0x1000466F4, symSize: 0x14 }
  - { offset: 0xE6531, size: 0x8, addend: 0x0, symName: __ZN9gcrust_rt7runtime14RuntimeContext9from_heap17heea99522cf9b6281E, symObjAddr: 0x394, symBinAddr: 0x100046708, symSize: 0x2B8 }
  - { offset: 0xE6DAF, size: 0x8, addend: 0x0, symName: '__ZN4core3ptr7mut_ptr31_$LT$impl$u20$$BP$mut$u20$T$GT$7is_null17hc8600a9bfe3d309dE', symObjAddr: 0x0, symBinAddr: 0x10004CB3C, symSize: 0x18 }
  - { offset: 0xE75EB, size: 0x8, addend: 0x0, symName: '__ZN9gcrust_rt7runtime12ai_type_name28_$u7b$$u7b$closure$u7d$$u7d$17h1858bc283d064962E', symObjAddr: 0xC0, symBinAddr: 0x10004CBFC, symSize: 0x24 }
  - { offset: 0xE7624, size: 0x8, addend: 0x0, symName: '__ZN9gcrust_rt7runtime12ai_type_name28_$u7b$$u7b$closure$u7d$$u7d$17hc96f85cb4adece32E', symObjAddr: 0xE4, symBinAddr: 0x10004CC20, symSize: 0x68 }
  - { offset: 0xE76BB, size: 0x8, addend: 0x0, symName: '__ZN9gcrust_rt7runtime13active_fields28_$u7b$$u7b$closure$u7d$$u7d$17h8283fb00c3cf03c0E', symObjAddr: 0x14C, symBinAddr: 0x10004CC88, symSize: 0x24 }
  - { offset: 0xE76F4, size: 0x8, addend: 0x0, symName: '__ZN9gcrust_rt7runtime13active_fields28_$u7b$$u7b$closure$u7d$$u7d$17hdb540a3f0e390d30E', symObjAddr: 0x170, symBinAddr: 0x10004CCAC, symSize: 0x34 }
  - { offset: 0xE7746, size: 0x8, addend: 0x0, symName: '__ZN9gcrust_rt7runtime14CURRENT_THREAD29_$u7b$$u7b$constant$u7d$$u7d$28_$u7b$$u7b$closure$u7d$$u7d$17hf737076577b38b40E', symObjAddr: 0x1A4, symBinAddr: 0x10004CCE0, symSize: 0x30 }
  - { offset: 0xE7786, size: 0x8, addend: 0x0, symName: '__ZN9gcrust_rt7runtime14ai_thread_join28_$u7b$$u7b$closure$u7d$$u7d$17he2cb5942df666e7bE', symObjAddr: 0x1D4, symBinAddr: 0x10004CD10, symSize: 0x48 }
  - { offset: 0xE77CF, size: 0x8, addend: 0x0, symName: '__ZN9gcrust_rt7runtime15ai_thread_sleep28_$u7b$$u7b$closure$u7d$$u7d$17h8aeb7b8c93cde598E', symObjAddr: 0x21C, symBinAddr: 0x10004CD58, symSize: 0x2C }
  - { offset: 0xE7814, size: 0x8, addend: 0x0, symName: '__ZN9gcrust_rt7runtime15ai_thread_spawn28_$u7b$$u7b$closure$u7d$$u7d$17h938a91f5a61574d8E', symObjAddr: 0x248, symBinAddr: 0x10004CD84, symSize: 0x3C8 }
  - { offset: 0xE79D9, size: 0x8, addend: 0x0, symName: __ZN9gcrust_rt7runtime15blocking_region17h31fdfc853a1721a9E, symObjAddr: 0x610, symBinAddr: 0x10004D14C, symSize: 0x244 }
  - { offset: 0xE7A82, size: 0x8, addend: 0x0, symName: __ZN9gcrust_rt7runtime15blocking_region17h9e441500410f75a1E, symObjAddr: 0x854, symBinAddr: 0x10004D390, symSize: 0x1FC }
  - { offset: 0xE7B32, size: 0x8, addend: 0x0, symName: '__ZN9gcrust_rt7runtime16gcr_runtime_main28_$u7b$$u7b$closure$u7d$$u7d$17hf039dac9d72c2131E', symObjAddr: 0xA50, symBinAddr: 0x10004D58C, symSize: 0x244 }
  - { offset: 0xE7C43, size: 0x8, addend: 0x0, symName: '__ZN9gcrust_rt7runtime17ai_current_thread28_$u7b$$u7b$closure$u7d$$u7d$17h2d04a013f2cf4dbeE', symObjAddr: 0xC94, symBinAddr: 0x10004D7D0, symSize: 0x24 }
  - { offset: 0xE7C86, size: 0x8, addend: 0x0, symName: '__ZN9gcrust_rt7runtime18set_current_thread28_$u7b$$u7b$closure$u7d$$u7d$17hccd39108f6a28df8E', symObjAddr: 0xCB8, symBinAddr: 0x10004D7F4, symSize: 0x38 }
  - { offset: 0xE7CC9, size: 0x8, addend: 0x0, symName: '__ZN9gcrust_rt7runtime21configured_heap_sizes6mb_env28_$u7b$$u7b$closure$u7d$$u7d$17h9a696f5b3abc1a93E', symObjAddr: 0xCF0, symBinAddr: 0x10004D82C, symSize: 0x24 }
  - { offset: 0xE7D1C, size: 0x8, addend: 0x0, symName: '__ZN9gcrust_rt7runtime21configured_heap_sizes6mb_env28_$u7b$$u7b$closure$u7d$$u7d$17ha22f974289ea288bE', symObjAddr: 0xD14, symBinAddr: 0x10004D850, symSize: 0xA4 }
  - { offset: 0xE7E2C, size: 0x8, addend: 0x0, symName: '__ZN4core3ptr9const_ptr33_$LT$impl$u20$$BP$const$u20$T$GT$7is_null17h1402a413bb5b25d5E', symObjAddr: 0x18, symBinAddr: 0x10004CB54, symSize: 0x18 }
  - { offset: 0xE7E76, size: 0x8, addend: 0x0, symName: '__ZN4core3ptr9const_ptr33_$LT$impl$u20$$BP$const$u20$T$GT$7is_null17hae2474c730bfdd4cE', symObjAddr: 0x30, symBinAddr: 0x10004CB6C, symSize: 0x18 }
  - { offset: 0xE7EC0, size: 0x8, addend: 0x0, symName: '__ZN4core3ptr9const_ptr33_$LT$impl$u20$$BP$const$u20$T$GT$7is_null17hdc614b13cfef7ecdE', symObjAddr: 0x48, symBinAddr: 0x10004CB84, symSize: 0x18 }
  - { offset: 0xE805A, size: 0x8, addend: 0x0, symName: '__ZN4core3ptr7mut_ptr31_$LT$impl$u20$$BP$mut$u20$T$GT$7is_null17hc8600a9bfe3d309dE', symObjAddr: 0x0, symBinAddr: 0x10004CB3C, symSize: 0x18 }
  - { offset: 0xE8E62, size: 0x8, addend: 0x0, symName: '__ZN4core5slice29_$LT$impl$u20$$u5b$T$u5d$$GT$4iter17hf374f4e7a532ea3bE', symObjAddr: 0x98, symBinAddr: 0x10004CBD4, symSize: 0x28 }
  - { offset: 0xE8EF5, size: 0x8, addend: 0x0, symName: '__ZN4core5array85_$LT$impl$u20$core..ops..index..Index$LT$I$GT$$u20$for$u20$$u5b$T$u3b$$u20$N$u5d$$GT$5index17h1aaeed6d15a54562E', symObjAddr: 0x60, symBinAddr: 0x10004CB9C, symSize: 0x38 }
  - { offset: 0xEA90E, size: 0x8, addend: 0x0, symName: '__ZN68_$LT$gcrust_rt..gc..heap..GcKind$u20$as$u20$core..cmp..PartialEq$GT$2eq17h37a663a0681a7721E', symObjAddr: 0x0, symBinAddr: 0x10004D8F4, symSize: 0x34 }
  - { offset: 0xED032, size: 0x8, addend: 0x0, symName: __ZN9gcrust_rt2gc4heap15gc_verify_armed5STATE17hce529b4f131bd9dbE, symObjAddr: 0x5EB0, symBinAddr: 0x100184000, symSize: 0x0 }
  - { offset: 0xED0DA, size: 0x8, addend: 0x0, symName: '__ZN68_$LT$gcrust_rt..gc..heap..GcKind$u20$as$u20$core..cmp..PartialEq$GT$2eq17h37a663a0681a7721E', symObjAddr: 0x0, symBinAddr: 0x10004D8F4, symSize: 0x34 }
  - { offset: 0xED14F, size: 0x8, addend: 0x0, symName: __ZN9gcrust_rt2gc4heap15gc_verify_armed17h01976147980c1352E, symObjAddr: 0x34, symBinAddr: 0x10004D928, symSize: 0xC }
  - { offset: 0xEE0CA, size: 0x8, addend: 0x0, symName: __ZN9gcrust_rt2gc4heap4Heap10space_size17he30bd517aa8a35f3E, symObjAddr: 0x40, symBinAddr: 0x10004D934, symSize: 0x54 }
  - { offset: 0xEE10B, size: 0x8, addend: 0x0, symName: __ZN9gcrust_rt2gc4heap4Heap11collections17h9be08e8f0d17ccdcE, symObjAddr: 0x94, symBinAddr: 0x10004D988, symSize: 0x28 }
  - { offset: 0xEE12E, size: 0x8, addend: 0x0, symName: __ZN9gcrust_rt2gc4heap4Heap11obj_type_id17hf0985a0b124c314bE, symObjAddr: 0xBC, symBinAddr: 0x10004D9B0, symSize: 0x48 }
  - { offset: 0xEE283, size: 0x8, addend: 0x0, symName: __ZN9gcrust_rt2gc4heap4Heap11pause_world17hcf5d6415d99e7406E, symObjAddr: 0x104, symBinAddr: 0x10004D9F8, symSize: 0x4A4 }
  - { offset: 0xEE3E9, size: 0x8, addend: 0x0, symName: __ZN9gcrust_rt2gc4heap4Heap11swap_spaces17hb6244ca1f12837a6E, symObjAddr: 0x5A8, symBinAddr: 0x10004DE9C, symSize: 0x1AC }
  - { offset: 0xEE4C5, size: 0x8, addend: 0x0, symName: __ZN9gcrust_rt2gc4heap4Heap11visit_roots17h102a06002bef87c5E, symObjAddr: 0x754, symBinAddr: 0x10004E048, symSize: 0x40C }
  - { offset: 0xEE643, size: 0x8, addend: 0x0, symName: __ZN9gcrust_rt2gc4heap4Heap12gc_log_jsonl17ha30e8c38566be8b1E, symObjAddr: 0xB60, symBinAddr: 0x10004E454, symSize: 0x338 }
  - { offset: 0xEE755, size: 0x8, addend: 0x0, symName: __ZN9gcrust_rt2gc4heap4Heap12nursery_used17h72db7ea44894d76aE, symObjAddr: 0xE98, symBinAddr: 0x10004E78C, symSize: 0x64 }
  - { offset: 0xEE7A3, size: 0x8, addend: 0x0, symName: __ZN9gcrust_rt2gc4heap4Heap13alloc_nursery17h26762327ab54a8c0E, symObjAddr: 0xEFC, symBinAddr: 0x10004E7F0, symSize: 0xC4 }
  - { offset: 0xEE820, size: 0x8, addend: 0x0, symName: __ZN9gcrust_rt2gc4heap4Heap13alloc_tenured17hdb9e990de17c0165E, symObjAddr: 0xFC0, symBinAddr: 0x10004E8B4, symSize: 0x6C }
  - { offset: 0xEE87F, size: 0x8, addend: 0x0, symName: __ZN9gcrust_rt2gc4heap4Heap13set_type_meta17h118dfc4ed6b53174E, symObjAddr: 0x102C, symBinAddr: 0x10004E920, symSize: 0x4C }
  - { offset: 0xEE8D9, size: 0x8, addend: 0x0, symName: __ZN9gcrust_rt2gc4heap4Heap13type_meta_all17hd3c3158e2856578cE, symObjAddr: 0x1078, symBinAddr: 0x10004E96C, symSize: 0x38 }
  - { offset: 0xEE8FC, size: 0x8, addend: 0x0, symName: __ZN9gcrust_rt2gc4heap4Heap14from_remaining17hdbb67b8011dd56e7E, symObjAddr: 0x10B0, symBinAddr: 0x10004E9A4, symSize: 0x54 }
  - { offset: 0xEE93D, size: 0x8, addend: 0x0, symName: __ZN9gcrust_rt2gc4heap4Heap14set_value_meta17h7a770e74cb48fc0aE, symObjAddr: 0x1104, symBinAddr: 0x10004E9F8, symSize: 0x4C }
  - { offset: 0xEE970, size: 0x8, addend: 0x0, symName: __ZN9gcrust_rt2gc4heap4Heap14type_id_offset17h35dfb8662f32304eE, symObjAddr: 0x1150, symBinAddr: 0x10004EA44, symSize: 0x18 }
  - { offset: 0xEE993, size: 0x8, addend: 0x0, symName: __ZN9gcrust_rt2gc4heap4Heap14type_table_len17h4986051fa2db0ffeE, symObjAddr: 0x1168, symBinAddr: 0x10004EA5C, symSize: 0x24 }
  - { offset: 0xEE9E4, size: 0x8, addend: 0x0, symName: __ZN9gcrust_rt2gc4heap4Heap14walk_jit_frame17hda3e92df34cc229cE, symObjAddr: 0x118C, symBinAddr: 0x10004EA80, symSize: 0x70 }
  - { offset: 0xEEA88, size: 0x8, addend: 0x0, symName: __ZN9gcrust_rt2gc4heap4Heap15alloc_sites_all17h9840da279af85bccE, symObjAddr: 0x11FC, symBinAddr: 0x10004EAF0, symSize: 0x38 }
  - { offset: 0xEEAAB, size: 0x8, addend: 0x0, symName: __ZN9gcrust_rt2gc4heap4Heap15check_forwarded17hc53dfac9d7c27537E, symObjAddr: 0x1234, symBinAddr: 0x10004EB28, symSize: 0xDC }
  - { offset: 0xEEB75, size: 0x8, addend: 0x0, symName: __ZN9gcrust_rt2gc4heap4Heap15contains_either17hd0c5ceb2addbae1cE, symObjAddr: 0x1310, symBinAddr: 0x10004EC04, symSize: 0x160 }
  - { offset: 0xEEC23, size: 0x8, addend: 0x0, symName: __ZN9gcrust_rt2gc4heap4Heap15record_gc_event17h407164fc41dde5d1E, symObjAddr: 0x1470, symBinAddr: 0x10004ED64, symSize: 0x1B0 }
  - { offset: 0xEED24, size: 0x8, addend: 0x0, symName: __ZN9gcrust_rt2gc4heap4Heap15register_thread17h6728c8b9885cf005E, symObjAddr: 0x1620, symBinAddr: 0x10004EF14, symSize: 0x308 }
  - { offset: 0xEEE47, size: 0x8, addend: 0x0, symName: __ZN9gcrust_rt2gc4heap4Heap15saw_extra_roots17h2fadfb163e4a6cbeE, symObjAddr: 0x1928, symBinAddr: 0x10004F21C, symSize: 0x28 }
  - { offset: 0xEEE6A, size: 0x8, addend: 0x0, symName: __ZN9gcrust_rt2gc4heap4Heap15set_alloc_sites17h68a8829290e38ef9E, symObjAddr: 0x1950, symBinAddr: 0x10004F244, symSize: 0x4C }
  - { offset: 0xEEE9D, size: 0x8, addend: 0x0, symName: __ZN9gcrust_rt2gc4heap4Heap15type_info_by_id17h93a225fe01147743E, symObjAddr: 0x199C, symBinAddr: 0x10004F290, symSize: 0x38 }
  - { offset: 0xEEEDC, size: 0x8, addend: 0x0, symName: __ZN9gcrust_rt2gc4heap4Heap15type_meta_by_id17h8bf2173ed66b63d6E, symObjAddr: 0x19D4, symBinAddr: 0x10004F2C8, symSize: 0x80 }
  - { offset: 0xEEF39, size: 0x8, addend: 0x0, symName: __ZN9gcrust_rt2gc4heap4Heap16alloc_window_ptr17h39e1821114411d40E, symObjAddr: 0x1A54, symBinAddr: 0x10004F348, symSize: 0x70 }
  - { offset: 0xEEF5C, size: 0x8, addend: 0x0, symName: __ZN9gcrust_rt2gc4heap4Heap16dynamic_add_type17hb9df6672ad40d95eE, symObjAddr: 0x1AC4, symBinAddr: 0x10004F3B8, symSize: 0xF0 }
  - { offset: 0xEEFBB, size: 0x8, addend: 0x0, symName: __ZN9gcrust_rt2gc4heap4Heap16gc_stats_summary17h07a53c9d34ad4868E, symObjAddr: 0x1BB4, symBinAddr: 0x10004F4A8, symSize: 0x5AC }
  - { offset: 0xEF155, size: 0x8, addend: 0x0, symName: __ZN9gcrust_rt2gc4heap4Heap16value_meta_by_id17hd4c5e39cc66b9de3E, symObjAddr: 0x2160, symBinAddr: 0x10004FA54, symSize: 0x80 }
  - { offset: 0xEF1B2, size: 0x8, addend: 0x0, symName: __ZN9gcrust_rt2gc4heap4Heap17atomic_copy_words17h91bfa31813460482E, symObjAddr: 0x21E0, symBinAddr: 0x10004FAD4, symSize: 0x19C }
  - { offset: 0xEF2C5, size: 0x8, addend: 0x0, symName: __ZN9gcrust_rt2gc4heap4Heap17deregister_thread17hc0e62bc0d3579df9E, symObjAddr: 0x237C, symBinAddr: 0x10004FC70, symSize: 0x22C }
  - { offset: 0xEF377, size: 0x8, addend: 0x0, symName: __ZN9gcrust_rt2gc4heap4Heap17minor_collections17h6f5545c76f57832bE, symObjAddr: 0x25A8, symBinAddr: 0x10004FE9C, symSize: 0x68 }
  - { offset: 0xEF3CB, size: 0x8, addend: 0x0, symName: __ZN9gcrust_rt2gc4heap4Heap17sync_alloc_window17h408fc199ffcaeaaeE, symObjAddr: 0x2610, symBinAddr: 0x10004FF04, symSize: 0x190 }
  - { offset: 0xEF49A, size: 0x8, addend: 0x0, symName: __ZN9gcrust_rt2gc4heap4Heap17walk_live_objects17h3593a5b447f5deebE, symObjAddr: 0x27A0, symBinAddr: 0x100050094, symSize: 0xF0 }
  - { offset: 0xEF54B, size: 0x8, addend: 0x0, symName: __ZN9gcrust_rt2gc4heap4Heap18alloc_site_profile17h4733aac71abc0ae4E, symObjAddr: 0x2890, symBinAddr: 0x100050184, symSize: 0xAA8 }
  - { offset: 0xEF842, size: 0x8, addend: 0x0, symName: __ZN9gcrust_rt2gc4heap4Heap18install_forwarding17hb3b10b216bdba3d8E, symObjAddr: 0x3338, symBinAddr: 0x100050C2C, symSize: 0xB4 }
  - { offset: 0xEF8B7, size: 0x8, addend: 0x0, symName: __ZN9gcrust_rt2gc4heap4Heap18set_gc_every_alloc17hb1d0419ac5c4b5f2E, symObjAddr: 0x33EC, symBinAddr: 0x100050CE0, symSize: 0xAC }
  - { offset: 0xEF8E9, size: 0x8, addend: 0x0, symName: __ZN9gcrust_rt2gc4heap4Heap19from_space_contains17he19c1d8618b0dc4aE, symObjAddr: 0x3498, symBinAddr: 0x100050D8C, symSize: 0x60 }
  - { offset: 0xEF952, size: 0x8, addend: 0x0, symName: __ZN9gcrust_rt2gc4heap4Heap20set_jit_frame_walker17h999122e20a9ece90E, symObjAddr: 0x34F8, symBinAddr: 0x100050DEC, symSize: 0x38 }
  - { offset: 0xEF9A2, size: 0x8, addend: 0x0, symName: __ZN9gcrust_rt2gc4heap4Heap21parked_thread_jit_fps17ha0d0c1d9997a2bacE, symObjAddr: 0x3530, symBinAddr: 0x100050E24, symSize: 0x16C }
  - { offset: 0xEFA16, size: 0x8, addend: 0x0, symName: __ZN9gcrust_rt2gc4heap4Heap22check_forwarded_atomic17hc3c42f5b00bfb161E, symObjAddr: 0x369C, symBinAddr: 0x100050F90, symSize: 0xDC }
  - { offset: 0xEFA92, size: 0x8, addend: 0x0, symName: __ZN9gcrust_rt2gc4heap4Heap22safe_deregister_thread17hc7cbd991dc1152c5E, symObjAddr: 0x3778, symBinAddr: 0x10005106C, symSize: 0x328 }
  - { offset: 0xEFBE9, size: 0x8, addend: 0x0, symName: __ZN9gcrust_rt2gc4heap4Heap24build_object_start_index17ha3d44c1bdd71a76bE, symObjAddr: 0x3AA0, symBinAddr: 0x100051394, symSize: 0x5F0 }
  - { offset: 0xEFE81, size: 0x8, addend: 0x0, symName: __ZN9gcrust_rt2gc4heap4Heap24register_permanent_extra17hacb696f25fe8fbc4E, symObjAddr: 0x4090, symBinAddr: 0x100051984, symSize: 0x134 }
  - { offset: 0xEFEED, size: 0x8, addend: 0x0, symName: __ZN9gcrust_rt2gc4heap4Heap25alloc_site_profile_report17ha721a01548591aedE, symObjAddr: 0x41C4, symBinAddr: 0x100051AB8, symSize: 0x4DC }
  - { offset: 0xF0072, size: 0x8, addend: 0x0, symName: __ZN9gcrust_rt2gc4heap4Heap25install_forwarding_atomic17h4f6ac74183985ff1E, symObjAddr: 0x46A0, symBinAddr: 0x100051F94, symSize: 0x134 }
  - { offset: 0xF0123, size: 0x8, addend: 0x0, symName: __ZN9gcrust_rt2gc4heap4Heap27fold_retired_alloc_counters17h638c75085627d07dE, symObjAddr: 0x47D4, symBinAddr: 0x1000520C8, symSize: 0x3DC }
  - { offset: 0xF01FD, size: 0x8, addend: 0x0, symName: __ZN9gcrust_rt2gc4heap4Heap5alloc17h71fbed83a13a794eE, symObjAddr: 0x4BB0, symBinAddr: 0x1000524A4, symSize: 0x6C }
  - { offset: 0xF025C, size: 0x8, addend: 0x0, symName: __ZN9gcrust_rt2gc4heap4Heap7to_base17h40ea668d66adc0b8E, symObjAddr: 0x4C1C, symBinAddr: 0x100052510, symSize: 0x78 }
  - { offset: 0xF029D, size: 0x8, addend: 0x0, symName: __ZN9gcrust_rt2gc4heap4Heap8contains17hcb4f7b8dfe85d9beE, symObjAddr: 0x4C94, symBinAddr: 0x100052588, symSize: 0xF0 }
  - { offset: 0xF032D, size: 0x8, addend: 0x0, symName: __ZN9gcrust_rt2gc4heap4Heap8gc_phase17hd39038f2ff867dfeE, symObjAddr: 0x4D84, symBinAddr: 0x100052678, symSize: 0x54 }
  - { offset: 0xF0350, size: 0x8, addend: 0x0, symName: __ZN9gcrust_rt2gc4heap4Heap9from_base17h2a1a0fddafd9c54eE, symObjAddr: 0x4DD8, symBinAddr: 0x1000526CC, symSize: 0x54 }
  - { offset: 0xF0391, size: 0x8, addend: 0x0, symName: __ZN9gcrust_rt2gc4heap4Heap9from_used17h726ff263cb463ba6E, symObjAddr: 0x4E2C, symBinAddr: 0x100052720, symSize: 0x54 }
  - { offset: 0xF03D2, size: 0x8, addend: 0x0, symName: __ZN9gcrust_rt2gc4heap4Heap9gc_events17heac9c48f94ba054fE, symObjAddr: 0x4E80, symBinAddr: 0x100052774, symSize: 0x4C }
  - { offset: 0xF0402, size: 0x8, addend: 0x0, symName: __ZN9gcrust_rt2gc4heap4Heap9safepoint17h56b894272b6055a0E, symObjAddr: 0x4ECC, symBinAddr: 0x1000527C0, symSize: 0x44 }
  - { offset: 0xF0434, size: 0x8, addend: 0x0, symName: __ZN9gcrust_rt2gc4heap6GcKind6as_str17h98389e07f7445273E, symObjAddr: 0x4F10, symBinAddr: 0x100052804, symSize: 0x88 }
  - { offset: 0xF07E4, size: 0x8, addend: 0x0, symName: __ZN3std4hash6random11RandomState3new4KEYS27__rust_std_internal_init_fn17hf9dcf45871099044E, symObjAddr: 0x0, symBinAddr: 0x10005288C, symSize: 0x24 }
  - { offset: 0xF080F, size: 0x8, addend: 0x0, symName: __ZN3std4hash6random11RandomState3new4KEYS27__rust_std_internal_init_fn17hf9dcf45871099044E, symObjAddr: 0x0, symBinAddr: 0x10005288C, symSize: 0x24 }
  - { offset: 0xF0858, size: 0x8, addend: 0x0, symName: '__ZN71_$LT$std..hash..random..DefaultHasher$u20$as$u20$core..hash..Hasher$GT$5write17h6466c376987b9363E', symObjAddr: 0xD8, symBinAddr: 0x100052964, symSize: 0x2C }
  - { offset: 0xF08B2, size: 0x8, addend: 0x0, symName: '__ZN71_$LT$std..hash..random..DefaultHasher$u20$as$u20$core..hash..Hasher$GT$6finish17he10032ade7bf2977E', symObjAddr: 0x104, symBinAddr: 0x100052990, symSize: 0x20 }
  - { offset: 0xF08FA, size: 0x8, addend: 0x0, symName: '__ZN71_$LT$std..hash..random..DefaultHasher$u20$as$u20$core..hash..Hasher$GT$9write_str17heed1f9be6c9b2f9eE', symObjAddr: 0x124, symBinAddr: 0x1000529B0, symSize: 0x2C }
  - { offset: 0xF098A, size: 0x8, addend: 0x0, symName: '__ZN73_$LT$std..hash..random..RandomState$u20$as$u20$core..default..Default$GT$7default17h27f2ab3174c58797E', symObjAddr: 0x150, symBinAddr: 0x1000529DC, symSize: 0x1C }
  - { offset: 0xF09C2, size: 0x8, addend: 0x0, symName: '__ZN74_$LT$std..hash..random..RandomState$u20$as$u20$core..hash..BuildHasher$GT$12build_hasher17h1155b6585ee4d8bcE', symObjAddr: 0x16C, symBinAddr: 0x1000529F8, symSize: 0xCC }
  - { offset: 0xF0C87, size: 0x8, addend: 0x0, symName: __ZN3std4hash6random13DefaultHasher3new17h36d99f42516d5c5eE, symObjAddr: 0x24, symBinAddr: 0x1000528B0, symSize: 0xB4 }
  - { offset: 0xF0E20, size: 0x8, addend: 0x0, symName: __ZN3std6thread6thread6Thread2id17hec774328472cf4a5E, symObjAddr: 0x0, symBinAddr: 0x100052AC4, symSize: 0x1C }
  - { offset: 0xF136A, size: 0x8, addend: 0x0, symName: __ZN3std6thread6thread6Thread2id17hec774328472cf4a5E, symObjAddr: 0x0, symBinAddr: 0x100052AC4, symSize: 0x1C }
  - { offset: 0xF1416, size: 0x8, addend: 0x0, symName: '__ZN104_$LT$core..iter..adapters..copied..Copied$LT$I$GT$$u20$as$u20$core..iter..traits..iterator..Iterator$GT$4fold17h685085ffe095e503E', symObjAddr: 0x0, symBinAddr: 0x100052AE0, symSize: 0x44 }
  - { offset: 0xF14AC, size: 0x8, addend: 0x0, symName: '__ZN4core4iter8adapters6copied9copy_fold28_$u7b$$u7b$closure$u7d$$u7d$17h335628b0e672cdbaE', symObjAddr: 0x1F0, symBinAddr: 0x100052CD0, symSize: 0x34 }
  - { offset: 0xF1526, size: 0x8, addend: 0x0, symName: '__ZN4core4iter8adapters6copied9copy_fold28_$u7b$$u7b$closure$u7d$$u7d$17hbf17bd7141f89114E', symObjAddr: 0x224, symBinAddr: 0x100052D04, symSize: 0x34 }
  - { offset: 0xF15A0, size: 0x8, addend: 0x0, symName: '__ZN4core4iter8adapters6copied9copy_fold28_$u7b$$u7b$closure$u7d$$u7d$17hc6d1be76fe19467eE', symObjAddr: 0x258, symBinAddr: 0x100052D38, symSize: 0x34 }
  - { offset: 0xF1620, size: 0x8, addend: 0x0, symName: '__ZN104_$LT$core..iter..adapters..copied..Copied$LT$I$GT$$u20$as$u20$core..iter..traits..iterator..Iterator$GT$4fold17h685085ffe095e503E', symObjAddr: 0x0, symBinAddr: 0x100052AE0, symSize: 0x44 }
  - { offset: 0xF16A7, size: 0x8, addend: 0x0, symName: '__ZN104_$LT$core..iter..adapters..copied..Copied$LT$I$GT$$u20$as$u20$core..iter..traits..iterator..Iterator$GT$4fold17h8ce5f57337b050c9E', symObjAddr: 0x44, symBinAddr: 0x100052B24, symSize: 0x44 }
  - { offset: 0xF172E, size: 0x8, addend: 0x0, symName: '__ZN104_$LT$core..iter..adapters..copied..Copied$LT$I$GT$$u20$as$u20$core..iter..traits..iterator..Iterator$GT$4fold17hdcd14840339d8c04E', symObjAddr: 0x88, symBinAddr: 0x100052B68, symSize: 0x44 }
  - { offset: 0xF17B4, size: 0x8, addend: 0x0, symName: '__ZN104_$LT$core..iter..adapters..copied..Copied$LT$I$GT$$u20$as$u20$core..iter..traits..iterator..Iterator$GT$9size_hint17h0ab0cd7f6b623fecE', symObjAddr: 0xCC, symBinAddr: 0x100052BAC, symSize: 0x24 }
  - { offset: 0xF17F2, size: 0x8, addend: 0x0, symName: '__ZN104_$LT$core..iter..adapters..copied..Copied$LT$I$GT$$u20$as$u20$core..iter..traits..iterator..Iterator$GT$9size_hint17h4e93ebde1952ce6aE', symObjAddr: 0xF0, symBinAddr: 0x100052BD0, symSize: 0x24 }
  - { offset: 0xF1A33, size: 0x8, addend: 0x0, symName: __ZN4core4iter6traits8iterator8Iterator7collect17h03769065fd1db510E, symObjAddr: 0x114, symBinAddr: 0x100052BF4, symSize: 0x2C }
  - { offset: 0xF1A73, size: 0x8, addend: 0x0, symName: __ZN4core4iter6traits8iterator8Iterator8for_each17h6784f8787ee5e143E, symObjAddr: 0x140, symBinAddr: 0x100052C20, symSize: 0x44 }
  - { offset: 0xF1ADE, size: 0x8, addend: 0x0, symName: __ZN4core4iter6traits8iterator8Iterator8for_each17hcc1cd72897893420E, symObjAddr: 0x184, symBinAddr: 0x100052C64, symSize: 0x44 }
  - { offset: 0xF1B49, size: 0x8, addend: 0x0, symName: __ZN4core4iter6traits8iterator8Iterator9enumerate17hb085129aae78a248E, symObjAddr: 0x1C8, symBinAddr: 0x100052CA8, symSize: 0x28 }
  - { offset: 0xF1BA1, size: 0x8, addend: 0x0, symName: '__ZN63_$LT$I$u20$as$u20$core..iter..traits..collect..IntoIterator$GT$9into_iter17h32a9bd39cf2084a8E', symObjAddr: 0x28C, symBinAddr: 0x100052D6C, symSize: 0x1C }
  - { offset: 0xF1BD8, size: 0x8, addend: 0x0, symName: '__ZN63_$LT$I$u20$as$u20$core..iter..traits..collect..IntoIterator$GT$9into_iter17hc5fe070aa8ad941cE', symObjAddr: 0x2A8, symBinAddr: 0x100052D88, symSize: 0x1C }
  - { offset: 0xF1FCA, size: 0x8, addend: 0x0, symName: __ZN4core5slice4sort6shared9smallsort11insert_tail17h053ab160501f10b7E, symObjAddr: 0x0, symBinAddr: 0x100052DA4, symSize: 0x1D4 }
  - { offset: 0xF6324, size: 0x8, addend: 0x0, symName: __ZN4core5slice4sort6shared9smallsort11insert_tail17h053ab160501f10b7E, symObjAddr: 0x0, symBinAddr: 0x100052DA4, symSize: 0x1D4 }
  - { offset: 0xF6492, size: 0x8, addend: 0x0, symName: __ZN4core5slice4sort6shared9smallsort11insert_tail17h4d387f7c2e2b967bE, symObjAddr: 0x1D4, symBinAddr: 0x100052F78, symSize: 0x18C }
  - { offset: 0xF65E8, size: 0x8, addend: 0x0, symName: __ZN4core5slice4sort6shared9smallsort11insert_tail17hb41113157231052fE, symObjAddr: 0x360, symBinAddr: 0x100053104, symSize: 0x1D4 }
  - { offset: 0xF6756, size: 0x8, addend: 0x0, symName: __ZN4core5slice4sort6shared9smallsort11insert_tail17hbda33bf621d8c25aE, symObjAddr: 0x534, symBinAddr: 0x1000532D8, symSize: 0x19C }
  - { offset: 0xF68AD, size: 0x8, addend: 0x0, symName: __ZN4core5slice4sort6shared9smallsort11insert_tail17hcaf864bb0526f0cbE, symObjAddr: 0x6D0, symBinAddr: 0x100053474, symSize: 0x18C }
  - { offset: 0xF6A03, size: 0x8, addend: 0x0, symName: __ZN4core5slice4sort6shared9smallsort11insert_tail17hd4719aa465cec14bE, symObjAddr: 0x85C, symBinAddr: 0x100053600, symSize: 0x19C }
  - { offset: 0xF6B5A, size: 0x8, addend: 0x0, symName: __ZN4core5slice4sort6shared9smallsort11insert_tail17hd7a459e2ba7852f0E, symObjAddr: 0x9F8, symBinAddr: 0x10005379C, symSize: 0x19C }
  - { offset: 0xF6CB1, size: 0x8, addend: 0x0, symName: __ZN4core5slice4sort6shared9smallsort11insert_tail17hff858e4b46317220E, symObjAddr: 0xB94, symBinAddr: 0x100053938, symSize: 0x1D4 }
  - { offset: 0xF6E1F, size: 0x8, addend: 0x0, symName: __ZN4core5slice4sort6shared9smallsort12sort4_stable17h09247659c33c318bE, symObjAddr: 0xD68, symBinAddr: 0x100053B0C, symSize: 0x720 }
  - { offset: 0xF80E4, size: 0x8, addend: 0x0, symName: __ZN4core5slice4sort6shared9smallsort12sort4_stable17h0a65ec4e7df7e981E, symObjAddr: 0x1488, symBinAddr: 0x10005422C, symSize: 0x768 }
  - { offset: 0xF93A9, size: 0x8, addend: 0x0, symName: __ZN4core5slice4sort6shared9smallsort12sort4_stable17h294e4dea5f7e9479E, symObjAddr: 0x1BF0, symBinAddr: 0x100054994, symSize: 0x768 }
  - { offset: 0xFA66E, size: 0x8, addend: 0x0, symName: __ZN4core5slice4sort6shared9smallsort12sort4_stable17h2c123b4f88352db1E, symObjAddr: 0x2358, symBinAddr: 0x1000550FC, symSize: 0x720 }
  - { offset: 0xFB933, size: 0x8, addend: 0x0, symName: __ZN4core5slice4sort6shared9smallsort12sort4_stable17h4305bcb6ae3b9395E, symObjAddr: 0x2A78, symBinAddr: 0x10005581C, symSize: 0x730 }
  - { offset: 0xFCBF8, size: 0x8, addend: 0x0, symName: __ZN4core5slice4sort6shared9smallsort12sort4_stable17h527b849cd8fb4e7bE, symObjAddr: 0x31A8, symBinAddr: 0x100055F4C, symSize: 0x730 }
  - { offset: 0xFDEBD, size: 0x8, addend: 0x0, symName: __ZN4core5slice4sort6shared9smallsort12sort4_stable17h95b457f6cd76d176E, symObjAddr: 0x38D8, symBinAddr: 0x10005667C, symSize: 0x768 }
  - { offset: 0xFF182, size: 0x8, addend: 0x0, symName: __ZN4core5slice4sort6shared9smallsort12sort4_stable17hf9aa196a2a3b24aaE, symObjAddr: 0x4040, symBinAddr: 0x100056DE4, symSize: 0x730 }
  - { offset: 0x100447, size: 0x8, addend: 0x0, symName: __ZN4core5slice4sort6shared9smallsort12sort8_stable17h0bc0b37eecb97953E, symObjAddr: 0x4770, symBinAddr: 0x100057514, symSize: 0x94 }
  - { offset: 0x100512, size: 0x8, addend: 0x0, symName: __ZN4core5slice4sort6shared9smallsort12sort8_stable17h0d8bc1d61c5597ceE, symObjAddr: 0x4804, symBinAddr: 0x1000575A8, symSize: 0x94 }
  - { offset: 0x1005DD, size: 0x8, addend: 0x0, symName: __ZN4core5slice4sort6shared9smallsort12sort8_stable17h4068127c51b6f47fE, symObjAddr: 0x4898, symBinAddr: 0x10005763C, symSize: 0x94 }
  - { offset: 0x1006A8, size: 0x8, addend: 0x0, symName: __ZN4core5slice4sort6shared9smallsort12sort8_stable17h49eed8185d2a66eaE, symObjAddr: 0x492C, symBinAddr: 0x1000576D0, symSize: 0x94 }
  - { offset: 0x100773, size: 0x8, addend: 0x0, symName: __ZN4core5slice4sort6shared9smallsort12sort8_stable17he4380099870680daE, symObjAddr: 0x49C0, symBinAddr: 0x100057764, symSize: 0x94 }
  - { offset: 0x10083E, size: 0x8, addend: 0x0, symName: __ZN4core5slice4sort6shared9smallsort12swap_if_less17h59286041ec2403a2E, symObjAddr: 0x4A54, symBinAddr: 0x1000577F8, symSize: 0x27C }
  - { offset: 0x100DC4, size: 0x8, addend: 0x0, symName: __ZN4core5slice4sort6shared9smallsort12swap_if_less17h9fddee07421b488bE, symObjAddr: 0x4CD0, symBinAddr: 0x100057A74, symSize: 0x27C }
  - { offset: 0x10134A, size: 0x8, addend: 0x0, symName: __ZN4core5slice4sort6shared9smallsort13sort9_optimal17hd4443628ee3c5383E, symObjAddr: 0x4F4C, symBinAddr: 0x100057CF0, symSize: 0x27C }
  - { offset: 0x1013D1, size: 0x8, addend: 0x0, symName: __ZN4core5slice4sort6shared9smallsort13sort9_optimal17hdd55251bec7ebc79E, symObjAddr: 0x51C8, symBinAddr: 0x100057F6C, symSize: 0x27C }
  - { offset: 0x101458, size: 0x8, addend: 0x0, symName: __ZN4core5slice4sort6shared9smallsort14sort13_optimal17h6327cec121252176E, symObjAddr: 0x5444, symBinAddr: 0x1000581E8, symSize: 0x42C }
  - { offset: 0x1014DF, size: 0x8, addend: 0x0, symName: __ZN4core5slice4sort6shared9smallsort14sort13_optimal17h6a1c8179915ffa25E, symObjAddr: 0x5870, symBinAddr: 0x100058614, symSize: 0x42C }
  - { offset: 0x101566, size: 0x8, addend: 0x0, symName: __ZN4core5slice4sort6shared9smallsort18small_sort_general17h1c8e8ffb81b725c1E, symObjAddr: 0x5C9C, symBinAddr: 0x100058A40, symSize: 0xA0 }
  - { offset: 0x10162B, size: 0x8, addend: 0x0, symName: __ZN4core5slice4sort6shared9smallsort18small_sort_general17h3c58becfc527c8fbE, symObjAddr: 0x5D3C, symBinAddr: 0x100058AE0, symSize: 0xA0 }
  - { offset: 0x1016F0, size: 0x8, addend: 0x0, symName: __ZN4core5slice4sort6shared9smallsort18small_sort_network17h6d4b9c8fa893e885E, symObjAddr: 0x5DDC, symBinAddr: 0x100058B80, symSize: 0x204 }
  - { offset: 0x1018CE, size: 0x8, addend: 0x0, symName: __ZN4core5slice4sort6shared9smallsort18small_sort_network17hcba3f8a1c60f80fdE, symObjAddr: 0x5FE0, symBinAddr: 0x100058D84, symSize: 0x204 }
  - { offset: 0x101B90, size: 0x8, addend: 0x0, symName: __ZN4core5slice4sort6shared9smallsort19bidirectional_merge17h0873c555aecdc758E, symObjAddr: 0x61E4, symBinAddr: 0x100058F88, symSize: 0x4E8 }
  - { offset: 0x102317, size: 0x8, addend: 0x0, symName: __ZN4core5slice4sort6shared9smallsort19bidirectional_merge17h12865e7532fbc440E, symObjAddr: 0x66CC, symBinAddr: 0x100059470, symSize: 0x520 }
  - { offset: 0x102A9E, size: 0x8, addend: 0x0, symName: __ZN4core5slice4sort6shared9smallsort19bidirectional_merge17h1c9c63246bff8fb4E, symObjAddr: 0x6BEC, symBinAddr: 0x100059990, symSize: 0x520 }
  - { offset: 0x103225, size: 0x8, addend: 0x0, symName: __ZN4core5slice4sort6shared9smallsort19bidirectional_merge17h972b4b53265a3aacE, symObjAddr: 0x710C, symBinAddr: 0x100059EB0, symSize: 0x4DC }
  - { offset: 0x1039AC, size: 0x8, addend: 0x0, symName: __ZN4core5slice4sort6shared9smallsort19bidirectional_merge17hafdf791ef81a9a38E, symObjAddr: 0x75E8, symBinAddr: 0x10005A38C, symSize: 0x520 }
  - { offset: 0x104133, size: 0x8, addend: 0x0, symName: __ZN4core5slice4sort6shared9smallsort19bidirectional_merge17hcb5a87755aed3817E, symObjAddr: 0x7B08, symBinAddr: 0x10005A8AC, symSize: 0x4DC }
  - { offset: 0x1048BA, size: 0x8, addend: 0x0, symName: __ZN4core5slice4sort6shared9smallsort19bidirectional_merge17he6eb522d2d49ade1E, symObjAddr: 0x7FE4, symBinAddr: 0x10005AD88, symSize: 0x4E8 }
  - { offset: 0x105041, size: 0x8, addend: 0x0, symName: __ZN4core5slice4sort6shared9smallsort19bidirectional_merge17he9083d7ca73aa83aE, symObjAddr: 0x84CC, symBinAddr: 0x10005B270, symSize: 0x4E8 }
  - { offset: 0x1056E4, size: 0x8, addend: 0x0, symName: __ZN4core5slice4sort6shared9smallsort25insertion_sort_shift_left17h1803c59506d8c184E, symObjAddr: 0x89B4, symBinAddr: 0x10005B758, symSize: 0xC0 }
  - { offset: 0x10581E, size: 0x8, addend: 0x0, symName: __ZN4core5slice4sort6shared9smallsort25insertion_sort_shift_left17h252045a4c5dbf23aE, symObjAddr: 0x8A74, symBinAddr: 0x10005B818, symSize: 0xCC }
  - { offset: 0x105958, size: 0x8, addend: 0x0, symName: __ZN4core5slice4sort6shared9smallsort25insertion_sort_shift_left17h54f1112e54bd7f8fE, symObjAddr: 0x8B40, symBinAddr: 0x10005B8E4, symSize: 0xCC }
  - { offset: 0x105A92, size: 0x8, addend: 0x0, symName: __ZN4core5slice4sort6shared9smallsort25insertion_sort_shift_left17h81b20f4ae38497efE, symObjAddr: 0x8C0C, symBinAddr: 0x10005B9B0, symSize: 0xC0 }
  - { offset: 0x105BCC, size: 0x8, addend: 0x0, symName: __ZN4core5slice4sort6shared9smallsort25insertion_sort_shift_left17hb2c765d680486a54E, symObjAddr: 0x8CCC, symBinAddr: 0x10005BA70, symSize: 0xC0 }
  - { offset: 0x105D06, size: 0x8, addend: 0x0, symName: __ZN4core5slice4sort6shared9smallsort25insertion_sort_shift_left17hbb05deb86c3add72E, symObjAddr: 0x8D8C, symBinAddr: 0x10005BB30, symSize: 0xCC }
  - { offset: 0x105E40, size: 0x8, addend: 0x0, symName: __ZN4core5slice4sort6shared9smallsort25insertion_sort_shift_left17hdd6ecce3356536cfE, symObjAddr: 0x8E58, symBinAddr: 0x10005BBFC, symSize: 0xC0 }
  - { offset: 0x105F7A, size: 0x8, addend: 0x0, symName: __ZN4core5slice4sort6shared9smallsort25insertion_sort_shift_left17he9782bc2e93562a1E, symObjAddr: 0x8F18, symBinAddr: 0x10005BCBC, symSize: 0xC0 }
  - { offset: 0x1060B4, size: 0x8, addend: 0x0, symName: __ZN4core5slice4sort6shared9smallsort31small_sort_general_with_scratch17h14544b79961415e1E, symObjAddr: 0x8FD8, symBinAddr: 0x10005BD7C, symSize: 0x4C8 }
  - { offset: 0x106588, size: 0x8, addend: 0x0, symName: __ZN4core5slice4sort6shared9smallsort31small_sort_general_with_scratch17h48ba258e3e220dc2E, symObjAddr: 0x94A0, symBinAddr: 0x10005C244, symSize: 0x4BC }
  - { offset: 0x106A5C, size: 0x8, addend: 0x0, symName: __ZN4core5slice4sort6shared9smallsort31small_sort_general_with_scratch17h54f3919b497a9fceE, symObjAddr: 0x995C, symBinAddr: 0x10005C700, symSize: 0x494 }
  - { offset: 0x106E94, size: 0x8, addend: 0x0, symName: __ZN4core5slice4sort6shared9smallsort31small_sort_general_with_scratch17h8fd8baebdf96e33eE, symObjAddr: 0x9DF0, symBinAddr: 0x10005CB94, symSize: 0x494 }
  - { offset: 0x1072CC, size: 0x8, addend: 0x0, symName: __ZN4core5slice4sort6shared9smallsort31small_sort_general_with_scratch17h9ea5801cadab6b5eE, symObjAddr: 0xA284, symBinAddr: 0x10005D028, symSize: 0x4C8 }
  - { offset: 0x1077A0, size: 0x8, addend: 0x0, symName: __ZN4core5slice4sort6shared9smallsort31small_sort_general_with_scratch17hbf98d0c4ed2ec15cE, symObjAddr: 0xA74C, symBinAddr: 0x10005D4F0, symSize: 0x4C8 }
  - { offset: 0x107C74, size: 0x8, addend: 0x0, symName: __ZN4core5slice4sort6shared9smallsort31small_sort_general_with_scratch17hda3105367c709643E, symObjAddr: 0xAC14, symBinAddr: 0x10005D9B8, symSize: 0x4BC }
  - { offset: 0x108148, size: 0x8, addend: 0x0, symName: __ZN4core5slice4sort6shared9smallsort31small_sort_general_with_scratch17hed8500dda29fdd4dE, symObjAddr: 0xB0D0, symBinAddr: 0x10005DE74, symSize: 0x494 }
  - { offset: 0x10B3B9, size: 0x8, addend: 0x0, symName: '__ZN4core4iter5range101_$LT$impl$u20$core..iter..traits..iterator..Iterator$u20$for$u20$core..ops..range..Range$LT$A$GT$$GT$4next17h41bb80890eb0b6f3E', symObjAddr: 0x0, symBinAddr: 0x10005E308, symSize: 0x24 }
  - { offset: 0x10B5F6, size: 0x8, addend: 0x0, symName: '__ZN4core4iter5range101_$LT$impl$u20$core..iter..traits..iterator..Iterator$u20$for$u20$core..ops..range..Range$LT$A$GT$$GT$4next17h41bb80890eb0b6f3E', symObjAddr: 0x0, symBinAddr: 0x10005E308, symSize: 0x24 }
  - { offset: 0x10B62D, size: 0x8, addend: 0x0, symName: '__ZN4core4iter5range101_$LT$impl$u20$core..iter..traits..iterator..Iterator$u20$for$u20$core..ops..range..Range$LT$A$GT$$GT$9size_hint17h499306730478854eE', symObjAddr: 0x24, symBinAddr: 0x10005E32C, symSize: 0x88 }
  - { offset: 0x10B690, size: 0x8, addend: 0x0, symName: '__ZN89_$LT$core..ops..range..Range$LT$T$GT$$u20$as$u20$core..iter..range..RangeIteratorImpl$GT$9spec_next17h52424c3752a93f94E', symObjAddr: 0x57C, symBinAddr: 0x10005E884, symSize: 0x94 }
  - { offset: 0x10B8A5, size: 0x8, addend: 0x0, symName: __ZN4core4iter6traits8iterator8Iterator3map17h15f171d9efd99549E, symObjAddr: 0xAC, symBinAddr: 0x10005E3B4, symSize: 0x28 }
  - { offset: 0x10B912, size: 0x8, addend: 0x0, symName: __ZN4core4iter6traits8iterator8Iterator3map17hb9c23228fc56b12eE, symObjAddr: 0xD4, symBinAddr: 0x10005E3DC, symSize: 0x28 }
  - { offset: 0x10B97F, size: 0x8, addend: 0x0, symName: __ZN4core4iter6traits8iterator8Iterator3map17he2a10892a3a90ee3E, symObjAddr: 0xFC, symBinAddr: 0x10005E404, symSize: 0x28 }
  - { offset: 0x10B9EC, size: 0x8, addend: 0x0, symName: __ZN4core4iter6traits8iterator8Iterator4find17hdbd0de917232e96eE, symObjAddr: 0x124, symBinAddr: 0x10005E42C, symSize: 0x78 }
  - { offset: 0x10BA6B, size: 0x8, addend: 0x0, symName: __ZN4core4iter6traits8iterator8Iterator4fold17h4db1d75c827ac64fE, symObjAddr: 0x19C, symBinAddr: 0x10005E4A4, symSize: 0xD8 }
  - { offset: 0x10BAFB, size: 0x8, addend: 0x0, symName: __ZN4core4iter6traits8iterator8Iterator4fold17hb1df1bef6e3f8796E, symObjAddr: 0x274, symBinAddr: 0x10005E57C, symSize: 0xD8 }
  - { offset: 0x10BB8B, size: 0x8, addend: 0x0, symName: __ZN4core4iter6traits8iterator8Iterator4fold17hf552b5f79a008fcdE, symObjAddr: 0x34C, symBinAddr: 0x10005E654, symSize: 0xD8 }
  - { offset: 0x10BC1B, size: 0x8, addend: 0x0, symName: __ZN4core4iter6traits8iterator8Iterator8try_fold17hf4c63772a3da7f3cE, symObjAddr: 0x424, symBinAddr: 0x10005E72C, symSize: 0x144 }
  - { offset: 0x10BD3E, size: 0x8, addend: 0x0, symName: '__ZN63_$LT$I$u20$as$u20$core..iter..traits..collect..IntoIterator$GT$9into_iter17he8157ee03dd3491cE', symObjAddr: 0x568, symBinAddr: 0x10005E870, symSize: 0x14 }
  - { offset: 0x10BF8A, size: 0x8, addend: 0x0, symName: '__ZN97_$LT$core..ops..range..RangeFull$u20$as$u20$core..slice..index..SliceIndex$LT$$u5b$T$u5d$$GT$$GT$5index17h11e51b461f37d6e6E', symObjAddr: 0x610, symBinAddr: 0x10005E918, symSize: 0x18 }
  - { offset: 0x10C48E, size: 0x8, addend: 0x0, symName: __ZN3std6thread9lifecycle15spawn_unchecked17h2a122e7cfa817830E, symObjAddr: 0x0, symBinAddr: 0x10005E930, symSize: 0x6D0 }
  - { offset: 0x10C59B, size: 0x8, addend: 0x0, symName: '__ZN3std6thread9lifecycle15spawn_unchecked28_$u7b$$u7b$closure$u7d$$u7d$28_$u7b$$u7b$closure$u7d$$u7d$17hb6c80de640e5f81cE', symObjAddr: 0xA2C, symBinAddr: 0x10005F35C, symSize: 0x138 }
  - { offset: 0x10C7E3, size: 0x8, addend: 0x0, symName: '__ZN3std6thread9lifecycle15spawn_unchecked28_$u7b$$u7b$closure$u7d$$u7d$17hcea329a1d5aa5f35E', symObjAddr: 0x6D0, symBinAddr: 0x10005F000, symSize: 0x138 }
  - { offset: 0x10C927, size: 0x8, addend: 0x0, symName: '__ZN3std6thread9lifecycle15spawn_unchecked28_$u7b$$u7b$closure$u7d$$u7d$28_$u7b$$u7b$closure$u7d$$u7d$17hf05d4c86712e0b9dE', symObjAddr: 0xB64, symBinAddr: 0x10005F494, symSize: 0xA8 }
  - { offset: 0x10C97C, size: 0x8, addend: 0x0, symName: '__ZN3std6thread9lifecycle15spawn_unchecked28_$u7b$$u7b$closure$u7d$$u7d$28_$u7b$$u7b$closure$u7d$$u7d$28_$u7b$$u7b$closure$u7d$$u7d$17h9442ac558a94d3aaE', symObjAddr: 0xC0C, symBinAddr: 0x10005F53C, symSize: 0x34 }
  - { offset: 0x10C9BA, size: 0x8, addend: 0x0, symName: '__ZN3std6thread9lifecycle15spawn_unchecked28_$u7b$$u7b$closure$u7d$$u7d$17he40dcd81bc24a99aE', symObjAddr: 0x808, symBinAddr: 0x10005F138, symSize: 0x224 }
  - { offset: 0x10CDB1, size: 0x8, addend: 0x0, symName: __ZN3std6thread9lifecycle15spawn_unchecked17h2a122e7cfa817830E, symObjAddr: 0x0, symBinAddr: 0x10005E930, symSize: 0x6D0 }
  - { offset: 0x10D5E0, size: 0x8, addend: 0x0, symName: '__ZN81_$LT$std..thread..lifecycle..Packet$LT$T$GT$$u20$as$u20$core..ops..drop..Drop$GT$4drop28_$u7b$$u7b$closure$u7d$$u7d$17hd3333fffb98eee64E', symObjAddr: 0xDA4, symBinAddr: 0x10005F6D4, symSize: 0x7C }
  - { offset: 0x112381, size: 0x8, addend: 0x0, symName: '__ZN3std6thread9lifecycle18JoinInner$LT$T$GT$4join17h4c4d62db5e1059b8E', symObjAddr: 0xC40, symBinAddr: 0x10005F570, symSize: 0x164 }
  - { offset: 0x112469, size: 0x8, addend: 0x0, symName: __ZN4core3cmp8Ordering4then17h28fe0666386d9abdE, symObjAddr: 0x0, symBinAddr: 0x10005F7A4, symSize: 0x44 }
  - { offset: 0x1124B0, size: 0x8, addend: 0x0, symName: __ZN4core3cmp8Ordering4then17h28fe0666386d9abdE, symObjAddr: 0x0, symBinAddr: 0x10005F7A4, symSize: 0x44 }
  - { offset: 0x112500, size: 0x8, addend: 0x0, symName: '__ZN5alloc3vec13in_place_drop20InPlaceDrop$LT$T$GT$3len17h1858877c58d1988aE', symObjAddr: 0x0, symBinAddr: 0x10005F7E8, symSize: 0x84 }
  - { offset: 0x112FB8, size: 0x8, addend: 0x0, symName: '__ZN5alloc3vec13in_place_drop20InPlaceDrop$LT$T$GT$3len17h1858877c58d1988aE', symObjAddr: 0x0, symBinAddr: 0x10005F7E8, symSize: 0x84 }
  - { offset: 0x11304E, size: 0x8, addend: 0x0, symName: '__ZN5alloc3vec16Vec$LT$T$C$A$GT$13from_parts_in18precondition_check17he981db0391867166E', symObjAddr: 0x0, symBinAddr: 0x10005F86C, symSize: 0x60 }
